 Steamhammer

 Timestamp is 69f79e56 (Sun May  3 21:13:26 2026)

 Preferred load address is 10000000

 Start         Length     Name                   Class
 0001:00000000 00026470H .text$di                CODE
 0001:00026470 000b90a0H .text$mn                CODE
 0001:000df510 0000ee80H .text$x                 CODE
 0001:000ee390 0000114aH .text$yd                CODE
 0002:00000000 000002a4H .idata$5                DATA
 0002:000002a4 00000008H .00cfg                  DATA
 0002:000002ac 00000004H .CRT$XCA                DATA
 0002:000002b0 00000004H .CRT$XCL                DATA
 0002:000002b4 00000778H .CRT$XCU                DATA
 0002:00000a2c 00000004H .CRT$XCZ                DATA
 0002:00000a30 00000004H .CRT$XIA                DATA
 0002:00000a34 00000004H .CRT$XIZ                DATA
 0002:00000a38 00000004H .CRT$XLA                DATA
 0002:00000a3c 00000004H .CRT$XLZ                DATA
 0002:00000a40 00000004H .CRT$XPA                DATA
 0002:00000a44 00000004H .CRT$XPZ                DATA
 0002:00000a48 00000004H .CRT$XTA                DATA
 0002:00000a4c 00000014H .CRT$XTZ                DATA
 0002:00000a50 00000000H .gfids$y                DATA
 0002:00000a60 0001dc20H .rdata                  DATA
 0002:0001e680 00000000H .rdata$CastGuardVftablesA DATA
 0002:0001e680 00000000H .rdata$CastGuardVftablesC DATA
 0002:0001e680 00000018H .rdata$T                DATA
 0002:0001e698 00001f1cH .rdata$r                DATA
 0002:000205b4 00000710H .rdata$sxdata           DATA
 0002:00020cc4 000000c4H .rdata$voltmd           DATA
 0002:00020d88 000003dcH .rdata$zzzdbg           DATA
 0002:00021164 00000004H .rtc$IAA                DATA
 0002:00021168 00000004H .rtc$IZZ                DATA
 0002:0002116c 00000004H .rtc$TAA                DATA
 0002:00021170 00000004H .rtc$TZZ                DATA
 0002:00021174 00000004H .tls                    DATA
 0002:00021178 00000004H .tls$                   DATA
 0002:0002117c 00000004H .tls$ZZZ                DATA
 0002:00021180 0000c3d0H .xdata$x                DATA
 0002:0002d550 00000064H .edata                  DATA
 0002:0002d5b4 000000f0H .idata$2                DATA
 0002:0002d6a4 00000014H .idata$3                DATA
 0002:0002d6b8 000002a4H .idata$4                DATA
 0002:0002d95c 0000173eH .idata$6                DATA
 0003:00000000 00000370H .data                   DATA
 0003:00000370 000004a0H .data$r                 DATA
 0003:00000810 000014c8H .data$rs                DATA
 0003:00001cd8 000198c0H .bss                    DATA
 0004:00000000 00010f10H _RDATA                  DATA
 0005:00000000 00000060H .rsrc$01                DATA
 0005:00000060 00000180H .rsrc$02                DATA

  Address         Publics by Value              Rva+Base       Lib:Object

 0000:00000000       ___AbsoluteZero            00000000     <absolute>
 0000:00000000       ___arm64x_extra_rfe_table  00000000     <absolute>
 0000:00000000       ___arm64x_extra_rfe_table_size 00000000     <absolute>
 0000:00000000       ___arm64x_native_entrypoint 00000000     <absolute>
 0000:00000000       ___arm64x_redirection_metadata 00000000     <absolute>
 0000:00000000       ___arm64x_redirection_metadata_count 00000000     <absolute>
 0000:00000000       ___dynamic_value_reloc_table 00000000     <absolute>
 0000:00000000       ___enclave_config          00000000     <absolute>
 0000:00000000       ___guard_check_icall_a64n_fptr 00000000     <absolute>
 0000:00000000       ___guard_eh_cont_count     00000000     <absolute>
 0000:00000000       ___guard_eh_cont_table     00000000     <absolute>
 0000:00000000       ___guard_fids_count        00000000     <absolute>
 0000:00000000       ___guard_fids_table        00000000     <absolute>
 0000:00000000       ___guard_iat_count         00000000     <absolute>
 0000:00000000       ___guard_iat_table         00000000     <absolute>
 0000:00000000       ___guard_longjmp_count     00000000     <absolute>
 0000:00000000       ___guard_longjmp_table     00000000     <absolute>
 0000:00000000       ___hybrid_auxiliary_delayload_iat 00000000     <absolute>
 0000:00000000       ___hybrid_auxiliary_delayload_iat_copy 00000000     <absolute>
 0000:00000000       ___hybrid_auxiliary_iat    00000000     <absolute>
 0000:00000000       ___hybrid_auxiliary_iat_copy 00000000     <absolute>
 0000:00000000       ___hybrid_code_map         00000000     <absolute>
 0000:00000000       ___hybrid_code_map_count   00000000     <absolute>
 0000:00000000       ___hybrid_image_info_bitfield 00000000     <absolute>
 0000:00000000       ___x64_code_ranges_to_entry_points 00000000     <absolute>
 0000:00000000       ___x64_code_ranges_to_entry_points_count 00000000     <absolute>
 0000:0000002c       __tls_array                0000002c     <absolute>
 0000:00000100       ___guard_flags             00000100     <absolute>
 0000:000001c4       ___safe_se_handler_count   000001c4     <absolute>
 0000:00000000       ___ImageBase               10000000     <linker-defined>
 0001:00026470       ??2@YAPAXIPAX@Z            10027470 f i Base.obj
 0001:00026480       _ceilf                     10027480 f i Base.obj
 0001:000264a0       ?_Fnv1a_append_bytes@std@@YAIIQBEI@Z 100274a0 f i Base.obj
 0001:000264e0       ??0exception@std@@QAE@ABV01@@Z 100274e0 f i Base.obj
 0001:00026510       ??1bad_alloc@std@@UAE@XZ   10027510 f i Base.obj
 0001:00026510       ??1bad_array_new_length@std@@UAE@XZ 10027510 f i Base.obj
 0001:00026510       ??1bad_cast@std@@UAE@XZ    10027510 f i GameCommander.obj
 0001:00026510       ??1exception@std@@UAE@XZ   10027510 f i Base.obj
 0001:00026510       ??1game_record_read_error@@UAE@XZ 10027510 f i GameRecord.obj
 0001:00026530       ?what@exception@std@@UBEPBDXZ 10027530 f i Base.obj
 0001:00026540       ??_Ebad_alloc@std@@UAEPAXI@Z 10027540 f i * CIL library *:* CIL module *
 0001:00026540       ??_Ebad_array_new_length@std@@UAEPAXI@Z 10027540 f i * CIL library *:* CIL module *
 0001:00026540       ??_Ebad_cast@std@@UAEPAXI@Z 10027540 f i * CIL library *:* CIL module *
 0001:00026540       ??_Eexception@std@@UAEPAXI@Z 10027540 f i * CIL library *:* CIL module *
 0001:00026540       ??_Egame_record_read_error@@UAEPAXI@Z 10027540 f i * CIL library *:* CIL module *
 0001:00026540       ??_Gbad_alloc@std@@UAEPAXI@Z 10027540 f i Base.obj
 0001:00026540       ??_Gbad_array_new_length@std@@UAEPAXI@Z 10027540 f i Base.obj
 0001:00026540       ??_Gbad_cast@std@@UAEPAXI@Z 10027540 f i GameCommander.obj
 0001:00026540       ??_Gexception@std@@UAEPAXI@Z 10027540 f i Base.obj
 0001:00026540       ??_Ggame_record_read_error@@UAEPAXI@Z 10027540 f i GameRecord.obj
 0001:00026580       ??0bad_array_new_length@std@@QAE@XZ 10027580 f i Base.obj
 0001:000265a0       ?_Throw_bad_array_new_length@std@@YAXXZ 100275a0 f i Base.obj
 0001:000265a0       ?__scrt_throw_std_bad_array_new_length@@YAXXZ 100275a0 f i MSVCRT:throw_bad_alloc.obj
 0001:000265c0       ??0bad_array_new_length@std@@QAE@ABV01@@Z 100275c0 f i Base.obj
 0001:00026600       ??0bad_alloc@std@@QAE@ABV01@@Z 10027600 f i Base.obj
 0001:00026640       ??1?$GenericValue@U?$UTF8@D@rapidjson@@V?$MemoryPoolAllocator@VCrtAllocator@rapidjson@@@2@@rapidjson@@QAE@XZ 10027640 f i JSONTools.obj
 0001:00026640       ?_Orphan_all@_Container_base0@std@@QAEXXZ 10027640 f i Base.obj
 0001:00026640       ?_Release@_Fake_proxy_ptr_impl@std@@QAEXXZ 10027640 f i Base.obj
 0001:00026640       ?__empty_global_delete@@YAXPAXI@Z 10027640 f i msvcprt:locale0_implib.obj
 0001:00026640       ?__global_delete@@YAXPAXI@Z 10027640 f i msvcprt:locale0_implib.obj
 0001:00026640       ?draw@AirHitsFixedTask@UAlbertaBot@@UBEXXZ 10027640 f i GridTasks.obj
 0001:00026640       ?draw@AirHitsMobileTask@UAlbertaBot@@UBEXXZ 10027640 f i GridTasks.obj
 0001:00026640       ?draw@GroundHitsFixedTask@UAlbertaBot@@UBEXXZ 10027640 f i GridTasks.obj
 0001:00026640       ?draw@GroundHitsMobileTask@UAlbertaBot@@UBEXXZ 10027640 f i GridTasks.obj
 0001:00026640       ?draw@Skill@UAlbertaBot@@UBEXXZ 10027640 f i Skill.obj
 0001:00026640       ?execute@SkillBattles@UAlbertaBot@@UAEXXZ 10027640 f i SkillBattles.obj
 0001:00026640       ?execute@SkillLurkers@UAlbertaBot@@UAEXXZ 10027640 f i SkillLurkers.obj
 0001:00026640       ?execute@SkillOpeningTiming@UAlbertaBot@@UAEXXZ 10027640 f i SkillOpeningTiming.obj
 0001:00026640       ?execute@SkillUnitTimings@UAlbertaBot@@UAEXXZ 10027640 f i SkillUnitTimings.obj
 0001:00026640       ?initialize@AirSafePathTask@UAlbertaBot@@UAEXXZ 10027640 f i GridTasks.obj
 0001:00026640       ?initialize@GroundSafePathTask@UAlbertaBot@@UAEXXZ 10027640 f i GridTasks.obj
 0001:00026640       @_guard_check_icall_nop@4  10027640 f i MSVCRT:guard_support.obj
 0001:00026650       ?_Adopt@_Iterator_base0@std@@QAEXPBX@Z 10027650 f i Base.obj
 0001:00026650       ?_Alloc_proxy@_Container_base0@std@@QAEXABU_Fake_allocator@2@@Z 10027650 f i Base.obj
 0001:00026650       ?_Swap_proxy_and_iterators@_Container_base0@std@@QAEXAAU12@@Z 10027650 f i BOSSManager.obj
 0001:00026660       ?_Getcont@_Iterator_base0@std@@QBEPBU_Container_base0@2@XZ 10027660 f i Base.obj
 0001:00026660       ___scrt_stub_for_is_c_termination_complete 10027660 f i MSVCRT:ucrt_stubs.obj
 0001:00026660       __is_c_termination_complete 10027660 f i MSVCRT:ucrt_stubs.obj
 0001:00026670       ??0_Fake_proxy_ptr_impl@std@@QAE@ABU_Fake_allocator@1@ABU_Container_base0@1@@Z 10027670 f i Base.obj
 0001:00026680       ?_Xlen_string@std@@YAXXZ   10027680 f i Base.obj
 0001:00026690       ?_Throw_tree_length_error@std@@YAXXZ 10027690 f i Base.obj
 0001:000266a0       ?_Floor_of_log_2@std@@YAKI@Z 100276a0 f i Base.obj
 0001:000266b0       ?_Ceiling_of_log_2@std@@YAKI@Z 100276b0 f i Base.obj
 0001:000266c0       ??1?$UnaryFilter@PAVUnitInterface@BWAPI@@V?$function@$$A6A_NPAVUnitInterface@BWAPI@@@Z@std@@@BWAPI@@QAE@XZ 100276c0 f i Base.obj
 0001:000266c0       ??1?$_Func_class@_NPAVUnitInterface@BWAPI@@@std@@QAE@XZ 100276c0 f i Base.obj
 0001:000266f0       ??4Unitset@BWAPI@@QAEAAV01@ABV01@@Z 100276f0 f i Base.obj
 0001:00026750       ??1Bulletset@BWAPI@@QAE@XZ 10027750 f i InformationManager.obj
 0001:00026750       ??1Unitset@BWAPI@@QAE@XZ   10027750 f i Base.obj
 0001:00026760       ??0Unitset@BWAPI@@QAE@XZ   10027760 f i Base.obj
 0001:00026810       ??1?$_Hash@V?$_Uset_traits@PAVBulletInterface@BWAPI@@V?$_Uhash_compare@PAVBulletInterface@BWAPI@@U?$hash@PAX@std@@U?$equal_to@PAVBulletInterface@BWAPI@@@4@@std@@V?$allocator@PAVBulletInterface@BWAPI@@@4@$0A@@std@@@std@@QAE@XZ 10027810 f i InformationManager.obj
 0001:00026810       ??1?$_Hash@V?$_Uset_traits@PAVUnitInterface@BWAPI@@V?$_Uhash_compare@PAVUnitInterface@BWAPI@@U?$hash@PAX@std@@U?$equal_to@PAVUnitInterface@BWAPI@@@4@@std@@V?$allocator@PAVUnitInterface@BWAPI@@@4@$0A@@std@@@std@@QAE@XZ 10027810 f i Base.obj
 0001:00026860       ?self@The@UAlbertaBot@@QBEPAVPlayerInterface@BWAPI@@XZ 10027860 f i Base.obj
 0001:00026880       ?Root@The@UAlbertaBot@@SAAAV12@XZ 10027880 f i Base.obj
 0001:00026910       ??1The@UAlbertaBot@@QAE@XZ 10027910 f i Base.obj
 0001:00026ac0       ??1AirAttacksFixed@UAlbertaBot@@QAE@XZ 10027ac0 f i Base.obj
 0001:00026ac0       ??1AirAttacksMobile@UAlbertaBot@@QAE@XZ 10027ac0 f i Base.obj
 0001:00026ac0       ??1Grid@UAlbertaBot@@QAE@XZ 10027ac0 f i Base.obj
 0001:00026ac0       ??1GridInset@UAlbertaBot@@QAE@XZ 10027ac0 f i Base.obj
 0001:00026ac0       ??1GridRoom@UAlbertaBot@@QAE@XZ 10027ac0 f i Base.obj
 0001:00026ac0       ??1GridSafePathAir@UAlbertaBot@@QAE@XZ 10027ac0 f i Base.obj
 0001:00026ac0       ??1GridSafePathGround@UAlbertaBot@@QAE@XZ 10027ac0 f i Base.obj
 0001:00026ac0       ??1GridTileRoom@UAlbertaBot@@QAE@XZ 10027ac0 f i Base.obj
 0001:00026ac0       ??1GroundAttacksFixed@UAlbertaBot@@QAE@XZ 10027ac0 f i Base.obj
 0001:00026ac0       ??1GroundAttacksMobile@UAlbertaBot@@QAE@XZ 10027ac0 f i Base.obj
 0001:00026ad0       ??1GridZone@UAlbertaBot@@QAE@XZ 10027ad0 f i Base.obj
 0001:00026af0       ??1MapPartitions@UAlbertaBot@@QAE@XZ 10027af0 f i Base.obj
 0001:00026b10       ??1MapTools@UAlbertaBot@@QAE@XZ 10027b10 f i Base.obj
 0001:00026b60       ??1CombatSimulation@UAlbertaBot@@QAE@XZ 10027b60 f i Base.obj
 0001:00026b80       ??1Micro@UAlbertaBot@@QAE@XZ 10027b80 f i Base.obj
 0001:00026b90       ??1BuildingPlacer@UAlbertaBot@@QAE@XZ 10027b90 f i Base.obj
 0001:00026bb0       ??1OpsBoss@UAlbertaBot@@QAE@XZ 10027bb0 f i Base.obj
 0001:00026bd0       ??1?$_Vb_val@V?$allocator@_N@std@@@std@@QAE@XZ 10027bd0 f i Base.obj
 0001:00026bd0       ??1?$vector@HV?$allocator@H@std@@@std@@QAE@XZ 10027bd0 f i Base.obj
 0001:00026bd0       ??1?$vector@IV?$allocator@I@std@@@std@@QAE@XZ 10027bd0 f i Base.obj
 0001:00026bd0       ??1?$vector@PAVUnitInterface@BWAPI@@V?$allocator@PAVUnitInterface@BWAPI@@@std@@@std@@QAE@XZ 10027bd0 f i CombatCommander.obj
 0001:00026bd0       ??1?$vector@VUpgradeType@BWAPI@@V?$allocator@VUpgradeType@BWAPI@@@std@@@std@@QAE@XZ 10027bd0 f i StrategyBossZerg.obj
 0001:00026bd0       ??1?$vector@_NV?$allocator@_N@std@@@std@@QAE@XZ 10027bd0 f i Base.obj
 0001:00026bd0       ??1SkillKit@UAlbertaBot@@QAE@XZ 10027bd0 f i Base.obj
 0001:00026be0       ??1Tasks@UAlbertaBot@@QAE@XZ 10027be0 f i Base.obj
 0001:00026c00       ??1My@UAlbertaBot@@QAE@XZ  10027c00 f i Base.obj
 0001:00026c50       ??1Your@UAlbertaBot@@QAE@XZ 10027c50 f i Base.obj
 0001:00026cb0       ??1PlayerSnapshot@UAlbertaBot@@QAE@XZ 10027cb0 f i Base.obj
 0001:00026cd0       ??1?$map@PAVUnitInterface@BWAPI@@PAV12@U?$less@PAVUnitInterface@BWAPI@@@std@@V?$allocator@U?$pair@QAVUnitInterface@BWAPI@@PAV12@@std@@@4@@std@@QAE@XZ 10027cd0 f i WorkerData.obj
 0001:00026cd0       ??1?$map@PAVUnitInterface@BWAPI@@W4WorkerJob@WorkerData@UAlbertaBot@@U?$less@PAVUnitInterface@BWAPI@@@std@@V?$allocator@U?$pair@QAVUnitInterface@BWAPI@@W4WorkerJob@WorkerData@UAlbertaBot@@@std@@@7@@std@@QAE@XZ 10027cd0 f i WorkerData.obj
 0001:00026cd0       ??1?$map@PAVUnitInterface@BWAPI@@_NU?$less@PAVUnitInterface@BWAPI@@@std@@V?$allocator@U?$pair@QAVUnitInterface@BWAPI@@_N@std@@@4@@std@@QAE@XZ 10027cd0 f i Squad.obj
 0001:00026cd0       ??1?$map@VUnitType@BWAPI@@HU?$less@VUnitType@BWAPI@@@std@@V?$allocator@U?$pair@$$CBVUnitType@BWAPI@@H@std@@@4@@std@@QAE@XZ 10027cd0 f i Base.obj
 0001:00026cd0       ??1?$map@VUpgradeType@BWAPI@@HU?$less@VUpgradeType@BWAPI@@@std@@V?$allocator@U?$pair@$$CBVUpgradeType@BWAPI@@H@std@@@4@@std@@QAE@XZ 10027cd0 f i GameRecord.obj
 0001:00026cd0       ??1?$set@V?$Point@H$0CA@@BWAPI@@U?$less@V?$Point@H$0CA@@BWAPI@@@std@@V?$allocator@V?$Point@H$0CA@@BWAPI@@@4@@std@@QAE@XZ 10027cd0 f i MicroOverlords.obj
 0001:00026cf0       ?findIsStartingBase@Base@UAlbertaBot@@ABE_NXZ 10027cf0 f   Base.obj
 0001:00026d70       ?findFront@Base@UAlbertaBot@@ABE?AV?$Point@H$0CA@@BWAPI@@XZ 10027d70 f   Base.obj
 0001:00026f50       ?findMineralOffset@Base@UAlbertaBot@@ABE?AV?$Point@H$00@BWAPI@@XZ 10027f50 f   Base.obj
 0001:00027010       ??0Base@UAlbertaBot@@QAE@V?$Point@H$0CA@@BWAPI@@ABVUnitset@3@@Z 10028010 f   Base.obj
 0001:00027450       ??1GridDistances@UAlbertaBot@@QAE@XZ 10028450 f i Base.obj
 0001:00027470       ?setID@Base@UAlbertaBot@@QAEXH@Z 10028470 f   Base.obj
 0001:000274c0       ?initializeFront@Base@UAlbertaBot@@QAEXXZ 100284c0 f   Base.obj
 0001:000274f0       ?isCompleted@Base@UAlbertaBot@@QBE_NXZ 100284f0 f   Base.obj
 0001:000276f0       ?setInferredEnemyBase@Base@UAlbertaBot@@QAEXXZ 100286f0 f   Base.obj
 0001:00027770       ??0Unitset@BWAPI@@QAE@ABV01@@Z 10028770 f i Base.obj
 0001:00027830       ?getLastKnownMinerals@Base@UAlbertaBot@@QBEHXZ 10028830 f   Base.obj
 0001:00027930       ?getLastKnownGas@Base@UAlbertaBot@@QBEHXZ 10028930 f   Base.obj
 0001:00027a30       ?getNumUnits@Base@UAlbertaBot@@QBEHVUnitType@BWAPI@@@Z 10028a30 f   Base.obj
 0001:00027b80       ?isInBase@Base@UAlbertaBot@@QBE_NV?$Point@H$0CA@@BWAPI@@@Z 10028b80 f   Base.obj
 0001:00027c60       ?getPylon@Base@UAlbertaBot@@QBEPAVUnitInterface@BWAPI@@XZ 10028c60 f   Base.obj
 0001:00027d60       ?isExplored@Base@UAlbertaBot@@QBE_NXZ 10028d60 f   Base.obj
 0001:00027e10       ?isVisible@Base@UAlbertaBot@@QBE_NXZ 10028e10 f   Base.obj
 0001:00027ec0       ?drawBaseInfo@Base@UAlbertaBot@@QBEXXZ 10028ec0 f   Base.obj
 0001:00028610       ??$?0H$0CA@@?$Point@H$00@BWAPI@@QAE@ABV?$Point@H$0CA@@1@@Z 10029610 f i Base.obj
 0001:00028630       ??$?0H$00@?$Point@H$0CA@@BWAPI@@QAE@ABV?$Point@H$00@1@@Z 10029630 f i Base.obj
 0001:00028660       ??$?VV?$UnaryFilter@PAVUnitInterface@BWAPI@@V?$function@$$A6A_NPAVUnitInterface@BWAPI@@@Z@std@@@BWAPI@@@?$UnaryFilter@PAVUnitInterface@BWAPI@@P6A_NPAV12@@Z@BWAPI@@QBE?AV?$UnaryFilter@PAVUnitInterface@BWAPI@@V?$function@$$A6A_NPAVUnitInterface@BWAPI@@@Z@std@@@1@ABV21@@Z 10029660 f i Base.obj
 0001:00028750       ??$?0V?$allocator@H@std@@$0A@@?$vector@HV?$allocator@H@std@@@std@@QAE@IABHABV?$allocator@H@1@@Z 10029750 f i Base.obj
 0001:000287e0       ??1?$vector@PAUGameSnapshot@UAlbertaBot@@V?$allocator@PAUGameSnapshot@UAlbertaBot@@@std@@@std@@QAE@XZ 100297e0 f i GameRecord.obj
 0001:000287e0       ??1?$vector@PAVBase@UAlbertaBot@@V?$allocator@PAVBase@UAlbertaBot@@@std@@@std@@QAE@XZ 100297e0 f i Bases.obj
 0001:000287e0       ??1?$vector@PAVGameRecord@UAlbertaBot@@V?$allocator@PAVGameRecord@UAlbertaBot@@@std@@@std@@QAE@XZ 100297e0 f i OpponentModel.obj
 0001:000287e0       ??1?$vector@PAVSkill@UAlbertaBot@@V?$allocator@PAVSkill@UAlbertaBot@@@std@@@std@@QAE@XZ 100297e0 f i Base.obj
 0001:000287e0       ??1?$vector@PAVZone@UAlbertaBot@@V?$allocator@PAVZone@UAlbertaBot@@@std@@@std@@QAE@XZ 100297e0 f i Base.obj
 0001:000287e0       ??1?$vector@V?$reference_wrapper@VBuilding@UAlbertaBot@@@std@@V?$allocator@V?$reference_wrapper@VBuilding@UAlbertaBot@@@std@@@2@@std@@QAE@XZ 100297e0 f i BuildingManager.obj
 0001:000287e0       ??1?$vector@VUnitType@BWAPI@@V?$allocator@VUnitType@BWAPI@@@std@@@std@@QAE@XZ 100297e0 f i BOSSManager.obj
 0001:000287e0       ?_Tidy@?$vector@HV?$allocator@H@std@@@std@@AAEXXZ 100297e0 f i Base.obj
 0001:000287e0       ?_Tidy@?$vector@IV?$allocator@I@std@@@std@@AAEXXZ 100297e0 f i Base.obj
 0001:000287e0       ?_Tidy@?$vector@PAVUnitInterface@BWAPI@@V?$allocator@PAVUnitInterface@BWAPI@@@std@@@std@@AAEXXZ 100297e0 f i CombatCommander.obj
 0001:000287e0       ?_Tidy@?$vector@VUpgradeType@BWAPI@@V?$allocator@VUpgradeType@BWAPI@@@std@@@std@@AAEXXZ 100297e0 f i StrategyBossZerg.obj
 0001:00028840       ??1?$_Tree@V?$_Tmap_traits@PAVUnitInterface@BWAPI@@VMicroState@UAlbertaBot@@U?$less@PAVUnitInterface@BWAPI@@@std@@V?$allocator@U?$pair@QAVUnitInterface@BWAPI@@VMicroState@UAlbertaBot@@@std@@@6@$0A@@std@@@std@@QAE@XZ 10029840 f i Base.obj
 0001:00028880       ??1?$vector@V?$vector@_NV?$allocator@_N@std@@@std@@V?$allocator@V?$vector@_NV?$allocator@_N@std@@@std@@@2@@std@@QAE@XZ 10029880 f i Base.obj
 0001:00028890       ??E?$_Tree_const_iterator@V?$_Tree_val@U?$_Tree_simple_types@U?$pair@$$CBV?$basic_string@DU?$char_traits@D@std@@V?$allocator@D@2@@std@@UOpeningInfoType@OpponentModel@UAlbertaBot@@@std@@@std@@@std@@@std@@QAEAAV01@XZ 10029890 f i OpponentModel.obj
 0001:00028890       ??E?$_Tree_unchecked_const_iterator@V?$_Tree_val@U?$_Tree_simple_types@PAVZone@UAlbertaBot@@@std@@@std@@U_Iterator_base0@2@@std@@QAEAAV01@XZ 10029890 f i GridZone.obj
 0001:00028890       ??E?$_Tree_unchecked_const_iterator@V?$_Tree_val@U?$_Tree_simple_types@U?$pair@$$CBV?$basic_string@DU?$char_traits@D@std@@V?$allocator@D@2@@std@@PAVTask@UAlbertaBot@@@std@@@std@@@std@@U_Iterator_base0@2@@std@@QAEAAV01@XZ 10029890 f i Tasks.obj
 0001:00028890       ??E?$_Tree_unchecked_const_iterator@V?$_Tree_val@U?$_Tree_simple_types@U?$pair@$$CBV?$basic_string@DU?$char_traits@D@std@@V?$allocator@D@2@@std@@UOpeningInfoType@OpponentModel@UAlbertaBot@@@std@@@std@@@std@@U_Iterator_base0@2@@std@@QAEAAV01@XZ 10029890 f i OpponentModel.obj
 0001:00028890       ??E?$_Tree_unchecked_const_iterator@V?$_Tree_val@U?$_Tree_simple_types@U?$pair@$$CBV?$basic_string@DU?$char_traits@D@std@@V?$allocator@D@2@@std@@VSquad@UAlbertaBot@@@std@@@std@@@std@@U_Iterator_base0@2@@std@@QAEAAV01@XZ 10029890 f i SquadData.obj
 0001:00028890       ??E?$_Tree_unchecked_const_iterator@V?$_Tree_val@U?$_Tree_simple_types@U?$pair@$$CBVUnitType@BWAPI@@H@std@@@std@@@std@@U_Iterator_base0@2@@std@@QAEAAV01@XZ 10029890 f i GameRecord.obj
 0001:00028890       ??E?$_Tree_unchecked_const_iterator@V?$_Tree_val@U?$_Tree_simple_types@U?$pair@QAVUnitInterface@BWAPI@@H@std@@@std@@@std@@U_Iterator_base0@2@@std@@QAEAAV01@XZ 10029890 f i WorkerData.obj
 0001:00028890       ??E?$_Tree_unchecked_const_iterator@V?$_Tree_val@U?$_Tree_simple_types@U?$pair@QAVUnitInterface@BWAPI@@PAV12@@std@@@std@@@std@@U_Iterator_base0@2@@std@@QAEAAV01@XZ 10029890 f i MicroMutas.obj
 0001:00028890       ??E?$_Tree_unchecked_const_iterator@V?$_Tree_val@U?$_Tree_simple_types@U?$pair@QAVUnitInterface@BWAPI@@PAVBase@UAlbertaBot@@@std@@@std@@@std@@U_Iterator_base0@2@@std@@QAEAAV01@XZ 10029890 f i Bases.obj
 0001:00028890       ??E?$_Tree_unchecked_const_iterator@V?$_Tree_val@U?$_Tree_simple_types@U?$pair@QAVUnitInterface@BWAPI@@UUnitInfo@UAlbertaBot@@@std@@@std@@@std@@U_Iterator_base0@2@@std@@QAEAAV01@XZ 10029890 f i Base.obj
 0001:00028890       ??E?$_Tree_unchecked_const_iterator@V?$_Tree_val@U?$_Tree_simple_types@U?$pair@QAVUnitInterface@BWAPI@@V?$Point@H$0CA@@2@@std@@@std@@@std@@U_Iterator_base0@2@@std@@QAEAAV01@XZ 10029890 f i MicroOverlords.obj
 0001:00028890       ??E?$_Tree_unchecked_const_iterator@V?$_Tree_val@U?$_Tree_simple_types@U?$pair@QAVUnitInterface@BWAPI@@VCasterState@UAlbertaBot@@@std@@@std@@@std@@U_Iterator_base0@2@@std@@QAEAAV01@XZ 10029890 f i MicroManager.obj
 0001:00028890       ??E?$_Tree_unchecked_const_iterator@V?$_Tree_val@U?$_Tree_simple_types@U?$pair@QAVUnitInterface@BWAPI@@VMicroState@UAlbertaBot@@@std@@@std@@@std@@U_Iterator_base0@2@@std@@QAEAAV01@XZ 10029890 f i Micro.obj
 0001:00028890       ??E?$_Tree_unchecked_const_iterator@V?$_Tree_val@U?$_Tree_simple_types@U?$pair@QAVUnitInterface@BWAPI@@VWorkerPost@WorkerData@UAlbertaBot@@@std@@@std@@@std@@U_Iterator_base0@2@@std@@QAEAAV01@XZ 10029890 f i WorkerData.obj
 0001:00028890       ??E?$_Tree_unchecked_const_iterator@V?$_Tree_val@U?$_Tree_simple_types@U?$pair@QAVUnitInterface@BWAPI@@W4WorkerJob@WorkerData@UAlbertaBot@@@std@@@std@@@std@@U_Iterator_base0@2@@std@@QAEAAV01@XZ 10029890 f i WorkerData.obj
 0001:000288f0       ??1?$vector@V?$Point@H$00@BWAPI@@V?$allocator@V?$Point@H$00@BWAPI@@@std@@@std@@QAE@XZ 100298f0 f i MicroTransports.obj
 0001:000288f0       ??1?$vector@V?$Point@H$0CA@@BWAPI@@V?$allocator@V?$Point@H$0CA@@BWAPI@@@std@@@std@@QAE@XZ 100298f0 f i Base.obj
 0001:00028900       ??1?$_Hash_vec@V?$allocator@V?$_List_unchecked_const_iterator@V?$_List_val@U?$_List_simple_types@PAVBulletInterface@BWAPI@@@std@@@std@@U_Iterator_base0@2@@std@@@std@@@std@@QAE@XZ 10029900 f i InformationManager.obj
 0001:00028900       ??1?$_Hash_vec@V?$allocator@V?$_List_unchecked_const_iterator@V?$_List_val@U?$_List_simple_types@PAVUnitInterface@BWAPI@@@std@@@std@@U_Iterator_base0@2@@std@@@std@@@std@@QAE@XZ 10029900 f i Base.obj
 0001:00028960       ??9?$_List_const_iterator@V?$_List_val@U?$_List_simple_types@PAVUnitInterface@BWAPI@@@std@@@std@@@std@@QBE_NABV01@@Z 10029960 f i Base.obj
 0001:00028960       ??9?$_List_const_iterator@V?$_List_val@U?$_List_simple_types@VUnitType@BWAPI@@@std@@@std@@@std@@QBE_NABV01@@Z 10029960 f i GameCommander.obj
 0001:00028960       ??9?$_List_unchecked_const_iterator@V?$_List_val@U?$_List_simple_types@VUnitType@BWAPI@@@std@@@std@@U_Iterator_base0@2@@std@@QBE_NABV01@@Z 10029960 f i BOSS:ActionTypeData.obj
 0001:00028980       ??E?$_List_const_iterator@V?$_List_val@U?$_List_simple_types@PAVUnitInterface@BWAPI@@@std@@@std@@@std@@QAEAAV01@XZ 10029980 f i Base.obj
 0001:00028980       ??E?$_List_const_iterator@V?$_List_val@U?$_List_simple_types@VUnitType@BWAPI@@@std@@@std@@@std@@QAEAAV01@XZ 10029980 f i GameCommander.obj
 0001:00028980       ??E?$_List_unchecked_const_iterator@V?$_List_val@U?$_List_simple_types@VUnitType@BWAPI@@@std@@@std@@U_Iterator_base0@2@@std@@QAEAAV01@XZ 10029980 f i BOSS:ActionTypeData.obj
 0001:00028990       ??D?$_List_const_iterator@V?$_List_val@U?$_List_simple_types@PAVUnitInterface@BWAPI@@@std@@@std@@@std@@QBEABQAVUnitInterface@BWAPI@@XZ 10029990 f i Base.obj
 0001:00028990       ??D?$_List_const_iterator@V?$_List_val@U?$_List_simple_types@VUnitType@BWAPI@@@std@@@std@@@std@@QBEABVUnitType@BWAPI@@XZ 10029990 f i GameCommander.obj
 0001:00028990       ??D?$_List_unchecked_const_iterator@V?$_List_val@U?$_List_simple_types@VUnitType@BWAPI@@@std@@@std@@U_Iterator_base0@2@@std@@QBEABVUnitType@BWAPI@@XZ 10029990 f i BOSS:ActionTypeData.obj
 0001:000289a0       ??1?$list@PAVBulletInterface@BWAPI@@V?$allocator@PAVBulletInterface@BWAPI@@@std@@@std@@QAE@XZ 100299a0 f i InformationManager.obj
 0001:000289a0       ??1?$list@PAVUnitInterface@BWAPI@@V?$allocator@PAVUnitInterface@BWAPI@@@std@@@std@@QAE@XZ 100299a0 f i Base.obj
 0001:000289a0       ??1?$list@W4MacroCommandType@UAlbertaBot@@V?$allocator@W4MacroCommandType@UAlbertaBot@@@std@@@std@@QAE@XZ 100299a0 f i MacroAct.obj
 0001:000289e0       ?clear@?$_Hash@V?$_Uset_traits@PAVUnitInterface@BWAPI@@V?$_Uhash_compare@PAVUnitInterface@BWAPI@@U?$hash@PAX@std@@U?$equal_to@PAVUnitInterface@BWAPI@@@4@@std@@V?$allocator@PAVUnitInterface@BWAPI@@@4@$0A@@std@@@std@@QAEXXZ 100299e0 f i Base.obj
 0001:00028a70       ?erase@?$_Hash@V?$_Uset_traits@PAVUnitInterface@BWAPI@@V?$_Uhash_compare@PAVUnitInterface@BWAPI@@U?$hash@PAX@std@@U?$equal_to@PAVUnitInterface@BWAPI@@@4@@std@@V?$allocator@PAVUnitInterface@BWAPI@@@4@$0A@@std@@@std@@QAEIABQAVUnitInterface@BWAPI@@@Z 10029a70 f i Base.obj
 0001:00028b40       ?begin@?$_Hash@V?$_Uset_traits@PAVUnitInterface@BWAPI@@V?$_Uhash_compare@PAVUnitInterface@BWAPI@@U?$hash@PAX@std@@U?$equal_to@PAVUnitInterface@BWAPI@@@4@@std@@V?$allocator@PAVUnitInterface@BWAPI@@@4@$0A@@std@@@std@@QAE?AV?$_List_const_iterator@V?$_List_val@U?$_List_simple_types@PAVUnitInterface@BWAPI@@@std@@@std@@@2@XZ 10029b40 f i Base.obj
 0001:00028b40       ?begin@?$_Hash@V?$_Uset_traits@VUnitType@BWAPI@@V?$_Uhash_compare@VUnitType@BWAPI@@U?$hash@H@std@@U?$equal_to@VUnitType@BWAPI@@@4@@std@@V?$allocator@VUnitType@BWAPI@@@4@$0A@@std@@@std@@QBE?AV?$_List_const_iterator@V?$_List_val@U?$_List_simple_types@VUnitType@BWAPI@@@std@@@std@@@2@XZ 10029b40 f i GameCommander.obj
 0001:00028b60       ?getName@?$Type@VUnitType@BWAPI@@$0OJ@@BWAPI@@QBEABV?$basic_string@DU?$char_traits@D@std@@V?$allocator@D@2@@std@@XZ 10029b60 f i Base.obj
 0001:00028b80       ??B?$Type@VBulletType@BWAPI@@$0NC@@BWAPI@@QBEHXZ 10029b80 f i InformationManager.obj
 0001:00028b80       ??B?$Type@VOrder@BWAPI@@$0LO@@BWAPI@@QBEHXZ 10029b80 f i CombatCommander.obj
 0001:00028b80       ??B?$Type@VRace@BWAPI@@$07@BWAPI@@QBEHXZ 10029b80 f i Bases.obj
 0001:00028b80       ??B?$Type@VTechType@BWAPI@@$0CO@@BWAPI@@QBEHXZ 10029b80 f i BuildOrderQueue.obj
 0001:00028b80       ??B?$Type@VUnitCommandType@BWAPI@@$0CN@@BWAPI@@QBEHXZ 10029b80 f i MacroAct.obj
 0001:00028b80       ??B?$Type@VUnitType@BWAPI@@$0OJ@@BWAPI@@QBEHXZ 10029b80 f i Base.obj
 0001:00028b80       ??B?$Type@VUpgradeType@BWAPI@@$0DO@@BWAPI@@QBEHXZ 10029b80 f i BuildOrderQueue.obj
 0001:00028b80       ??B?$Type@VWeaponType@BWAPI@@$0ID@@BWAPI@@QBEHXZ 10029b80 f i CombatCommander.obj
 0001:00028b80       ?begin@?$initializer_list@VUpgradeType@BWAPI@@@std@@QBEPBVUpgradeType@BWAPI@@XZ 10029b80 f i StrategyBossZerg.obj
 0001:00028b80       ?getID@?$Type@VTechType@BWAPI@@$0CO@@BWAPI@@QBEHXZ 10029b80 f i BOSS:ActionTypeData.obj
 0001:00028b80       ?getID@?$Type@VUnitType@BWAPI@@$0OJ@@BWAPI@@QBEHXZ 10029b80 f i GameRecord.obj
 0001:00028b80       ?getID@?$Type@VUpgradeType@BWAPI@@$0DO@@BWAPI@@QBEHXZ 10029b80 f i BOSS:ActionTypeData.obj
 0001:00028b90       ??8?$Point@H$0CA@@BWAPI@@QBE_NABV01@@Z 10029b90 f i Base.obj
 0001:00028bb0       ??0?$Point@H$00@BWAPI@@QAE@HH@Z 10029bb0 f i Base.obj
 0001:00028bb0       ??0?$Point@H$07@BWAPI@@QAE@HH@Z 10029bb0 f i Base.obj
 0001:00028bb0       ??0?$Point@H$0CA@@BWAPI@@QAE@HH@Z 10029bb0 f i Base.obj
 0001:00028bb0       ??0?$initializer_list@VUpgradeType@BWAPI@@@std@@QAE@PBVUpgradeType@BWAPI@@0@Z 10029bb0 f i StrategyBossZerg.obj
 0001:00028bd0       ?getApproxDistance@?$Point@H$00@BWAPI@@QBEHABV12@@Z 10029bd0 f i Base.obj
 0001:00028c30       ?getDistance@?$Point@H$00@BWAPI@@QBENABV12@@Z 10029c30 f i Base.obj
 0001:00028c70       ?c_str@?$basic_string@DU?$char_traits@D@std@@V?$allocator@D@2@@std@@QBEPBDXZ 10029c70 f i Base.obj
 0001:00028c80       ??4?$basic_string@DU?$char_traits@D@std@@V?$allocator@D@2@@std@@QAEAAV01@QBD@Z 10029c80 f i Base.obj
 0001:00028cb0       ??1?$basic_string@DU?$char_traits@D@std@@V?$allocator@D@2@@std@@QAE@XZ 10029cb0 f i Base.obj
 0001:00028cb0       ??1?$pair@V?$basic_string@DU?$char_traits@D@std@@V?$allocator@D@2@@std@@N@std@@QAE@XZ 10029cb0 f i OpponentModel.obj
 0001:00028cb0       ??1Timer@UAlbertaBot@@QAE@XZ 10029cb0 f i GameCommander.obj
 0001:00028cc0       ??0?$basic_string@DU?$char_traits@D@std@@V?$allocator@D@2@@std@@QAE@QBD@Z 10029cc0 f i Base.obj
 0001:00028d00       ??1<lambda_a75142be93029274f5333ecd96084427>@@QAE@XZ 10029d00 f i BuildingPlacer.obj
 0001:00028d00       ??1<lambda_c39fdb09d160b656fde65dff274b627b>@@QAE@XZ 10029d00 f i MicroDefilers.obj
 0001:00028d00       ??1<lambda_cef79e0d1072eba124270f82643b14a2>@@QAE@XZ 10029d00 f i Base.obj
 0001:00028d00       ??1<lambda_cfd6fce307c286eb3135c7782fdef1bb>@@QAE@XZ 10029d00 f i MicroIrradiated.obj
 0001:00028d30       ??$min@I@std@@YAABIABI0@Z  10029d30 f i Base.obj
 0001:00028d50       ??$fill@PAV?$_List_unchecked_const_iterator@V?$_List_val@U?$_List_simple_types@PAVUnitInterface@BWAPI@@@std@@@std@@U_Iterator_base0@2@@std@@V12@@std@@YAXQAV?$_List_unchecked_const_iterator@V?$_List_val@U?$_List_simple_types@PAVUnitInterface@BWAPI@@@std@@@std@@U_Iterator_base0@2@@0@0ABV10@@Z 10029d50 f i Base.obj
 0001:00028dc0       ??$emplace@ABQAVUnitInterface@BWAPI@@@?$_Hash@V?$_Uset_traits@PAVUnitInterface@BWAPI@@V?$_Uhash_compare@PAVUnitInterface@BWAPI@@U?$hash@PAX@std@@U?$equal_to@PAVUnitInterface@BWAPI@@@4@@std@@V?$allocator@PAVUnitInterface@BWAPI@@@4@$0A@@std@@@std@@QAE?AU?$pair@V?$_List_const_iterator@V?$_List_val@U?$_List_simple_types@PAVUnitInterface@BWAPI@@@std@@@std@@@std@@_N@1@ABQAVUnitInterface@BWAPI@@@Z 10029dc0 f i Base.obj
 0001:00028fb0       ??$swap@I$0A@@std@@YAXAAI0@Z 10029fb0 f i Base.obj
 0001:00028fd0       ??$_Construct@$00PBD@?$basic_string@DU?$char_traits@D@std@@V?$allocator@D@2@@std@@AAEXQBDI@Z 10029fd0 f i Base.obj
 0001:00029060       ?_Tidy@?$vector@VUnitCluster@UAlbertaBot@@V?$allocator@VUnitCluster@UAlbertaBot@@@std@@@std@@AAEXXZ 1002a060 f i Base.obj
 0001:00029100       ?_Tidy@?$vector@V?$vector@FV?$allocator@F@std@@@std@@V?$allocator@V?$vector@FV?$allocator@F@std@@@std@@@2@@std@@AAEXXZ 1002a100 f i Base.obj
 0001:00029100       ?_Tidy@?$vector@V?$vector@GV?$allocator@G@std@@@std@@V?$allocator@V?$vector@GV?$allocator@G@std@@@std@@@2@@std@@AAEXXZ 1002a100 f i Base.obj
 0001:00029190       ??0?$_Func_base@_NPAVUnitInterface@BWAPI@@@std@@QAE@XZ 1002a190 f i Base.obj
 0001:00029190       ??0?$allocator@VUnitType@BWAPI@@@std@@QAE@XZ 1002a190 f i BuildingManager.obj
 0001:00029190       ??0?$allocator@VUpgradeType@BWAPI@@@std@@QAE@XZ 1002a190 f i StrategyBossZerg.obj
 0001:00029190       ?_Get_scary@?$_Tree@V?$_Tmap_traits@VUnitType@BWAPI@@HU?$less@VUnitType@BWAPI@@@std@@V?$allocator@U?$pair@$$CBVUnitType@BWAPI@@H@std@@@4@$0A@@std@@@std@@IAEPAV?$_Tree_val@U?$_Tree_simple_types@U?$pair@$$CBVUnitType@BWAPI@@H@std@@@std@@@2@XZ 1002a190 f i Base.obj
 0001:00029190       ?_Getal@?$_Tree@V?$_Tmap_traits@VUnitType@BWAPI@@HU?$less@VUnitType@BWAPI@@@std@@V?$allocator@U?$pair@$$CBVUnitType@BWAPI@@H@std@@@4@$0A@@std@@@std@@IAEAAV?$allocator@U?$_Tree_node@U?$pair@$$CBVUnitType@BWAPI@@H@std@@PAX@std@@@2@XZ 1002a190 f i Base.obj
 0001:00029190       ?_Getal@?$vector@V?$map@VUnitType@BWAPI@@HU?$less@VUnitType@BWAPI@@@std@@V?$allocator@U?$pair@$$CBVUnitType@BWAPI@@H@std@@@4@@std@@V?$allocator@V?$map@VUnitType@BWAPI@@HU?$less@VUnitType@BWAPI@@@std@@V?$allocator@U?$pair@$$CBVUnitType@BWAPI@@H@std@@@4@@std@@@2@@std@@AAEAAV?$allocator@V?$map@VUnitType@BWAPI@@HU?$less@VUnitType@BWAPI@@@std@@V?$allocator@U?$pair@$$CBVUnitType@BWAPI@@H@std@@@4@@std@@@2@XZ 1002a190 f i SkillUnitTimings.obj
 0001:00029190       ?size@?$Vec@G$0EA@@BOSS@@QBEABIXZ 1002a190 f i BOSS:DFBB_BuildOrderSearchParameters.obj
 0001:00029190       ?size@?$Vec@VActionCountPair@BOSS@@$0GE@@BOSS@@QBEABIXZ 1002a190 f i BOSS:PrerequisiteSet.obj
 0001:00029190       ?size@?$Vec@VActionInProgress@BOSS@@$0DC@@BOSS@@QBEABIXZ 1002a190 f i BOSS:ActionInProgress.obj
 0001:00029190       ?size@?$Vec@VActionType@BOSS@@$0GE@@BOSS@@QBEABIXZ 1002a190 f i BOSS:ActionSet.obj
 0001:00029190       ?size@?$Vec@VBuildingStatus@BOSS@@$0EG@@BOSS@@QBEABIXZ 1002a190 f i BOSS:BuildingData.obj
 0001:00029190       ?size@?$Vec@VHatchery@BOSS@@$0BA@@BOSS@@QBEABIXZ 1002a190 f i BOSS:HatcheryData.obj
 0001:000291a0       ?_Tidy@?$vector@V?$vector@_NV?$allocator@_N@std@@@std@@V?$allocator@V?$vector@_NV?$allocator@_N@std@@@std@@@2@@std@@AAEXXZ 1002a1a0 f i Base.obj
 0001:00029220       ??1?$vector@NV?$allocator@N@std@@@std@@QAE@XZ 1002a220 f i GameCommander.obj
 0001:00029220       ??1?$vector@U?$pair@HPAVBase@UAlbertaBot@@@std@@V?$allocator@U?$pair@HPAVBase@UAlbertaBot@@@std@@@2@@std@@QAE@XZ 1002a220 f i CombatCommander.obj
 0001:00029220       ??1?$vector@U_Loop_vals_t@std@@V?$allocator@U_Loop_vals_t@std@@@2@@std@@QAE@XZ 1002a220 f i MacroAct.obj
 0001:00029220       ??1?$vector@V?$Point@H$07@BWAPI@@V?$allocator@V?$Point@H$07@BWAPI@@@std@@@std@@QAE@XZ 1002a220 f i GridInset.obj
 0001:00029220       ?_Tidy@?$vector@NV?$allocator@N@std@@@std@@AAEXXZ 1002a220 f i GameCommander.obj
 0001:00029220       ?_Tidy@?$vector@U_Grp_t@?$_Tgt_state_t@V?$_String_const_iterator@V?$_String_val@U?$_Simple_types@D@std@@@std@@@std@@@std@@V?$allocator@U_Grp_t@?$_Tgt_state_t@V?$_String_const_iterator@V?$_String_val@U?$_Simple_types@D@std@@@std@@@std@@@std@@@3@@std@@AAEXXZ 1002a220 f i MacroAct.obj
 0001:00029220       ?_Tidy@?$vector@V?$Point@H$00@BWAPI@@V?$allocator@V?$Point@H$00@BWAPI@@@std@@@std@@AAEXXZ 1002a220 f i MicroTransports.obj
 0001:00029220       ?_Tidy@?$vector@V?$Point@H$0CA@@BWAPI@@V?$allocator@V?$Point@H$0CA@@BWAPI@@@std@@@std@@AAEXXZ 1002a220 f i Base.obj
 0001:00029280       ?_Unchecked_erase@?$_Hash@V?$_Uset_traits@PAVUnitInterface@BWAPI@@V?$_Uhash_compare@PAVUnitInterface@BWAPI@@U?$hash@PAX@std@@U?$equal_to@PAVUnitInterface@BWAPI@@@4@@std@@V?$allocator@PAVUnitInterface@BWAPI@@@4@$0A@@std@@@std@@AAEPAU?$_List_node@PAVUnitInterface@BWAPI@@PAX@2@PAU32@QAU32@@Z 1002a280 f i Base.obj
 0001:00029410       ??R?$UnaryFilter@PAVUnitInterface@BWAPI@@V?$function@$$A6A_NPAVUnitInterface@BWAPI@@@Z@std@@@BWAPI@@QBE_NPAVUnitInterface@1@@Z 1002a410 f i Base.obj
 0001:00029440       ?_Tidy_deallocate@?$basic_string@DU?$char_traits@D@std@@V?$allocator@D@2@@std@@AAEXXZ 1002a440 f i Base.obj
 0001:000294a0       ?assign@?$basic_string@DU?$char_traits@D@std@@V?$allocator@D@2@@std@@QAEAAV12@QBDI@Z 1002a4a0 f i Base.obj
 0001:000295b0       ??$max@I@std@@YAABIABI0@Z  1002a5b0 f i Base.obj
 0001:000295d0       ??$_Find_last@PAVUnitInterface@BWAPI@@@?$_Hash@V?$_Uset_traits@PAVUnitInterface@BWAPI@@V?$_Uhash_compare@PAVUnitInterface@BWAPI@@U?$hash@PAX@std@@U?$equal_to@PAVUnitInterface@BWAPI@@@4@@std@@V?$allocator@PAVUnitInterface@BWAPI@@@4@$0A@@std@@@std@@IBE?AU?$_Hash_find_last_result@PAU?$_List_node@PAVUnitInterface@BWAPI@@PAX@std@@@1@ABQAVUnitInterface@BWAPI@@I@Z 1002a5d0 f i Base.obj
 0001:00029640       ??$_Erase_tree@V?$allocator@U?$_Tree_node@U?$pair@$$CBV?$basic_string@DU?$char_traits@D@std@@V?$allocator@D@2@@std@@PAVTask@UAlbertaBot@@@std@@PAX@std@@@std@@@?$_Tree_val@U?$_Tree_simple_types@U?$pair@$$CBV?$basic_string@DU?$char_traits@D@std@@V?$allocator@D@2@@std@@PAVTask@UAlbertaBot@@@std@@@std@@@std@@QAEXAAV?$allocator@U?$_Tree_node@U?$pair@$$CBV?$basic_string@DU?$char_traits@D@std@@V?$allocator@D@2@@std@@PAVTask@UAlbertaBot@@@std@@PAX@std@@@1@PAU?$_Tree_node@U?$pair@$$CBV?$basic_string@DU?$char_traits@D@std@@V?$allocator@D@2@@std@@PAVTask@UAlbertaBot@@@std@@PAX@1@@Z 1002a640 f i Base.obj
 0001:00029640       ??$_Erase_tree@V?$allocator@U?$_Tree_node@U?$pair@$$CBV?$basic_string@DU?$char_traits@D@std@@V?$allocator@D@2@@std@@VActionType@BOSS@@@std@@PAX@std@@@std@@@?$_Tree_val@U?$_Tree_simple_types@U?$pair@$$CBV?$basic_string@DU?$char_traits@D@std@@V?$allocator@D@2@@std@@VActionType@BOSS@@@std@@@std@@@std@@QAEXAAV?$allocator@U?$_Tree_node@U?$pair@$$CBV?$basic_string@DU?$char_traits@D@std@@V?$allocator@D@2@@std@@VActionType@BOSS@@@std@@PAX@std@@@1@PAU?$_Tree_node@U?$pair@$$CBV?$basic_string@DU?$char_traits@D@std@@V?$allocator@D@2@@std@@VActionType@BOSS@@@std@@PAX@1@@Z 1002a640 f i BOSS:ActionType.obj
 0001:00029640       ??$_Erase_tree@V?$allocator@U?$_Tree_node@U?$pair@$$CBV?$basic_string@DU?$char_traits@D@std@@V?$allocator@D@2@@std@@VUnitType@BWAPI@@@std@@PAX@std@@@std@@@?$_Tree_val@U?$_Tree_simple_types@U?$pair@$$CBV?$basic_string@DU?$char_traits@D@std@@V?$allocator@D@2@@std@@VUnitType@BWAPI@@@std@@@std@@@std@@QAEXAAV?$allocator@U?$_Tree_node@U?$pair@$$CBV?$basic_string@DU?$char_traits@D@std@@V?$allocator@D@2@@std@@VUnitType@BWAPI@@@std@@PAX@std@@@1@PAU?$_Tree_node@U?$pair@$$CBV?$basic_string@DU?$char_traits@D@std@@V?$allocator@D@2@@std@@VUnitType@BWAPI@@@std@@PAX@1@@Z 1002a640 f i MacroAct.obj
 0001:00029690       ??$_Erase_tree@V?$allocator@U?$_Tree_node@U?$pair@QAVUnitInterface@BWAPI@@VMicroState@UAlbertaBot@@@std@@PAX@std@@@std@@@?$_Tree_val@U?$_Tree_simple_types@U?$pair@QAVUnitInterface@BWAPI@@VMicroState@UAlbertaBot@@@std@@@std@@@std@@QAEXAAV?$allocator@U?$_Tree_node@U?$pair@QAVUnitInterface@BWAPI@@VMicroState@UAlbertaBot@@@std@@PAX@std@@@1@PAU?$_Tree_node@U?$pair@QAVUnitInterface@BWAPI@@VMicroState@UAlbertaBot@@@std@@PAX@1@@Z 1002a690 f i Base.obj
 0001:000296d0       ??$_Erase_tree@V?$allocator@U?$_Tree_node@U?$pair@$$CBV?$Point@H$0CA@@BWAPI@@VGridDistances@UAlbertaBot@@@std@@PAX@std@@@std@@@?$_Tree_val@U?$_Tree_simple_types@U?$pair@$$CBV?$Point@H$0CA@@BWAPI@@VGridDistances@UAlbertaBot@@@std@@@std@@@std@@QAEXAAV?$allocator@U?$_Tree_node@U?$pair@$$CBV?$Point@H$0CA@@BWAPI@@VGridDistances@UAlbertaBot@@@std@@PAX@std@@@1@PAU?$_Tree_node@U?$pair@$$CBV?$Point@H$0CA@@BWAPI@@VGridDistances@UAlbertaBot@@@std@@PAX@1@@Z 1002a6d0 f i Base.obj
 0001:00029730       ??$_Erase_tree@V?$allocator@U?$_Tree_node@U?$pair@$$CBHI@std@@PAX@std@@@std@@@?$_Tree_val@U?$_Tree_simple_types@U?$pair@$$CBHI@std@@@std@@@std@@QAEXAAV?$allocator@U?$_Tree_node@U?$pair@$$CBHI@std@@PAX@std@@@1@PAU?$_Tree_node@U?$pair@$$CBHI@std@@PAX@1@@Z 1002a730 f i GridZone.obj
 0001:00029730       ??$_Erase_tree@V?$allocator@U?$_Tree_node@U?$pair@$$CBVTechType@BWAPI@@H@std@@PAX@std@@@std@@@?$_Tree_val@U?$_Tree_simple_types@U?$pair@$$CBVTechType@BWAPI@@H@std@@@std@@@std@@QAEXAAV?$allocator@U?$_Tree_node@U?$pair@$$CBVTechType@BWAPI@@H@std@@PAX@std@@@1@PAU?$_Tree_node@U?$pair@$$CBVTechType@BWAPI@@H@std@@PAX@1@@Z 1002a730 f i GameRecord.obj
 0001:00029730       ??$_Erase_tree@V?$allocator@U?$_Tree_node@U?$pair@$$CBVUnitType@BWAPI@@H@std@@PAX@std@@@std@@@?$_Tree_val@U?$_Tree_simple_types@U?$pair@$$CBVUnitType@BWAPI@@H@std@@@std@@@std@@QAEXAAV?$allocator@U?$_Tree_node@U?$pair@$$CBVUnitType@BWAPI@@H@std@@PAX@std@@@1@PAU?$_Tree_node@U?$pair@$$CBVUnitType@BWAPI@@H@std@@PAX@1@@Z 1002a730 f i Base.obj
 0001:00029730       ??$_Erase_tree@V?$allocator@U?$_Tree_node@U?$pair@$$CBVUpgradeType@BWAPI@@H@std@@PAX@std@@@std@@@?$_Tree_val@U?$_Tree_simple_types@U?$pair@$$CBVUpgradeType@BWAPI@@H@std@@@std@@@std@@QAEXAAV?$allocator@U?$_Tree_node@U?$pair@$$CBVUpgradeType@BWAPI@@H@std@@PAX@std@@@1@PAU?$_Tree_node@U?$pair@$$CBVUpgradeType@BWAPI@@H@std@@PAX@1@@Z 1002a730 f i GameRecord.obj
 0001:00029730       ??$_Erase_tree@V?$allocator@U?$_Tree_node@U?$pair@$$CBW4GameTech@UAlbertaBot@@H@std@@PAX@std@@@std@@@?$_Tree_val@U?$_Tree_simple_types@U?$pair@$$CBW4GameTech@UAlbertaBot@@H@std@@@std@@@std@@QAEXAAV?$allocator@U?$_Tree_node@U?$pair@$$CBW4GameTech@UAlbertaBot@@H@std@@PAX@std@@@1@PAU?$_Tree_node@U?$pair@$$CBW4GameTech@UAlbertaBot@@H@std@@PAX@1@@Z 1002a730 f i GameRecordNow.obj
 0001:00029730       ??$_Erase_tree@V?$allocator@U?$_Tree_node@U?$pair@$$CBW4LurkerTactic@UAlbertaBot@@H@std@@PAX@std@@@std@@@?$_Tree_val@U?$_Tree_simple_types@U?$pair@$$CBW4LurkerTactic@UAlbertaBot@@H@std@@@std@@@std@@QAEXAAV?$allocator@U?$_Tree_node@U?$pair@$$CBW4LurkerTactic@UAlbertaBot@@H@std@@PAX@std@@@1@PAU?$_Tree_node@U?$pair@$$CBW4LurkerTactic@UAlbertaBot@@H@std@@PAX@1@@Z 1002a730 f i SkillLurkers.obj
 0001:00029730       ??$_Erase_tree@V?$allocator@U?$_Tree_node@U?$pair@QAVUnitInterface@BWAPI@@H@std@@PAX@std@@@std@@@?$_Tree_val@U?$_Tree_simple_types@U?$pair@QAVUnitInterface@BWAPI@@H@std@@@std@@@std@@QAEXAAV?$allocator@U?$_Tree_node@U?$pair@QAVUnitInterface@BWAPI@@H@std@@PAX@std@@@1@PAU?$_Tree_node@U?$pair@QAVUnitInterface@BWAPI@@H@std@@PAX@1@@Z 1002a730 f i WorkerData.obj
 0001:00029730       ??$_Erase_tree@V?$allocator@U?$_Tree_node@U?$pair@QAVUnitInterface@BWAPI@@PAV12@@std@@PAX@std@@@std@@@?$_Tree_val@U?$_Tree_simple_types@U?$pair@QAVUnitInterface@BWAPI@@PAV12@@std@@@std@@@std@@QAEXAAV?$allocator@U?$_Tree_node@U?$pair@QAVUnitInterface@BWAPI@@PAV12@@std@@PAX@std@@@1@PAU?$_Tree_node@U?$pair@QAVUnitInterface@BWAPI@@PAV12@@std@@PAX@1@@Z 1002a730 f i MicroMutas.obj
 0001:00029730       ??$_Erase_tree@V?$allocator@U?$_Tree_node@U?$pair@QAVUnitInterface@BWAPI@@PAVBase@UAlbertaBot@@@std@@PAX@std@@@std@@@?$_Tree_val@U?$_Tree_simple_types@U?$pair@QAVUnitInterface@BWAPI@@PAVBase@UAlbertaBot@@@std@@@std@@@std@@QAEXAAV?$allocator@U?$_Tree_node@U?$pair@QAVUnitInterface@BWAPI@@PAVBase@UAlbertaBot@@@std@@PAX@std@@@1@PAU?$_Tree_node@U?$pair@QAVUnitInterface@BWAPI@@PAVBase@UAlbertaBot@@@std@@PAX@1@@Z 1002a730 f i Bases.obj
 0001:00029730       ??$_Erase_tree@V?$allocator@U?$_Tree_node@U?$pair@QAVUnitInterface@BWAPI@@W4WorkerJob@WorkerData@UAlbertaBot@@@std@@PAX@std@@@std@@@?$_Tree_val@U?$_Tree_simple_types@U?$pair@QAVUnitInterface@BWAPI@@W4WorkerJob@WorkerData@UAlbertaBot@@@std@@@std@@@std@@QAEXAAV?$allocator@U?$_Tree_node@U?$pair@QAVUnitInterface@BWAPI@@W4WorkerJob@WorkerData@UAlbertaBot@@@std@@PAX@std@@@1@PAU?$_Tree_node@U?$pair@QAVUnitInterface@BWAPI@@W4WorkerJob@WorkerData@UAlbertaBot@@@std@@PAX@1@@Z 1002a730 f i WorkerData.obj
 0001:00029730       ??$_Erase_tree@V?$allocator@U?$_Tree_node@U?$pair@QAVUnitInterface@BWAPI@@_N@std@@PAX@std@@@std@@@?$_Tree_val@U?$_Tree_simple_types@U?$pair@QAVUnitInterface@BWAPI@@_N@std@@@std@@@std@@QAEXAAV?$allocator@U?$_Tree_node@U?$pair@QAVUnitInterface@BWAPI@@_N@std@@PAX@std@@@1@PAU?$_Tree_node@U?$pair@QAVUnitInterface@BWAPI@@_N@std@@PAX@1@@Z 1002a730 f i Squad.obj
 0001:00029730       ??$_Erase_tree@V?$allocator@U?$_Tree_node@V?$Point@H$0CA@@BWAPI@@PAX@std@@@std@@@?$_Tree_val@U?$_Tree_simple_types@V?$Point@H$0CA@@BWAPI@@@std@@@std@@QAEXAAV?$allocator@U?$_Tree_node@V?$Point@H$0CA@@BWAPI@@PAX@std@@@1@PAU?$_Tree_node@V?$Point@H$0CA@@BWAPI@@PAX@1@@Z 1002a730 f i MicroOverlords.obj
 0001:00029730       ??$_Erase_tree_and_orphan@V?$allocator@U?$_Tree_node@U?$pair@$$CBVUnitType@BWAPI@@H@std@@PAX@std@@@std@@@?$_Tree_val@U?$_Tree_simple_types@U?$pair@$$CBVUnitType@BWAPI@@H@std@@@std@@@std@@QAEXAAV?$allocator@U?$_Tree_node@U?$pair@$$CBVUnitType@BWAPI@@H@std@@PAX@std@@@1@PAU?$_Tree_node@U?$pair@$$CBVUnitType@BWAPI@@H@std@@PAX@1@@Z 1002a730 f i CombatSimulation.obj
 0001:00029730       ??$_Erase_tree_and_orphan@V?$allocator@U?$_Tree_node@U?$pair@QAVUnitInterface@BWAPI@@_N@std@@PAX@std@@@std@@@?$_Tree_val@U?$_Tree_simple_types@U?$pair@QAVUnitInterface@BWAPI@@_N@std@@@std@@@std@@QAEXAAV?$allocator@U?$_Tree_node@U?$pair@QAVUnitInterface@BWAPI@@_N@std@@PAX@std@@@1@PAU?$_Tree_node@U?$pair@QAVUnitInterface@BWAPI@@_N@std@@PAX@1@@Z 1002a730 f i SquadData.obj
 0001:00029770       ??$_Emplace_reallocate@ABV?$Point@H$0CA@@BWAPI@@@?$vector@V?$Point@H$0CA@@BWAPI@@V?$allocator@V?$Point@H$0CA@@BWAPI@@@std@@@std@@AAEPAV?$Point@H$0CA@@BWAPI@@QAV23@ABV23@@Z 1002a770 f i Base.obj
 0001:00029770       ??$_Emplace_reallocate@V?$Point@H$0CA@@BWAPI@@@?$vector@V?$Point@H$0CA@@BWAPI@@V?$allocator@V?$Point@H$0CA@@BWAPI@@@std@@@std@@AAEPAV?$Point@H$0CA@@BWAPI@@QAV23@$$QAV23@@Z 1002a770 f i MicroOverlords.obj
 0001:000298a0       ??$_Insert_range_unchecked@V?$_List_unchecked_const_iterator@V?$_List_val@U?$_List_simple_types@PAVUnitInterface@BWAPI@@@std@@@std@@U_Iterator_base0@2@@std@@V12@@?$_Hash@V?$_Uset_traits@PAVUnitInterface@BWAPI@@V?$_Uhash_compare@PAVUnitInterface@BWAPI@@U?$hash@PAX@std@@U?$equal_to@PAVUnitInterface@BWAPI@@@4@@std@@V?$allocator@PAVUnitInterface@BWAPI@@@4@$0A@@std@@@std@@IAEXV?$_List_unchecked_const_iterator@V?$_List_val@U?$_List_simple_types@PAVUnitInterface@BWAPI@@@std@@@std@@U_Iterator_base0@2@@1@V21@@Z 1002a8a0 f i Base.obj
 0001:000298e0       ??$_Allocate_for_capacity@$0A@@?$basic_string@DU?$char_traits@D@std@@V?$allocator@D@2@@std@@CAPADAAV?$allocator@D@1@AAI@Z 1002a8e0 f i Base.obj
 0001:00029940       ??$_Deallocate@$03@std@@YAXPAXI@Z 1002a940 f i Base.obj
 0001:00029940       ??$_Deallocate@$07@std@@YAXPAXI@Z 1002a940 f i Base.obj
 0001:00029980       ??1?$_Alloc_construct_ptr@V?$allocator@U?$_List_node@PAVBulletInterface@BWAPI@@PAX@std@@@std@@@std@@QAE@XZ 1002a980 f i InformationManager.obj
 0001:00029980       ??1?$_Alloc_construct_ptr@V?$allocator@U?$_List_node@PAVUnitInterface@BWAPI@@PAX@std@@@std@@@std@@QAE@XZ 1002a980 f i Base.obj
 0001:00029980       ??1?$_Alloc_construct_ptr@V?$allocator@U?$_List_node@W4MacroCommandType@UAlbertaBot@@PAX@std@@@std@@@std@@QAE@XZ 1002a980 f i MacroCommand.obj
 0001:00029980       ??1?$_List_node_emplace_op2@V?$allocator@U?$_List_node@PAVBulletInterface@BWAPI@@PAX@std@@@std@@@std@@QAE@XZ 1002a980 f i InformationManager.obj
 0001:00029980       ??1?$_List_node_emplace_op2@V?$allocator@U?$_List_node@PAVUnitInterface@BWAPI@@PAX@std@@@std@@@std@@QAE@XZ 1002a980 f i Base.obj
 0001:000299a0       ?_Assign_grow@?$_Hash_vec@V?$allocator@V?$_List_unchecked_const_iterator@V?$_List_val@U?$_List_simple_types@PAVUnitInterface@BWAPI@@@std@@@std@@U_Iterator_base0@2@@std@@@std@@@std@@QAEXIV?$_List_unchecked_const_iterator@V?$_List_val@U?$_List_simple_types@PAVUnitInterface@BWAPI@@@std@@@std@@U_Iterator_base0@2@@2@@Z 1002a9a0 f i Base.obj
 0001:00029aa0       ?_Set@?$_Func_class@_NPAVUnitInterface@BWAPI@@@std@@AAEXPAV?$_Func_base@_NPAVUnitInterface@BWAPI@@@2@@Z 1002aaa0 f i Base.obj
 0001:00029ab0       ?_Empty@?$_Func_class@_NPAVUnitInterface@BWAPI@@@std@@IBE_NXZ 1002aab0 f i Base.obj
 0001:00029ac0       ??0?$_Func_class@_NPAVUnitInterface@BWAPI@@@std@@QAE@XZ 1002aac0 f i Base.obj
 0001:00029ad0       ??$_Unfancy@V?$map@VUnitType@BWAPI@@HU?$less@VUnitType@BWAPI@@@std@@V?$allocator@U?$pair@$$CBVUnitType@BWAPI@@H@std@@@4@@std@@@std@@YAPAV?$map@VUnitType@BWAPI@@HU?$less@VUnitType@BWAPI@@@std@@V?$allocator@U?$pair@$$CBVUnitType@BWAPI@@H@std@@@4@@0@PAV10@@Z 1002aad0 f i SkillUnitTimings.obj
 0001:00029ad0       ??$addressof@$$CBV?$_List_val@U?$_List_simple_types@VBulletType@BWAPI@@@std@@@std@@@std@@YAPBV?$_List_val@U?$_List_simple_types@VBulletType@BWAPI@@@std@@@0@ABV10@@Z 1002aad0 f i BWAPILIB:BulletType.obj
 0001:00029ad0       ??$addressof@$$CBV?$_List_val@U?$_List_simple_types@VOrder@BWAPI@@@std@@@std@@@std@@YAPBV?$_List_val@U?$_List_simple_types@VOrder@BWAPI@@@std@@@0@ABV10@@Z 1002aad0 f i BWAPILIB:Order.obj
 0001:00029ad0       ??$addressof@$$CBV?$_List_val@U?$_List_simple_types@VRace@BWAPI@@@std@@@std@@@std@@YAPBV?$_List_val@U?$_List_simple_types@VRace@BWAPI@@@std@@@0@ABV10@@Z 1002aad0 f i BWAPILIB:Race.obj
 0001:00029ad0       ??$addressof@$$CBV?$_List_val@U?$_List_simple_types@VTechType@BWAPI@@@std@@@std@@@std@@YAPBV?$_List_val@U?$_List_simple_types@VTechType@BWAPI@@@std@@@0@ABV10@@Z 1002aad0 f i MacroAct.obj
 0001:00029ad0       ??$addressof@$$CBV?$_List_val@U?$_List_simple_types@VUnitType@BWAPI@@@std@@@std@@@std@@YAPBV?$_List_val@U?$_List_simple_types@VUnitType@BWAPI@@@std@@@0@ABV10@@Z 1002aad0 f i GameCommander.obj
 0001:00029ad0       ??$addressof@$$CBV?$_List_val@U?$_List_simple_types@VUpgradeType@BWAPI@@@std@@@std@@@std@@YAPBV?$_List_val@U?$_List_simple_types@VUpgradeType@BWAPI@@@std@@@0@ABV10@@Z 1002aad0 f i MacroAct.obj
 0001:00029ad0       ??$addressof@$$CBV?$_List_val@U?$_List_simple_types@VWeaponType@BWAPI@@@std@@@std@@@std@@YAPBV?$_List_val@U?$_List_simple_types@VWeaponType@BWAPI@@@std@@@0@ABV10@@Z 1002aad0 f i BWAPILIB:WeaponType.obj
 0001:00029ad0       ??$addressof@PAU?$_List_node@VBulletType@BWAPI@@PAX@std@@@std@@YAPAPAU?$_List_node@VBulletType@BWAPI@@PAX@0@AAPAU10@@Z 1002aad0 f i BWAPILIB:BulletType.obj
 0001:00029ad0       ??$addressof@PAU?$_List_node@VOrder@BWAPI@@PAX@std@@@std@@YAPAPAU?$_List_node@VOrder@BWAPI@@PAX@0@AAPAU10@@Z 1002aad0 f i BWAPILIB:Order.obj
 0001:00029ad0       ??$addressof@PAU?$_List_node@VRace@BWAPI@@PAX@std@@@std@@YAPAPAU?$_List_node@VRace@BWAPI@@PAX@0@AAPAU10@@Z 1002aad0 f i BWAPILIB:Race.obj
 0001:00029ad0       ??$addressof@PAU?$_List_node@VTechType@BWAPI@@PAX@std@@@std@@YAPAPAU?$_List_node@VTechType@BWAPI@@PAX@0@AAPAU10@@Z 1002aad0 f i BWAPILIB:UnitType.obj
 0001:00029ad0       ??$addressof@PAU?$_List_node@VUnitType@BWAPI@@PAX@std@@@std@@YAPAPAU?$_List_node@VUnitType@BWAPI@@PAX@0@AAPAU10@@Z 1002aad0 f i BWAPILIB:UnitType.obj
 0001:00029ad0       ??$addressof@PAU?$_List_node@VUpgradeType@BWAPI@@PAX@std@@@std@@YAPAPAU?$_List_node@VUpgradeType@BWAPI@@PAX@0@AAPAU10@@Z 1002aad0 f i BWAPILIB:UnitType.obj
 0001:00029ad0       ??$addressof@PAU?$_List_node@VWeaponType@BWAPI@@PAX@std@@@std@@YAPAPAU?$_List_node@VWeaponType@BWAPI@@PAX@0@AAPAU10@@Z 1002aad0 f i BWAPILIB:WeaponType.obj
 0001:00029ad0       ??$addressof@U?$pair@$$CBVUnitType@BWAPI@@H@std@@@std@@YAPAU?$pair@$$CBVUnitType@BWAPI@@H@0@AAU10@@Z 1002aad0 f i Base.obj
 0001:00029ad0       ??$addressof@V?$_List_unchecked_const_iterator@V?$_List_val@U?$_List_simple_types@VBulletType@BWAPI@@@std@@@std@@U_Iterator_base0@2@@std@@@std@@YAPAV?$_List_unchecked_const_iterator@V?$_List_val@U?$_List_simple_types@VBulletType@BWAPI@@@std@@@std@@U_Iterator_base0@2@@0@AAV10@@Z 1002aad0 f i BWAPILIB:BulletType.obj
 0001:00029ad0       ??$addressof@V?$_List_unchecked_const_iterator@V?$_List_val@U?$_List_simple_types@VOrder@BWAPI@@@std@@@std@@U_Iterator_base0@2@@std@@@std@@YAPAV?$_List_unchecked_const_iterator@V?$_List_val@U?$_List_simple_types@VOrder@BWAPI@@@std@@@std@@U_Iterator_base0@2@@0@AAV10@@Z 1002aad0 f i BWAPILIB:Order.obj
 0001:00029ad0       ??$addressof@V?$_List_unchecked_const_iterator@V?$_List_val@U?$_List_simple_types@VRace@BWAPI@@@std@@@std@@U_Iterator_base0@2@@std@@@std@@YAPAV?$_List_unchecked_const_iterator@V?$_List_val@U?$_List_simple_types@VRace@BWAPI@@@std@@@std@@U_Iterator_base0@2@@0@AAV10@@Z 1002aad0 f i BWAPILIB:Race.obj
 0001:00029ad0       ??$addressof@V?$_List_unchecked_const_iterator@V?$_List_val@U?$_List_simple_types@VTechType@BWAPI@@@std@@@std@@U_Iterator_base0@2@@std@@@std@@YAPAV?$_List_unchecked_const_iterator@V?$_List_val@U?$_List_simple_types@VTechType@BWAPI@@@std@@@std@@U_Iterator_base0@2@@0@AAV10@@Z 1002aad0 f i BWAPILIB:UnitType.obj
 0001:00029ad0       ??$addressof@V?$_List_unchecked_const_iterator@V?$_List_val@U?$_List_simple_types@VUnitType@BWAPI@@@std@@@std@@U_Iterator_base0@2@@std@@@std@@YAPAV?$_List_unchecked_const_iterator@V?$_List_val@U?$_List_simple_types@VUnitType@BWAPI@@@std@@@std@@U_Iterator_base0@2@@0@AAV10@@Z 1002aad0 f i BWAPILIB:UnitType.obj
 0001:00029ad0       ??$addressof@V?$_List_unchecked_const_iterator@V?$_List_val@U?$_List_simple_types@VUpgradeType@BWAPI@@@std@@@std@@U_Iterator_base0@2@@std@@@std@@YAPAV?$_List_unchecked_const_iterator@V?$_List_val@U?$_List_simple_types@VUpgradeType@BWAPI@@@std@@@std@@U_Iterator_base0@2@@0@AAV10@@Z 1002aad0 f i BWAPILIB:UnitType.obj
 0001:00029ad0       ??$addressof@V?$_List_unchecked_const_iterator@V?$_List_val@U?$_List_simple_types@VWeaponType@BWAPI@@@std@@@std@@U_Iterator_base0@2@@std@@@std@@YAPAV?$_List_unchecked_const_iterator@V?$_List_val@U?$_List_simple_types@VWeaponType@BWAPI@@@std@@@std@@U_Iterator_base0@2@@0@AAV10@@Z 1002aad0 f i BWAPILIB:WeaponType.obj
 0001:00029ad0       ??$addressof@V?$basic_stringbuf@DU?$char_traits@D@std@@V?$allocator@D@2@@std@@@std@@YAPAV?$basic_stringbuf@DU?$char_traits@D@std@@V?$allocator@D@2@@0@AAV10@@Z 1002aad0 f i BuildOrderQueue.obj
 0001:00029ad0       ??$addressof@VBulletType@BWAPI@@@std@@YAPAVBulletType@BWAPI@@AAV12@@Z 1002aad0 f i BWAPILIB:BulletType.obj
 0001:00029ad0       ??$addressof@VOrder@BWAPI@@@std@@YAPAVOrder@BWAPI@@AAV12@@Z 1002aad0 f i BWAPILIB:Order.obj
 0001:00029ad0       ??$addressof@VRace@BWAPI@@@std@@YAPAVRace@BWAPI@@AAV12@@Z 1002aad0 f i BWAPILIB:Race.obj
 0001:00029ad0       ??$addressof@VTechType@BWAPI@@@std@@YAPAVTechType@BWAPI@@AAV12@@Z 1002aad0 f i SkillOpeningTiming.obj
 0001:00029ad0       ??$addressof@VUnitType@BWAPI@@@std@@YAPAVUnitType@BWAPI@@AAV12@@Z 1002aad0 f i BuildingManager.obj
 0001:00029ad0       ??$addressof@VUpgradeType@BWAPI@@@std@@YAPAVUpgradeType@BWAPI@@AAV12@@Z 1002aad0 f i StrategyBossZerg.obj
 0001:00029ad0       ??$addressof@VWeaponType@BWAPI@@@std@@YAPAVWeaponType@BWAPI@@AAV12@@Z 1002aad0 f i BWAPILIB:WeaponType.obj
 0001:00029ad0       ??$begin@$$CBH$00@std@@YAPBHAAY00$$CBH@Z 1002aad0 f i BWAPILIB:UnitType.obj
 0001:00029ad0       ??$begin@$$CBH$01@std@@YAPBHAAY01$$CBH@Z 1002aad0 f i BWAPILIB:UnitType.obj
 0001:00029ad0       ??$begin@$$CBH$02@std@@YAPBHAAY02$$CBH@Z 1002aad0 f i BWAPILIB:UnitType.obj
 0001:00029ad0       ??$begin@$$CBH$03@std@@YAPBHAAY03$$CBH@Z 1002aad0 f i BWAPILIB:UnitType.obj
 0001:00029ad0       ??$begin@$$CBH$04@std@@YAPBHAAY04$$CBH@Z 1002aad0 f i BWAPILIB:UnitType.obj
 0001:00029ad0       ??$begin@$$CBH$05@std@@YAPBHAAY05$$CBH@Z 1002aad0 f i BWAPILIB:UpgradeType.obj
 0001:00029ad0       ??$begin@$$CBH$07@std@@YAPBHAAY07$$CBH@Z 1002aad0 f i BWAPILIB:UpgradeType.obj
 0001:00029ad0       ??$begin@$$CBH$09@std@@YAPBHAAY09$$CBH@Z 1002aad0 f i BWAPILIB:UpgradeType.obj
 0001:00029ad0       ??$begin@$$CBH$0BA@@std@@YAPBHAAY0BA@$$CBH@Z 1002aad0 f i BWAPILIB:UpgradeType.obj
 0001:00029ad0       ??$begin@$$CBH$0BC@@std@@YAPBHAAY0BC@$$CBH@Z 1002aad0 f i BWAPILIB:UpgradeType.obj
 0001:00029ad0       ??$begin@$$CBH$0BM@@std@@YAPBHAAY0BM@$$CBH@Z 1002aad0 f i BWAPILIB:UpgradeType.obj
 0001:00029ad0       ??$begin@$$CBH$0L@@std@@YAPBHAAY0L@$$CBH@Z 1002aad0 f i BWAPILIB:UpgradeType.obj
 0001:00029ad0       ??$begin@$$CBH$0M@@std@@YAPBHAAY0M@$$CBH@Z 1002aad0 f i BWAPILIB:UpgradeType.obj
 0001:00029ad0       ??$begin@$$CBH$0O@@std@@YAPBHAAY0O@$$CBH@Z 1002aad0 f i BWAPILIB:UpgradeType.obj
 0001:00029ad0       ??$forward@AAH@std@@YAAAHAAH@Z 1002aad0 f i CombatCommander.obj
 0001:00029ad0       ??$forward@AAPAU?$_List_node@VBulletType@BWAPI@@PAX@std@@@std@@YAAAPAU?$_List_node@VBulletType@BWAPI@@PAX@0@AAPAU10@@Z 1002aad0 f i BWAPILIB:BulletType.obj
 0001:00029ad0       ??$forward@AAPAU?$_List_node@VOrder@BWAPI@@PAX@std@@@std@@YAAAPAU?$_List_node@VOrder@BWAPI@@PAX@0@AAPAU10@@Z 1002aad0 f i BWAPILIB:Order.obj
 0001:00029ad0       ??$forward@AAPAU?$_List_node@VRace@BWAPI@@PAX@std@@@std@@YAAAPAU?$_List_node@VRace@BWAPI@@PAX@0@AAPAU10@@Z 1002aad0 f i BWAPILIB:Race.obj
 0001:00029ad0       ??$forward@AAPAU?$_List_node@VTechType@BWAPI@@PAX@std@@@std@@YAAAPAU?$_List_node@VTechType@BWAPI@@PAX@0@AAPAU10@@Z 1002aad0 f i BWAPILIB:UnitType.obj
 0001:00029ad0       ??$forward@AAPAU?$_List_node@VUnitType@BWAPI@@PAX@std@@@std@@YAAAPAU?$_List_node@VUnitType@BWAPI@@PAX@0@AAPAU10@@Z 1002aad0 f i BWAPILIB:UnitType.obj
 0001:00029ad0       ??$forward@AAPAU?$_List_node@VUpgradeType@BWAPI@@PAX@std@@@std@@YAAAPAU?$_List_node@VUpgradeType@BWAPI@@PAX@0@AAPAU10@@Z 1002aad0 f i BWAPILIB:UnitType.obj
 0001:00029ad0       ??$forward@AAPAU?$_List_node@VWeaponType@BWAPI@@PAX@std@@@std@@YAAAPAU?$_List_node@VWeaponType@BWAPI@@PAX@0@AAPAU10@@Z 1002aad0 f i BWAPILIB:WeaponType.obj
 0001:00029ad0       ??$forward@AAU?$pair@VUnitType@BWAPI@@H@std@@@std@@YAAAU?$pair@VUnitType@BWAPI@@H@0@AAU10@@Z 1002aad0 f i BWAPILIB:UnitType.obj
 0001:00029ad0       ??$forward@ABH@std@@YAABHABH@Z 1002aad0 f i Base.obj
 0001:00029ad0       ??$forward@ABQAU?$_List_node@VBulletType@BWAPI@@PAX@std@@@std@@YAABQAU?$_List_node@VBulletType@BWAPI@@PAX@0@ABQAU10@@Z 1002aad0 f i BWAPILIB:BulletType.obj
 0001:00029ad0       ??$forward@ABQAU?$_List_node@VOrder@BWAPI@@PAX@std@@@std@@YAABQAU?$_List_node@VOrder@BWAPI@@PAX@0@ABQAU10@@Z 1002aad0 f i BWAPILIB:Order.obj
 0001:00029ad0       ??$forward@ABQAU?$_List_node@VRace@BWAPI@@PAX@std@@@std@@YAABQAU?$_List_node@VRace@BWAPI@@PAX@0@ABQAU10@@Z 1002aad0 f i BWAPILIB:Race.obj
 0001:00029ad0       ??$forward@ABQAU?$_List_node@VTechType@BWAPI@@PAX@std@@@std@@YAABQAU?$_List_node@VTechType@BWAPI@@PAX@0@ABQAU10@@Z 1002aad0 f i BWAPILIB:UnitType.obj
 0001:00029ad0       ??$forward@ABQAU?$_List_node@VUnitType@BWAPI@@PAX@std@@@std@@YAABQAU?$_List_node@VUnitType@BWAPI@@PAX@0@ABQAU10@@Z 1002aad0 f i BWAPILIB:UnitType.obj
 0001:00029ad0       ??$forward@ABQAU?$_List_node@VUpgradeType@BWAPI@@PAX@std@@@std@@YAABQAU?$_List_node@VUpgradeType@BWAPI@@PAX@0@ABQAU10@@Z 1002aad0 f i BWAPILIB:UnitType.obj
 0001:00029ad0       ??$forward@ABQAU?$_List_node@VWeaponType@BWAPI@@PAX@std@@@std@@YAABQAU?$_List_node@VWeaponType@BWAPI@@PAX@0@ABQAU10@@Z 1002aad0 f i BWAPILIB:WeaponType.obj
 0001:00029ad0       ??$forward@ABV?$_List_unchecked_const_iterator@V?$_List_val@U?$_List_simple_types@VBulletType@BWAPI@@@std@@@std@@U_Iterator_base0@2@@std@@@std@@YAABV?$_List_unchecked_const_iterator@V?$_List_val@U?$_List_simple_types@VBulletType@BWAPI@@@std@@@std@@U_Iterator_base0@2@@0@ABV10@@Z 1002aad0 f i BWAPILIB:BulletType.obj
 0001:00029ad0       ??$forward@ABV?$_List_unchecked_const_iterator@V?$_List_val@U?$_List_simple_types@VOrder@BWAPI@@@std@@@std@@U_Iterator_base0@2@@std@@@std@@YAABV?$_List_unchecked_const_iterator@V?$_List_val@U?$_List_simple_types@VOrder@BWAPI@@@std@@@std@@U_Iterator_base0@2@@0@ABV10@@Z 1002aad0 f i BWAPILIB:Order.obj
 0001:00029ad0       ??$forward@ABV?$_List_unchecked_const_iterator@V?$_List_val@U?$_List_simple_types@VRace@BWAPI@@@std@@@std@@U_Iterator_base0@2@@std@@@std@@YAABV?$_List_unchecked_const_iterator@V?$_List_val@U?$_List_simple_types@VRace@BWAPI@@@std@@@std@@U_Iterator_base0@2@@0@ABV10@@Z 1002aad0 f i BWAPILIB:Race.obj
 0001:00029ad0       ??$forward@ABV?$_List_unchecked_const_iterator@V?$_List_val@U?$_List_simple_types@VTechType@BWAPI@@@std@@@std@@U_Iterator_base0@2@@std@@@std@@YAABV?$_List_unchecked_const_iterator@V?$_List_val@U?$_List_simple_types@VTechType@BWAPI@@@std@@@std@@U_Iterator_base0@2@@0@ABV10@@Z 1002aad0 f i BWAPILIB:UnitType.obj
 0001:00029ad0       ??$forward@ABV?$_List_unchecked_const_iterator@V?$_List_val@U?$_List_simple_types@VUnitType@BWAPI@@@std@@@std@@U_Iterator_base0@2@@std@@@std@@YAABV?$_List_unchecked_const_iterator@V?$_List_val@U?$_List_simple_types@VUnitType@BWAPI@@@std@@@std@@U_Iterator_base0@2@@0@ABV10@@Z 1002aad0 f i BWAPILIB:UnitType.obj
 0001:00029ad0       ??$forward@ABV?$_List_unchecked_const_iterator@V?$_List_val@U?$_List_simple_types@VUpgradeType@BWAPI@@@std@@@std@@U_Iterator_base0@2@@std@@@std@@YAABV?$_List_unchecked_const_iterator@V?$_List_val@U?$_List_simple_types@VUpgradeType@BWAPI@@@std@@@std@@U_Iterator_base0@2@@0@ABV10@@Z 1002aad0 f i BWAPILIB:UnitType.obj
 0001:00029ad0       ??$forward@ABV?$_List_unchecked_const_iterator@V?$_List_val@U?$_List_simple_types@VWeaponType@BWAPI@@@std@@@std@@U_Iterator_base0@2@@std@@@std@@YAABV?$_List_unchecked_const_iterator@V?$_List_val@U?$_List_simple_types@VWeaponType@BWAPI@@@std@@@std@@U_Iterator_base0@2@@0@ABV10@@Z 1002aad0 f i BWAPILIB:WeaponType.obj
 0001:00029ad0       ??$forward@ABV?$allocator@VBulletType@BWAPI@@@std@@@std@@YAABV?$allocator@VBulletType@BWAPI@@@0@ABV10@@Z 1002aad0 f i BWAPILIB:BulletType.obj
 0001:00029ad0       ??$forward@ABV?$allocator@VOrder@BWAPI@@@std@@@std@@YAABV?$allocator@VOrder@BWAPI@@@0@ABV10@@Z 1002aad0 f i BWAPILIB:Order.obj
 0001:00029ad0       ??$forward@ABV?$allocator@VRace@BWAPI@@@std@@@std@@YAABV?$allocator@VRace@BWAPI@@@0@ABV10@@Z 1002aad0 f i BWAPILIB:Race.obj
 0001:00029ad0       ??$forward@ABV?$allocator@VTechType@BWAPI@@@std@@@std@@YAABV?$allocator@VTechType@BWAPI@@@0@ABV10@@Z 1002aad0 f i BWAPILIB:UnitType.obj
 0001:00029ad0       ??$forward@ABV?$allocator@VUnitType@BWAPI@@@std@@@std@@YAABV?$allocator@VUnitType@BWAPI@@@0@ABV10@@Z 1002aad0 f i BWAPILIB:UnitType.obj
 0001:00029ad0       ??$forward@ABV?$allocator@VUpgradeType@BWAPI@@@std@@@std@@YAABV?$allocator@VUpgradeType@BWAPI@@@0@ABV10@@Z 1002aad0 f i StrategyBossZerg.obj
 0001:00029ad0       ??$forward@ABV?$allocator@VWeaponType@BWAPI@@@std@@@std@@YAABV?$allocator@VWeaponType@BWAPI@@@0@ABV10@@Z 1002aad0 f i BWAPILIB:WeaponType.obj
 0001:00029ad0       ??$forward@ABVBulletType@BWAPI@@@std@@YAABVBulletType@BWAPI@@ABV12@@Z 1002aad0 f i BWAPILIB:BulletType.obj
 0001:00029ad0       ??$forward@ABVOrder@BWAPI@@@std@@YAABVOrder@BWAPI@@ABV12@@Z 1002aad0 f i BWAPILIB:Order.obj
 0001:00029ad0       ??$forward@ABVRace@BWAPI@@@std@@YAABVRace@BWAPI@@ABV12@@Z 1002aad0 f i BWAPILIB:Race.obj
 0001:00029ad0       ??$forward@ABVTechType@BWAPI@@@std@@YAABVTechType@BWAPI@@ABV12@@Z 1002aad0 f i SkillOpeningTiming.obj
 0001:00029ad0       ??$forward@ABVUnitType@BWAPI@@@std@@YAABVUnitType@BWAPI@@ABV12@@Z 1002aad0 f i BOSimulator.obj
 0001:00029ad0       ??$forward@ABVUpgradeType@BWAPI@@@std@@YAABVUpgradeType@BWAPI@@ABV12@@Z 1002aad0 f i SkillOpeningTiming.obj
 0001:00029ad0       ??$forward@ABVWeaponType@BWAPI@@@std@@YAABVWeaponType@BWAPI@@ABV12@@Z 1002aad0 f i BWAPILIB:WeaponType.obj
 0001:00029ad0       ??$forward@M@std@@YA$$QAMAAM@Z 1002aad0 f i Base.obj
 0001:00029ad0       ??$forward@PAV?$map@VUnitType@BWAPI@@HU?$less@VUnitType@BWAPI@@@std@@V?$allocator@U?$pair@$$CBVUnitType@BWAPI@@H@std@@@4@@std@@@std@@YA$$QAPAV?$map@VUnitType@BWAPI@@HU?$less@VUnitType@BWAPI@@@std@@V?$allocator@U?$pair@$$CBVUnitType@BWAPI@@H@std@@@4@@0@AAPAV10@@Z 1002aad0 f i BWAPILIB:UnitType.obj
 0001:00029ad0       ??$forward@PAVUnitInterface@BWAPI@@@std@@YA$$QAPAVUnitInterface@BWAPI@@AAPAV12@@Z 1002aad0 f i Base.obj
 0001:00029ad0       ??$forward@U_Zero_then_variadic_args_t@std@@@std@@YA$$QAU_Zero_then_variadic_args_t@0@AAU10@@Z 1002aad0 f i Base.obj
 0001:00029ad0       ??$forward@V?$_List_iterator@V?$_List_val@U?$_List_simple_types@VBulletType@BWAPI@@@std@@@std@@@std@@@std@@YA$$QAV?$_List_iterator@V?$_List_val@U?$_List_simple_types@VBulletType@BWAPI@@@std@@@std@@@0@AAV10@@Z 1002aad0 f i BWAPILIB:BulletType.obj
 0001:00029ad0       ??$forward@V?$_List_iterator@V?$_List_val@U?$_List_simple_types@VOrder@BWAPI@@@std@@@std@@@std@@@std@@YA$$QAV?$_List_iterator@V?$_List_val@U?$_List_simple_types@VOrder@BWAPI@@@std@@@std@@@0@AAV10@@Z 1002aad0 f i BWAPILIB:Order.obj
 0001:00029ad0       ??$forward@V?$_List_iterator@V?$_List_val@U?$_List_simple_types@VRace@BWAPI@@@std@@@std@@@std@@@std@@YA$$QAV?$_List_iterator@V?$_List_val@U?$_List_simple_types@VRace@BWAPI@@@std@@@std@@@0@AAV10@@Z 1002aad0 f i BWAPILIB:Race.obj
 0001:00029ad0       ??$forward@V?$_List_iterator@V?$_List_val@U?$_List_simple_types@VTechType@BWAPI@@@std@@@std@@@std@@@std@@YA$$QAV?$_List_iterator@V?$_List_val@U?$_List_simple_types@VTechType@BWAPI@@@std@@@std@@@0@AAV10@@Z 1002aad0 f i BWAPILIB:UnitType.obj
 0001:00029ad0       ??$forward@V?$_List_iterator@V?$_List_val@U?$_List_simple_types@VUnitType@BWAPI@@@std@@@std@@@std@@@std@@YA$$QAV?$_List_iterator@V?$_List_val@U?$_List_simple_types@VUnitType@BWAPI@@@std@@@std@@@0@AAV10@@Z 1002aad0 f i BWAPILIB:UnitType.obj
 0001:00029ad0       ??$forward@V?$_List_iterator@V?$_List_val@U?$_List_simple_types@VUpgradeType@BWAPI@@@std@@@std@@@std@@@std@@YA$$QAV?$_List_iterator@V?$_List_val@U?$_List_simple_types@VUpgradeType@BWAPI@@@std@@@std@@@0@AAV10@@Z 1002aad0 f i BWAPILIB:UnitType.obj
 0001:00029ad0       ??$forward@V?$_List_iterator@V?$_List_val@U?$_List_simple_types@VWeaponType@BWAPI@@@std@@@std@@@std@@@std@@YA$$QAV?$_List_iterator@V?$_List_val@U?$_List_simple_types@VWeaponType@BWAPI@@@std@@@std@@@0@AAV10@@Z 1002aad0 f i BWAPILIB:WeaponType.obj
 0001:00029ad0       ??$forward@V?$allocator@U?$_List_node@VWeaponType@BWAPI@@PAX@std@@@std@@@std@@YA$$QAV?$allocator@U?$_List_node@VWeaponType@BWAPI@@PAX@std@@@0@AAV10@@Z 1002aad0 f i BWAPILIB:WeaponType.obj
 0001:00029ad0       ??$forward@V?$allocator@V?$_List_unchecked_const_iterator@V?$_List_val@U?$_List_simple_types@VWeaponType@BWAPI@@@std@@@std@@U_Iterator_base0@2@@std@@@std@@@std@@YA$$QAV?$allocator@V?$_List_unchecked_const_iterator@V?$_List_val@U?$_List_simple_types@VWeaponType@BWAPI@@@std@@@std@@U_Iterator_base0@2@@std@@@0@AAV10@@Z 1002aad0 f i BWAPILIB:WeaponType.obj
 0001:00029ad0       ??$forward@V?$allocator@V?$map@VUnitType@BWAPI@@HU?$less@VUnitType@BWAPI@@@std@@V?$allocator@U?$pair@$$CBVUnitType@BWAPI@@H@std@@@4@@std@@@std@@@std@@YA$$QAV?$allocator@V?$map@VUnitType@BWAPI@@HU?$less@VUnitType@BWAPI@@@std@@V?$allocator@U?$pair@$$CBVUnitType@BWAPI@@H@std@@@4@@std@@@0@AAV10@@Z 1002aad0 f i BWAPILIB:UnitType.obj
 0001:00029ad0       ??$forward@_N@std@@YA$$QA_NAA_N@Z 1002aad0 f i Base.obj
 0001:00029ad0       ??$move@AAPAU?$_List_node@VWeaponType@BWAPI@@PAX@std@@@std@@YA$$QAPAU?$_List_node@VWeaponType@BWAPI@@PAX@0@AAPAU10@@Z 1002aad0 f i BWAPILIB:WeaponType.obj
 0001:00029ad0       ??$move@AAPAV?$_List_unchecked_const_iterator@V?$_List_val@U?$_List_simple_types@VWeaponType@BWAPI@@@std@@@std@@U_Iterator_base0@2@@std@@@std@@YA$$QAPAV?$_List_unchecked_const_iterator@V?$_List_val@U?$_List_simple_types@VWeaponType@BWAPI@@@std@@@std@@U_Iterator_base0@2@@0@AAPAV10@@Z 1002aad0 f i BWAPILIB:WeaponType.obj
 0001:00029ad0       ??$move@AAV?$allocator@U?$_List_node@VWeaponType@BWAPI@@PAX@std@@@std@@@std@@YA$$QAV?$allocator@U?$_List_node@VWeaponType@BWAPI@@PAX@std@@@0@AAV10@@Z 1002aad0 f i BWAPILIB:WeaponType.obj
 0001:00029ad0       ??$move@AAV?$allocator@V?$_List_unchecked_const_iterator@V?$_List_val@U?$_List_simple_types@VWeaponType@BWAPI@@@std@@@std@@U_Iterator_base0@2@@std@@@std@@@std@@YA$$QAV?$allocator@V?$_List_unchecked_const_iterator@V?$_List_val@U?$_List_simple_types@VWeaponType@BWAPI@@@std@@@std@@U_Iterator_base0@2@@std@@@0@AAV10@@Z 1002aad0 f i BWAPILIB:WeaponType.obj
 0001:00029ad0       ??$move@AAV?$allocator@V?$map@VUnitType@BWAPI@@HU?$less@VUnitType@BWAPI@@@std@@V?$allocator@U?$pair@$$CBVUnitType@BWAPI@@H@std@@@4@@std@@@std@@@std@@YA$$QAV?$allocator@V?$map@VUnitType@BWAPI@@HU?$less@VUnitType@BWAPI@@@std@@V?$allocator@U?$pair@$$CBVUnitType@BWAPI@@H@std@@@4@@std@@@0@AAV10@@Z 1002aad0 f i BWAPILIB:UnitType.obj
 0001:00029ad0       ??$move@AAV?$unordered_set@VWeaponType@BWAPI@@U?$hash@H@std@@U?$equal_to@VWeaponType@BWAPI@@@4@V?$allocator@VWeaponType@BWAPI@@@4@@std@@@std@@YA$$QAV?$unordered_set@VWeaponType@BWAPI@@U?$hash@H@std@@U?$equal_to@VWeaponType@BWAPI@@@4@V?$allocator@VWeaponType@BWAPI@@@4@@0@AAV10@@Z 1002aad0 f i BWAPILIB:WeaponType.obj
 0001:00029ad0       ?_Extract@?$_In_place_key_extract_map_impl@VUnitType@BWAPI@@U?$pair@VUnitType@BWAPI@@H@std@@@std@@SAABVUnitType@BWAPI@@ABU?$pair@VUnitType@BWAPI@@H@2@@Z 1002aad0 f i SkillUnitTimings.obj
 0001:00029ad0       ?_Extract@?$_In_place_key_extract_set_impl@VBulletType@BWAPI@@V12@@std@@SAABVBulletType@BWAPI@@ABV34@@Z 1002aad0 f i BWAPILIB:BulletType.obj
 0001:00029ad0       ?_Extract@?$_In_place_key_extract_set_impl@VOrder@BWAPI@@V12@@std@@SAABVOrder@BWAPI@@ABV34@@Z 1002aad0 f i BWAPILIB:Order.obj
 0001:00029ad0       ?_Extract@?$_In_place_key_extract_set_impl@VRace@BWAPI@@V12@@std@@SAABVRace@BWAPI@@ABV34@@Z 1002aad0 f i BWAPILIB:Race.obj
 0001:00029ad0       ?_Extract@?$_In_place_key_extract_set_impl@VTechType@BWAPI@@V12@@std@@SAABVTechType@BWAPI@@ABV34@@Z 1002aad0 f i SkillOpeningTiming.obj
 0001:00029ad0       ?_Extract@?$_In_place_key_extract_set_impl@VUnitType@BWAPI@@V12@@std@@SAABVUnitType@BWAPI@@ABV34@@Z 1002aad0 f i MacroAct.obj
 0001:00029ad0       ?_Extract@?$_In_place_key_extract_set_impl@VUpgradeType@BWAPI@@V12@@std@@SAABVUpgradeType@BWAPI@@ABV34@@Z 1002aad0 f i BWAPILIB:UnitType.obj
 0001:00029ad0       ?_Extract@?$_In_place_key_extract_set_impl@VWeaponType@BWAPI@@V12@@std@@SAABVWeaponType@BWAPI@@ABV34@@Z 1002aad0 f i BWAPILIB:WeaponType.obj
 0001:00029ad0       ?_Kfn@?$_Uset_traits@VBulletType@BWAPI@@V?$_Uhash_compare@VBulletType@BWAPI@@U?$hash@H@std@@U?$equal_to@VBulletType@BWAPI@@@4@@std@@V?$allocator@VBulletType@BWAPI@@@4@$0A@@std@@SAABVBulletType@BWAPI@@ABV34@@Z 1002aad0 f i BWAPILIB:BulletType.obj
 0001:00029ad0       ?_Kfn@?$_Uset_traits@VOrder@BWAPI@@V?$_Uhash_compare@VOrder@BWAPI@@U?$hash@H@std@@U?$equal_to@VOrder@BWAPI@@@4@@std@@V?$allocator@VOrder@BWAPI@@@4@$0A@@std@@SAABVOrder@BWAPI@@ABV34@@Z 1002aad0 f i BWAPILIB:Order.obj
 0001:00029ad0       ?_Kfn@?$_Uset_traits@VRace@BWAPI@@V?$_Uhash_compare@VRace@BWAPI@@U?$hash@H@std@@U?$equal_to@VRace@BWAPI@@@4@@std@@V?$allocator@VRace@BWAPI@@@4@$0A@@std@@SAABVRace@BWAPI@@ABV34@@Z 1002aad0 f i BWAPILIB:Race.obj
 0001:00029ad0       ?_Kfn@?$_Uset_traits@VTechType@BWAPI@@V?$_Uhash_compare@VTechType@BWAPI@@U?$hash@H@std@@U?$equal_to@VTechType@BWAPI@@@4@@std@@V?$allocator@VTechType@BWAPI@@@4@$0A@@std@@SAABVTechType@BWAPI@@ABV34@@Z 1002aad0 f i BWAPILIB:UnitType.obj
 0001:00029ad0       ?_Kfn@?$_Uset_traits@VUnitType@BWAPI@@V?$_Uhash_compare@VUnitType@BWAPI@@U?$hash@H@std@@U?$equal_to@VUnitType@BWAPI@@@4@@std@@V?$allocator@VUnitType@BWAPI@@@4@$0A@@std@@SAABVUnitType@BWAPI@@ABV34@@Z 1002aad0 f i BWAPILIB:UnitType.obj
 0001:00029ad0       ?_Kfn@?$_Uset_traits@VUpgradeType@BWAPI@@V?$_Uhash_compare@VUpgradeType@BWAPI@@U?$hash@H@std@@U?$equal_to@VUpgradeType@BWAPI@@@4@@std@@V?$allocator@VUpgradeType@BWAPI@@@4@$0A@@std@@SAABVUpgradeType@BWAPI@@ABV34@@Z 1002aad0 f i BWAPILIB:UnitType.obj
 0001:00029ad0       ?_Kfn@?$_Uset_traits@VWeaponType@BWAPI@@V?$_Uhash_compare@VWeaponType@BWAPI@@U?$hash@H@std@@U?$equal_to@VWeaponType@BWAPI@@@4@@std@@V?$allocator@VWeaponType@BWAPI@@@4@$0A@@std@@SAABVWeaponType@BWAPI@@ABV34@@Z 1002aad0 f i BWAPILIB:WeaponType.obj
 0001:00029ae0       ??$_Allocate_at_least_helper@V?$allocator@V?$Point@H$07@BWAPI@@@std@@@std@@YAPAV?$Point@H$07@BWAPI@@AAV?$allocator@V?$Point@H$07@BWAPI@@@0@AAI@Z 1002aae0 f i GridInset.obj
 0001:00029ae0       ??$_Allocate_at_least_helper@V?$allocator@V?$Point@H$0CA@@BWAPI@@@std@@@std@@YAPAV?$Point@H$0CA@@BWAPI@@AAV?$allocator@V?$Point@H$0CA@@BWAPI@@@0@AAI@Z 1002aae0 f i Base.obj
 0001:00029b40       ??$_Max_limit@H@std@@YAHXZ 1002ab40 f i Base.obj
 0001:00029b40       ?max@?$numeric_limits@H@std@@SAHXZ 1002ab40 f i BOSS:GameState.obj
 0001:00029b50       ??$_Allocate@$07U_Default_allocate_traits@std@@@std@@YAPAXI@Z 1002ab50 f i Base.obj
 0001:00029ba0       ?_Xlength@?$vector@DV?$allocator@D@std@@@std@@CAXXZ 1002aba0 f i MacroAct.obj
 0001:00029ba0       ?_Xlength@?$vector@FV?$allocator@F@std@@@std@@CAXXZ 1002aba0 f i Grid.obj
 0001:00029ba0       ?_Xlength@?$vector@GV?$allocator@G@std@@@std@@CAXXZ 1002aba0 f i MapPartitions.obj
 0001:00029ba0       ?_Xlength@?$vector@HV?$allocator@H@std@@@std@@CAXXZ 1002aba0 f i Base.obj
 0001:00029ba0       ?_Xlength@?$vector@IV?$allocator@I@std@@@std@@CAXXZ 1002aba0 f i BOSSManager.obj
 0001:00029ba0       ?_Xlength@?$vector@NV?$allocator@N@std@@@std@@CAXXZ 1002aba0 f i GameCommander.obj
 0001:00029ba0       ?_Xlength@?$vector@PAUGameSnapshot@UAlbertaBot@@V?$allocator@PAUGameSnapshot@UAlbertaBot@@@std@@@std@@CAXXZ 1002aba0 f i GameRecord.obj
 0001:00029ba0       ?_Xlength@?$vector@PAVBase@UAlbertaBot@@V?$allocator@PAVBase@UAlbertaBot@@@std@@@std@@CAXXZ 1002aba0 f i Bases.obj
 0001:00029ba0       ?_Xlength@?$vector@PAVGameRecord@UAlbertaBot@@V?$allocator@PAVGameRecord@UAlbertaBot@@@std@@@std@@CAXXZ 1002aba0 f i OpponentModel.obj
 0001:00029ba0       ?_Xlength@?$vector@PAVSkill@UAlbertaBot@@V?$allocator@PAVSkill@UAlbertaBot@@@std@@@std@@CAXXZ 1002aba0 f i SkillKit.obj
 0001:00029ba0       ?_Xlength@?$vector@PAVUnitInterface@BWAPI@@V?$allocator@PAVUnitInterface@BWAPI@@@std@@@std@@CAXXZ 1002aba0 f i CombatCommander.obj
 0001:00029ba0       ?_Xlength@?$vector@PAVZone@UAlbertaBot@@V?$allocator@PAVZone@UAlbertaBot@@@std@@@std@@CAXXZ 1002aba0 f i GridZone.obj
 0001:00029ba0       ?_Xlength@?$vector@U?$pair@HPAVBase@UAlbertaBot@@@std@@V?$allocator@U?$pair@HPAVBase@UAlbertaBot@@@std@@@2@@std@@CAXXZ 1002aba0 f i CombatCommander.obj
 0001:00029ba0       ?_Xlength@?$vector@U?$pair@V?$basic_string@DU?$char_traits@D@std@@V?$allocator@D@2@@std@@N@std@@V?$allocator@U?$pair@V?$basic_string@DU?$char_traits@D@std@@V?$allocator@D@2@@std@@N@std@@@2@@std@@CAXXZ 1002aba0 f i OpponentModel.obj
 0001:00029ba0       ?_Xlength@?$vector@U?$pair@VMacroAct@UAlbertaBot@@I@std@@V?$allocator@U?$pair@VMacroAct@UAlbertaBot@@I@std@@@2@@std@@CAXXZ 1002aba0 f i BOSSManager.obj
 0001:00029ba0       ?_Xlength@?$vector@U?$pair@W4LurkerTactic@UAlbertaBot@@V?$basic_string@DU?$char_traits@D@std@@V?$allocator@D@2@@std@@@std@@V?$allocator@U?$pair@W4LurkerTactic@UAlbertaBot@@V?$basic_string@DU?$char_traits@D@std@@V?$allocator@D@2@@std@@@std@@@2@@std@@CAXXZ 1002aba0 f i CombatCommander.obj
 0001:00029ba0       ?_Xlength@?$vector@U?$pair@W4OpeningPlan@UAlbertaBot@@V?$basic_string@DU?$char_traits@D@std@@V?$allocator@D@2@@std@@@std@@V?$allocator@U?$pair@W4OpeningPlan@UAlbertaBot@@V?$basic_string@DU?$char_traits@D@std@@V?$allocator@D@2@@std@@@std@@@2@@std@@CAXXZ 1002aba0 f i BuildingManager.obj
 0001:00029ba0       ?_Xlength@?$vector@UApproachPath@DistractorManager@UAlbertaBot@@V?$allocator@UApproachPath@DistractorManager@UAlbertaBot@@@std@@@std@@CAXXZ 1002aba0 f i DistractorManager.obj
 0001:00029ba0       ?_Xlength@?$vector@UBattleRecord@SkillBattles@UAlbertaBot@@V?$allocator@UBattleRecord@SkillBattles@UAlbertaBot@@@std@@@std@@CAXXZ 1002aba0 f i SkillBattles.obj
 0001:00029ba0       ?_Xlength@?$vector@UFAPUnit@FastAPproximation@UAlbertaBot@@V?$allocator@UFAPUnit@FastAPproximation@UAlbertaBot@@@std@@@std@@CAXXZ 1002aba0 f i FAP.obj
 0001:00029ba0       ?_Xlength@?$vector@URecord@GameCommander@UAlbertaBot@@V?$allocator@URecord@GameCommander@UAlbertaBot@@@std@@@std@@CAXXZ 1002aba0 f i GameCommander.obj
 0001:00029ba0       ?_Xlength@?$vector@UUnitInfo@UAlbertaBot@@V?$allocator@UUnitInfo@UAlbertaBot@@@std@@@std@@CAXXZ 1002aba0 f i InformationManager.obj
 0001:00029ba0       ?_Xlength@?$vector@U_Grp_t@?$_Tgt_state_t@V?$_String_const_iterator@V?$_String_val@U?$_Simple_types@D@std@@@std@@@std@@@std@@V?$allocator@U_Grp_t@?$_Tgt_state_t@V?$_String_const_iterator@V?$_String_val@U?$_Simple_types@D@std@@@std@@@std@@@std@@@3@@std@@CAXXZ 1002aba0 f i MacroAct.obj
 0001:00029ba0       ?_Xlength@?$vector@U_Loop_vals_t@std@@V?$allocator@U_Loop_vals_t@std@@@2@@std@@CAXXZ 1002aba0 f i MacroAct.obj
 0001:00029ba0       ?_Xlength@?$vector@V?$Point@H$00@BWAPI@@V?$allocator@V?$Point@H$00@BWAPI@@@std@@@std@@CAXXZ 1002aba0 f i MicroTransports.obj
 0001:00029ba0       ?_Xlength@?$vector@V?$Point@H$07@BWAPI@@V?$allocator@V?$Point@H$07@BWAPI@@@std@@@std@@CAXXZ 1002aba0 f i GridInset.obj
 0001:00029ba0       ?_Xlength@?$vector@V?$Point@H$0CA@@BWAPI@@V?$allocator@V?$Point@H$0CA@@BWAPI@@@std@@@std@@CAXXZ 1002aba0 f i Base.obj
 0001:00029ba0       ?_Xlength@?$vector@V?$basic_string@DU?$char_traits@D@std@@V?$allocator@D@2@@std@@V?$allocator@V?$basic_string@DU?$char_traits@D@std@@V?$allocator@D@2@@std@@@2@@std@@CAXXZ 1002aba0 f i GameCommander.obj
 0001:00029ba0       ?_Xlength@?$vector@V?$map@VUnitType@BWAPI@@HU?$less@VUnitType@BWAPI@@@std@@V?$allocator@U?$pair@$$CBVUnitType@BWAPI@@H@std@@@4@@std@@V?$allocator@V?$map@VUnitType@BWAPI@@HU?$less@VUnitType@BWAPI@@@std@@V?$allocator@U?$pair@$$CBVUnitType@BWAPI@@H@std@@@4@@std@@@2@@std@@CAXXZ 1002aba0 f i SkillUnitTimings.obj
 0001:00029ba0       ?_Xlength@?$vector@V?$reference_wrapper@VBuilding@UAlbertaBot@@@std@@V?$allocator@V?$reference_wrapper@VBuilding@UAlbertaBot@@@std@@@2@@std@@CAXXZ 1002aba0 f i BuildingManager.obj
 0001:00029ba0       ?_Xlength@?$vector@V?$sub_match@V?$_String_const_iterator@V?$_String_val@U?$_Simple_types@D@std@@@std@@@std@@@std@@V?$allocator@V?$sub_match@V?$_String_const_iterator@V?$_String_val@U?$_Simple_types@D@std@@@std@@@std@@@std@@@2@@std@@CAXXZ 1002aba0 f i MacroAct.obj
 0001:00029ba0       ?_Xlength@?$vector@V?$vector@FV?$allocator@F@std@@@std@@V?$allocator@V?$vector@FV?$allocator@F@std@@@std@@@2@@std@@CAXXZ 1002aba0 f i Grid.obj
 0001:00029ba0       ?_Xlength@?$vector@V?$vector@GV?$allocator@G@std@@@std@@V?$allocator@V?$vector@GV?$allocator@G@std@@@std@@@2@@std@@CAXXZ 1002aba0 f i MapPartitions.obj
 0001:00029ba0       ?_Xlength@?$vector@V?$vector@VActionType@BOSS@@V?$allocator@VActionType@BOSS@@@std@@@std@@V?$allocator@V?$vector@VActionType@BOSS@@V?$allocator@VActionType@BOSS@@@std@@@std@@@2@@std@@CAXXZ 1002aba0 f i BOSS:ActionType.obj
 0001:00029ba0       ?_Xlength@?$vector@V?$vector@_NV?$allocator@_N@std@@@std@@V?$allocator@V?$vector@_NV?$allocator@_N@std@@@std@@@2@@std@@CAXXZ 1002aba0 f i BuildingPlacer.obj
 0001:00029ba0       ?_Xlength@?$vector@VActionPerformed@BOSS@@V?$allocator@VActionPerformed@BOSS@@@std@@@std@@CAXXZ 1002aba0 f i BOSSManager.obj
 0001:00029ba0       ?_Xlength@?$vector@VActionType@BOSS@@V?$allocator@VActionType@BOSS@@@std@@@std@@CAXXZ 1002aba0 f i BOSSManager.obj
 0001:00029ba0       ?_Xlength@?$vector@VActionTypeData@BOSS@@V?$allocator@VActionTypeData@BOSS@@@std@@@std@@CAXXZ 1002aba0 f i BOSS:ActionTypeData.obj
 0001:00029ba0       ?_Xlength@?$vector@VBuilding@UAlbertaBot@@V?$allocator@VBuilding@UAlbertaBot@@@std@@@std@@CAXXZ 1002aba0 f i BuildingManager.obj
 0001:00029ba0       ?_Xlength@?$vector@VGridCell@UAlbertaBot@@V?$allocator@VGridCell@UAlbertaBot@@@std@@@std@@CAXXZ 1002aba0 f i MapGrid.obj
 0001:00029ba0       ?_Xlength@?$vector@VMacroAct@UAlbertaBot@@V?$allocator@VMacroAct@UAlbertaBot@@@std@@@std@@CAXXZ 1002aba0 f i BOSSManager.obj
 0001:00029ba0       ?_Xlength@?$vector@VPotentialBase@UAlbertaBot@@V?$allocator@VPotentialBase@UAlbertaBot@@@std@@@std@@CAXXZ 1002aba0 f i Bases.obj
 0001:00029ba0       ?_Xlength@?$vector@VUnitCluster@UAlbertaBot@@V?$allocator@VUnitCluster@UAlbertaBot@@@std@@@std@@CAXXZ 1002aba0 f i OpsBoss.obj
 0001:00029ba0       ?_Xlength@?$vector@VUnitType@BWAPI@@V?$allocator@VUnitType@BWAPI@@@std@@@std@@CAXXZ 1002aba0 f i BuildingManager.obj
 0001:00029ba0       ?_Xlength@?$vector@VUnitset@BWAPI@@V?$allocator@VUnitset@BWAPI@@@std@@@std@@CAXXZ 1002aba0 f i Bases.obj
 0001:00029ba0       ?_Xlength@?$vector@VUpgradeType@BWAPI@@V?$allocator@VUpgradeType@BWAPI@@@std@@@std@@CAXXZ 1002aba0 f i StrategyBossZerg.obj
 0001:00029bb0       ?_Buy_raw@?$vector@HV?$allocator@H@std@@@std@@AAEXI@Z 1002abb0 f i Base.obj
 0001:00029bb0       ?_Buy_raw@?$vector@IV?$allocator@I@std@@@std@@AAEXI@Z 1002abb0 f i BOSSManager.obj
 0001:00029c40       ?_Change_array@?$vector@V?$Point@H$0CA@@BWAPI@@V?$allocator@V?$Point@H$0CA@@BWAPI@@@std@@@std@@AAEXQAV?$Point@H$0CA@@BWAPI@@II@Z 1002ac40 f i Base.obj
 0001:00029cb0       ?_Forced_rehash@?$_Hash@V?$_Uset_traits@PAVUnitInterface@BWAPI@@V?$_Uhash_compare@PAVUnitInterface@BWAPI@@U?$hash@PAX@std@@U?$equal_to@PAVUnitInterface@BWAPI@@@4@@std@@V?$allocator@PAVUnitInterface@BWAPI@@@4@$0A@@std@@@std@@IAEXI@Z 1002acb0 f i Base.obj
 0001:00029e20       ??1UnitCluster@UAlbertaBot@@QAE@XZ 1002ae20 f i Base.obj
 0001:00029e40       ??1_Guard_type@?1???$_Global_new@V?$_Func_impl_no_alloc@V<lambda_a75142be93029274f5333ecd96084427>@@_NPAVUnitInterface@BWAPI@@@std@@ABV<lambda_a75142be93029274f5333ecd96084427>@@@std@@YAPAV?$_Func_impl_no_alloc@V<lambda_a75142be93029274f5333ecd96084427>@@_NPAVUnitInterface@BWAPI@@@1@ABV<lambda_a75142be93029274f5333ecd96084427>@@@Z@QAE@XZ 1002ae40 f i BuildingPlacer.obj
 0001:00029e40       ??1_Guard_type@?1???$_Global_new@V?$_Func_impl_no_alloc@V<lambda_c39fdb09d160b656fde65dff274b627b>@@_NPAVUnitInterface@BWAPI@@@std@@ABV<lambda_c39fdb09d160b656fde65dff274b627b>@@@std@@YAPAV?$_Func_impl_no_alloc@V<lambda_c39fdb09d160b656fde65dff274b627b>@@_NPAVUnitInterface@BWAPI@@@1@ABV<lambda_c39fdb09d160b656fde65dff274b627b>@@@Z@QAE@XZ 1002ae40 f i MicroDefilers.obj
 0001:00029e40       ??1_Guard_type@?1???$_Global_new@V?$_Func_impl_no_alloc@V<lambda_cef79e0d1072eba124270f82643b14a2>@@_NPAVUnitInterface@BWAPI@@@std@@ABV<lambda_cef79e0d1072eba124270f82643b14a2>@@@std@@YAPAV?$_Func_impl_no_alloc@V<lambda_cef79e0d1072eba124270f82643b14a2>@@_NPAVUnitInterface@BWAPI@@@1@ABV<lambda_cef79e0d1072eba124270f82643b14a2>@@@Z@QAE@XZ 1002ae40 f i Base.obj
 0001:00029e40       ??1_Guard_type@?1???$_Global_new@V?$_Func_impl_no_alloc@V<lambda_cfd6fce307c286eb3135c7782fdef1bb>@@_NPAVUnitInterface@BWAPI@@@std@@ABV<lambda_cfd6fce307c286eb3135c7782fdef1bb>@@@std@@YAPAV?$_Func_impl_no_alloc@V<lambda_cfd6fce307c286eb3135c7782fdef1bb>@@_NPAVUnitInterface@BWAPI@@@1@ABV<lambda_cfd6fce307c286eb3135c7782fdef1bb>@@@Z@QAE@XZ 1002ae40 f i MicroIrradiated.obj
 0001:00029e60       ??$_Allocate_at_least_helper@V?$allocator@H@std@@@std@@YAPAHAAV?$allocator@H@0@AAI@Z 1002ae60 f i Base.obj
 0001:00029ec0       ??$_Get_size_of_n@$03@std@@YAII@Z 1002aec0 f i Base.obj
 0001:00029ee0       ??$emplace_hint@ABQAVUnitInterface@BWAPI@@@?$_Hash@V?$_Uset_traits@PAVUnitInterface@BWAPI@@V?$_Uhash_compare@PAVUnitInterface@BWAPI@@U?$hash@PAX@std@@U?$equal_to@PAVUnitInterface@BWAPI@@@4@@std@@V?$allocator@PAVUnitInterface@BWAPI@@@4@$0A@@std@@@std@@QAE?AV?$_List_const_iterator@V?$_List_val@U?$_List_simple_types@PAVUnitInterface@BWAPI@@@std@@@std@@@1@V21@ABQAVUnitInterface@BWAPI@@@Z 1002aee0 f i Base.obj
 0001:0002a0f0       ?_Delete_this@?$_Func_impl_no_alloc@V<lambda_118b755b5cc58de9f37bbbebea1f7d1c>@@_NPAVUnitInterface@BWAPI@@@std@@EAEX_N@Z 1002b0f0 f i DistractorManager.obj
 0001:0002a0f0       ?_Delete_this@?$_Func_impl_no_alloc@V<lambda_1feb1c45d8d8f4db5ffac22a9dbce3a7>@@_NPAVUnitInterface@BWAPI@@@std@@EAEX_N@Z 1002b0f0 f i WorkerManager.obj
 0001:0002a0f0       ?_Delete_this@?$_Func_impl_no_alloc@V<lambda_3cdec769ff18744395981dd48fcfc232>@@_NPAVUnitInterface@BWAPI@@@std@@EAEX_N@Z 1002b0f0 f i Micro.obj
 0001:0002a0f0       ?_Delete_this@?$_Func_impl_no_alloc@V<lambda_3d97d02986cacbf219a1cc042b0c5977>@@_NPAVUnitInterface@BWAPI@@@std@@EAEX_N@Z 1002b0f0 f i WorkerManager.obj
 0001:0002a0f0       ?_Delete_this@?$_Func_impl_no_alloc@V<lambda_59e4abf1f646fd939a8d58a73427ae7d>@@_NPAVUnitInterface@BWAPI@@@std@@EAEX_N@Z 1002b0f0 f i Base.obj
 0001:0002a0f0       ?_Delete_this@?$_Func_impl_no_alloc@V<lambda_5f0711d792da3a2e3345062a6240f8fe>@@_NPAVUnitInterface@BWAPI@@@std@@EAEX_N@Z 1002b0f0 f i MicroDefilers.obj
 0001:0002a0f0       ?_Delete_this@?$_Func_impl_no_alloc@V<lambda_78f85996966d427a337d8e82ed1b3dbd>@@_NPAVUnitInterface@BWAPI@@@std@@EAEX_N@Z 1002b0f0 f i MicroQueens.obj
 0001:0002a0f0       ?_Delete_this@?$_Func_impl_no_alloc@V<lambda_cb250b491d44fd5fafa1308ee8ece773>@@_NPAVUnitInterface@BWAPI@@@std@@EAEX_N@Z 1002b0f0 f i Base.obj
 0001:0002a0f0       ?_Delete_this@?$_Func_impl_no_alloc@V<lambda_e0d4f0a6843bbf70301b4930bfad8260>@@_NPAVUnitInterface@BWAPI@@@std@@EAEX_N@Z 1002b0f0 f i MicroManager.obj
 0001:0002a110       ?_Get@?$_Func_impl_no_alloc@V<lambda_118b755b5cc58de9f37bbbebea1f7d1c>@@_NPAVUnitInterface@BWAPI@@@std@@EBEPBXXZ 1002b110 f i DistractorManager.obj
 0001:0002a110       ?_Get@?$_Func_impl_no_alloc@V<lambda_1feb1c45d8d8f4db5ffac22a9dbce3a7>@@_NPAVUnitInterface@BWAPI@@@std@@EBEPBXXZ 1002b110 f i WorkerManager.obj
 0001:0002a110       ?_Get@?$_Func_impl_no_alloc@V<lambda_3cdec769ff18744395981dd48fcfc232>@@_NPAVUnitInterface@BWAPI@@@std@@EBEPBXXZ 1002b110 f i Micro.obj
 0001:0002a110       ?_Get@?$_Func_impl_no_alloc@V<lambda_3d97d02986cacbf219a1cc042b0c5977>@@_NPAVUnitInterface@BWAPI@@@std@@EBEPBXXZ 1002b110 f i WorkerManager.obj
 0001:0002a110       ?_Get@?$_Func_impl_no_alloc@V<lambda_59e4abf1f646fd939a8d58a73427ae7d>@@_NPAVUnitInterface@BWAPI@@@std@@EBEPBXXZ 1002b110 f i Base.obj
 0001:0002a110       ?_Get@?$_Func_impl_no_alloc@V<lambda_5f0711d792da3a2e3345062a6240f8fe>@@_NPAVUnitInterface@BWAPI@@@std@@EBEPBXXZ 1002b110 f i MicroDefilers.obj
 0001:0002a110       ?_Get@?$_Func_impl_no_alloc@V<lambda_78f85996966d427a337d8e82ed1b3dbd>@@_NPAVUnitInterface@BWAPI@@@std@@EBEPBXXZ 1002b110 f i MicroQueens.obj
 0001:0002a110       ?_Get@?$_Func_impl_no_alloc@V<lambda_a2cf48cc0ad720342f05725db62c6909>@@_NPAVUnitInterface@BWAPI@@@std@@EBEPBXXZ 1002b110 f i MicroDefilers.obj
 0001:0002a110       ?_Get@?$_Func_impl_no_alloc@V<lambda_cb250b491d44fd5fafa1308ee8ece773>@@_NPAVUnitInterface@BWAPI@@@std@@EBEPBXXZ 1002b110 f i Base.obj
 0001:0002a110       ?_Get@?$_Func_impl_no_alloc@V<lambda_e0d4f0a6843bbf70301b4930bfad8260>@@_NPAVUnitInterface@BWAPI@@@std@@EBEPBXXZ 1002b110 f i MicroManager.obj
 0001:0002a110       ?_Get@?$_Func_impl_no_alloc@V?$UnaryFilter@PAVUnitInterface@BWAPI@@P6A_NPAV12@@Z@BWAPI@@_NPAVUnitInterface@2@@std@@EBEPBXXZ 1002b110 f i CombatCommander.obj
 0001:0002a110       ?capacity@?$Vec@VActionCountPair@BOSS@@$0GE@@BOSS@@QBEABIXZ 1002b110 f i BOSS:PrerequisiteSet.obj
 0001:0002a110       ?capacity@?$Vec@VActionInProgress@BOSS@@$0DC@@BOSS@@QBEABIXZ 1002b110 f i BOSS:ActionInProgress.obj
 0001:0002a110       ?capacity@?$Vec@VActionType@BOSS@@$0GE@@BOSS@@QBEABIXZ 1002b110 f i BOSS:ActionSet.obj
 0001:0002a110       ?capacity@?$Vec@VBuildingStatus@BOSS@@$0EG@@BOSS@@QBEABIXZ 1002b110 f i BOSS:BuildingData.obj
 0001:0002a110       ?capacity@?$Vec@VHatchery@BOSS@@$0BA@@BOSS@@QBEABIXZ 1002b110 f i BOSS:HatcheryData.obj
 0001:0002a120       ?_Target_type@?$_Func_impl_no_alloc@V<lambda_59e4abf1f646fd939a8d58a73427ae7d>@@_NPAVUnitInterface@BWAPI@@@std@@EBEABVtype_info@@XZ 1002b120 f i Base.obj
 0001:0002a130       ?_Do_call@?$_Func_impl_no_alloc@V<lambda_59e4abf1f646fd939a8d58a73427ae7d>@@_NPAVUnitInterface@BWAPI@@@std@@EAE_N$$QAPAVUnitInterface@BWAPI@@@Z 1002b130 f i Base.obj
 0001:0002a130       ?_Do_call@?$_Func_impl_no_alloc@V<lambda_e0d4f0a6843bbf70301b4930bfad8260>@@_NPAVUnitInterface@BWAPI@@@std@@EAE_N$$QAPAVUnitInterface@BWAPI@@@Z 1002b130 f i MicroManager.obj
 0001:0002a160       ?_Copy@?$_Func_impl_no_alloc@V<lambda_59e4abf1f646fd939a8d58a73427ae7d>@@_NPAVUnitInterface@BWAPI@@@std@@EBEPAV?$_Func_base@_NPAVUnitInterface@BWAPI@@@2@PAX@Z 1002b160 f i Base.obj
 0001:0002a160       ?_Move@?$_Func_impl_no_alloc@V<lambda_59e4abf1f646fd939a8d58a73427ae7d>@@_NPAVUnitInterface@BWAPI@@@std@@EAEPAV?$_Func_base@_NPAVUnitInterface@BWAPI@@@2@PAX@Z 1002b160 f i Base.obj
 0001:0002a180       ?_Delete_this@?$_Func_impl_no_alloc@V<lambda_a75142be93029274f5333ecd96084427>@@_NPAVUnitInterface@BWAPI@@@std@@EAEX_N@Z 1002b180 f i BuildingPlacer.obj
 0001:0002a180       ?_Delete_this@?$_Func_impl_no_alloc@V<lambda_c39fdb09d160b656fde65dff274b627b>@@_NPAVUnitInterface@BWAPI@@@std@@EAEX_N@Z 1002b180 f i MicroDefilers.obj
 0001:0002a180       ?_Delete_this@?$_Func_impl_no_alloc@V<lambda_cef79e0d1072eba124270f82643b14a2>@@_NPAVUnitInterface@BWAPI@@@std@@EAEX_N@Z 1002b180 f i Base.obj
 0001:0002a180       ?_Delete_this@?$_Func_impl_no_alloc@V<lambda_cfd6fce307c286eb3135c7782fdef1bb>@@_NPAVUnitInterface@BWAPI@@@std@@EAEX_N@Z 1002b180 f i MicroIrradiated.obj
 0001:0002a1c0       ?_Get@?$_Func_impl_no_alloc@V<lambda_a75142be93029274f5333ecd96084427>@@_NPAVUnitInterface@BWAPI@@@std@@EBEPBXXZ 1002b1c0 f i BuildingPlacer.obj
 0001:0002a1c0       ?_Get@?$_Func_impl_no_alloc@V<lambda_c39fdb09d160b656fde65dff274b627b>@@_NPAVUnitInterface@BWAPI@@@std@@EBEPBXXZ 1002b1c0 f i MicroDefilers.obj
 0001:0002a1c0       ?_Get@?$_Func_impl_no_alloc@V<lambda_cef79e0d1072eba124270f82643b14a2>@@_NPAVUnitInterface@BWAPI@@@std@@EBEPBXXZ 1002b1c0 f i Base.obj
 0001:0002a1c0       ?_Get@?$_Func_impl_no_alloc@V<lambda_cfd6fce307c286eb3135c7782fdef1bb>@@_NPAVUnitInterface@BWAPI@@@std@@EBEPBXXZ 1002b1c0 f i MicroIrradiated.obj
 0001:0002a1d0       ?_Target_type@?$_Func_impl_no_alloc@V<lambda_cef79e0d1072eba124270f82643b14a2>@@_NPAVUnitInterface@BWAPI@@@std@@EBEABVtype_info@@XZ 1002b1d0 f i Base.obj
 0001:0002a1e0       ?_Do_call@?$_Func_impl_no_alloc@V<lambda_cef79e0d1072eba124270f82643b14a2>@@_NPAVUnitInterface@BWAPI@@@std@@EAE_N$$QAPAVUnitInterface@BWAPI@@@Z 1002b1e0 f i Base.obj
 0001:0002a230       ?_Get_deleter@_Ref_count_base@std@@UBEPAXABVtype_info@@@Z 1002b230 f i BOSSManager.obj
 0001:0002a230       ?_Move@?$_Func_impl_no_alloc@V<lambda_a75142be93029274f5333ecd96084427>@@_NPAVUnitInterface@BWAPI@@@std@@EAEPAV?$_Func_base@_NPAVUnitInterface@BWAPI@@@2@PAX@Z 1002b230 f i BuildingPlacer.obj
 0001:0002a230       ?_Move@?$_Func_impl_no_alloc@V<lambda_c39fdb09d160b656fde65dff274b627b>@@_NPAVUnitInterface@BWAPI@@@std@@EAEPAV?$_Func_base@_NPAVUnitInterface@BWAPI@@@2@PAX@Z 1002b230 f i MicroDefilers.obj
 0001:0002a230       ?_Move@?$_Func_impl_no_alloc@V<lambda_cef79e0d1072eba124270f82643b14a2>@@_NPAVUnitInterface@BWAPI@@@std@@EAEPAV?$_Func_base@_NPAVUnitInterface@BWAPI@@@2@PAX@Z 1002b230 f i Base.obj
 0001:0002a230       ?_Move@?$_Func_impl_no_alloc@V<lambda_cfd6fce307c286eb3135c7782fdef1bb>@@_NPAVUnitInterface@BWAPI@@@std@@EAEPAV?$_Func_base@_NPAVUnitInterface@BWAPI@@@2@PAX@Z 1002b230 f i MicroIrradiated.obj
 0001:0002a240       ?_Copy@?$_Func_impl_no_alloc@V<lambda_cef79e0d1072eba124270f82643b14a2>@@_NPAVUnitInterface@BWAPI@@@std@@EBEPAV?$_Func_base@_NPAVUnitInterface@BWAPI@@@2@PAX@Z 1002b240 f i Base.obj
 0001:0002a2d0       ?_Target_type@?$_Func_impl_no_alloc@V<lambda_cb250b491d44fd5fafa1308ee8ece773>@@_NPAVUnitInterface@BWAPI@@@std@@EBEABVtype_info@@XZ 1002b2d0 f i Base.obj
 0001:0002a2e0       ?_Do_call@?$_Func_impl_no_alloc@V<lambda_cb250b491d44fd5fafa1308ee8ece773>@@_NPAVUnitInterface@BWAPI@@@std@@EAE_N$$QAPAVUnitInterface@BWAPI@@@Z 1002b2e0 f i Base.obj
 0001:0002a330       ?_Copy@?$_Func_impl_no_alloc@V<lambda_cb250b491d44fd5fafa1308ee8ece773>@@_NPAVUnitInterface@BWAPI@@@std@@EBEPAV?$_Func_base@_NPAVUnitInterface@BWAPI@@@2@PAX@Z 1002b330 f i Base.obj
 0001:0002a330       ?_Move@?$_Func_impl_no_alloc@V<lambda_cb250b491d44fd5fafa1308ee8ece773>@@_NPAVUnitInterface@BWAPI@@@std@@EAEPAV?$_Func_base@_NPAVUnitInterface@BWAPI@@@2@PAX@Z 1002b330 f i Base.obj
 0001:0002a350       ??1?$vector@FV?$allocator@F@std@@@std@@QAE@XZ 1002b350 f i Base.obj
 0001:0002a350       ??1?$vector@GV?$allocator@G@std@@@std@@QAE@XZ 1002b350 f i Base.obj
 0001:0002a360       ??$_Get_size_of_n@$0M@@std@@YAII@Z 1002b360 f i Base.obj
 0001:0002a380       ??1?$vector@VActionType@BOSS@@V?$allocator@VActionType@BOSS@@@std@@@std@@QAE@XZ 1002b380 f i BOSSManager.obj
 0001:0002a380       ?_Tidy@?$vector@FV?$allocator@F@std@@@std@@AAEXXZ 1002b380 f i Base.obj
 0001:0002a380       ?_Tidy@?$vector@GV?$allocator@G@std@@@std@@AAEXXZ 1002b380 f i Base.obj
 0001:0002a380       ?_Tidy@?$vector@VActionType@BOSS@@V?$allocator@VActionType@BOSS@@@std@@@std@@AAEXXZ 1002b380 f i BOSSManager.obj
 0001:0002a3e0       ?now@The@UAlbertaBot@@QBEHXZ 1002b3e0 f i Bases.obj
 0001:0002a400       ?compareBases@@YA_NPBVBase@UAlbertaBot@@0@Z 1002b400 f   Bases.obj
 0001:0002a430       ?findBasePosition@Bases@UAlbertaBot@@AAE?AV?$Point@H$0CA@@BWAPI@@VUnitset@4@@Z 1002b430 f   Bases.obj
 0001:0002a7f0       ?inferEnemyBaseFromOverlord@Bases@UAlbertaBot@@AAE_NXZ 1002b7f0 f   Bases.obj
 0001:0002a9f0       ?updateEnemyStart@Bases@UAlbertaBot@@AAEXXZ 1002b9f0 f   Bases.obj
 0001:0002aba0       ?updateBaseOwners@Bases@UAlbertaBot@@AAEXXZ 1002bba0 f   Bases.obj
 0001:0002aef0       ?updateMainBase@Bases@UAlbertaBot@@AAEXXZ 1002bef0 f   Bases.obj
 0001:0002b0b0       ?initialize@Bases@UAlbertaBot@@QAEXXZ 1002c0b0 f   Bases.obj
 0001:0002bb40       ?checkBuildingPosition@Bases@UAlbertaBot@@QAEXABV?$Point@H$0CA@@BWAPI@@0@Z 1002cb40 f   Bases.obj
 0001:0002bcd0       ?drawBaseInfo@Bases@UAlbertaBot@@QBEXXZ 1002ccd0 f   Bases.obj
 0001:0002be70       ?drawBaseOwnership@Bases@UAlbertaBot@@QBEXHH@Z 1002ce70 f   Bases.obj
 0001:0002c080       ?myFront@Bases@UAlbertaBot@@QBEPAVBase@2@XZ 1002d080 f   Bases.obj
 0001:0002c2d0       ?connectedToStart@Bases@UAlbertaBot@@QBE_NABV?$Point@H$0CA@@BWAPI@@@Z 1002d2d0 f   Bases.obj
 0001:0002c390       ?freeLandBaseCount@Bases@UAlbertaBot@@QBEHXZ 1002d390 f   Bases.obj
 0001:0002c480       ?remainingMineralPatchCount@Bases@UAlbertaBot@@QBEHXZ 1002d480 f   Bases.obj
 0001:0002c560       ?gasCounts@Bases@UAlbertaBot@@QBEXAAH0@Z 1002d560 f   Bases.obj
 0001:0002c840       ?findBaseByPosition@Bases@UAlbertaBot@@QBEPAVBase@2@ABV?$Point@H$00@BWAPI@@@Z 1002d840 f   Bases.obj
 0001:0002ca10       ?clearNeutral@Bases@UAlbertaBot@@QAEXPAVUnitInterface@BWAPI@@@Z 1002da10 f   Bases.obj
 0001:0002cac0       ?Instance@Bases@UAlbertaBot@@SAAAV12@XZ 1002dac0 f   Bases.obj
 0001:0002cc20       ??$min@H@std@@YAABHABH0@Z  1002dc20 f i Bases.obj
 0001:0002cc40       ??$max@H@std@@YAABHABH0@Z  1002dc40 f i Bases.obj
 0001:0002cc60       ??1?$vector@VPotentialBase@UAlbertaBot@@V?$allocator@VPotentialBase@UAlbertaBot@@@std@@@std@@QAE@XZ 1002dc60 f i Bases.obj
 0001:0002cce0       ??1?$vector@VUnitset@BWAPI@@V?$allocator@VUnitset@BWAPI@@@std@@@std@@QAE@XZ 1002dce0 f i Bases.obj
 0001:0002cd60       ??1?$_Tree@V?$_Tmap_traits@HIU?$less@H@std@@V?$allocator@U?$pair@$$CBHI@std@@@2@$0A@@std@@@std@@QAE@XZ 1002dd60 f i GridZone.obj
 0001:0002cd60       ??1?$_Tree@V?$_Tmap_traits@PAVUnitInterface@BWAPI@@HU?$less@PAVUnitInterface@BWAPI@@@std@@V?$allocator@U?$pair@QAVUnitInterface@BWAPI@@H@std@@@4@$0A@@std@@@std@@QAE@XZ 1002dd60 f i WorkerData.obj
 0001:0002cd60       ??1?$_Tree@V?$_Tmap_traits@PAVUnitInterface@BWAPI@@PAVBase@UAlbertaBot@@U?$less@PAVUnitInterface@BWAPI@@@std@@V?$allocator@U?$pair@QAVUnitInterface@BWAPI@@PAVBase@UAlbertaBot@@@std@@@6@$0A@@std@@@std@@QAE@XZ 1002dd60 f i Bases.obj
 0001:0002cd60       ??1?$_Tree@V?$_Tmap_traits@W4GameTech@UAlbertaBot@@HU?$less@W4GameTech@UAlbertaBot@@@std@@V?$allocator@U?$pair@$$CBW4GameTech@UAlbertaBot@@H@std@@@4@$0A@@std@@@std@@QAE@XZ 1002dd60 f i GameRecordNow.obj
 0001:0002cd60       ??1?$_Tree@V?$_Tmap_traits@W4LurkerTactic@UAlbertaBot@@HU?$less@W4LurkerTactic@UAlbertaBot@@@std@@V?$allocator@U?$pair@$$CBW4LurkerTactic@UAlbertaBot@@H@std@@@4@$0A@@std@@@std@@QAE@XZ 1002dd60 f i SkillLurkers.obj
 0001:0002cda0       ??A?$map@PAVUnitInterface@BWAPI@@HU?$less@PAVUnitInterface@BWAPI@@@std@@V?$allocator@U?$pair@QAVUnitInterface@BWAPI@@H@std@@@4@@std@@QAEAAHABQAVUnitInterface@BWAPI@@@Z 1002dda0 f i WorkerData.obj
 0001:0002cda0       ??A?$map@PAVUnitInterface@BWAPI@@PAVBase@UAlbertaBot@@U?$less@PAVUnitInterface@BWAPI@@@std@@V?$allocator@U?$pair@QAVUnitInterface@BWAPI@@PAVBase@UAlbertaBot@@@std@@@6@@std@@QAEAAPAVBase@UAlbertaBot@@ABQAVUnitInterface@BWAPI@@@Z 1002dda0 f i Bases.obj
 0001:0002ce60       ?erase@?$_Hash@V?$_Uset_traits@PAVUnitInterface@BWAPI@@V?$_Uhash_compare@PAVUnitInterface@BWAPI@@U?$hash@PAX@std@@U?$equal_to@PAVUnitInterface@BWAPI@@@4@@std@@V?$allocator@PAVUnitInterface@BWAPI@@@4@$0A@@std@@@std@@QAE?AV?$_List_const_iterator@V?$_List_val@U?$_List_simple_types@PAVUnitInterface@BWAPI@@@std@@@std@@@2@V32@@Z 1002de60 f i Bases.obj
 0001:0002cf10       ?end@?$_Hash@V?$_Uset_traits@PAVUnitInterface@BWAPI@@V?$_Uhash_compare@PAVUnitInterface@BWAPI@@U?$hash@PAX@std@@U?$equal_to@PAVUnitInterface@BWAPI@@@4@@std@@V?$allocator@PAVUnitInterface@BWAPI@@@4@$0A@@std@@@std@@QAE?AV?$_List_const_iterator@V?$_List_val@U?$_List_simple_types@PAVUnitInterface@BWAPI@@@std@@@std@@@2@XZ 1002df10 f i Bases.obj
 0001:0002cf10       ?end@?$_Hash@V?$_Uset_traits@VUnitType@BWAPI@@V?$_Uhash_compare@VUnitType@BWAPI@@U?$hash@H@std@@U?$equal_to@VUnitType@BWAPI@@@4@@std@@V?$allocator@VUnitType@BWAPI@@@4@$0A@@std@@@std@@QBE?AV?$_List_const_iterator@V?$_List_val@U?$_List_simple_types@VUnitType@BWAPI@@@std@@@std@@@2@XZ 1002df10 f i GameCommander.obj
 0001:0002cf20       ??$_Sort_unchecked@PAPAVBase@UAlbertaBot@@P6A_NPBV12@0@Z@std@@YAXPAPAVBase@UAlbertaBot@@0HP6A_NPBV12@1@Z@Z 1002df20 f i Bases.obj
 0001:0002d110       ??$_Partition_by_median_guess_unchecked@PAPAVBase@UAlbertaBot@@P6A_NPBV12@0@Z@std@@YA?AU?$pair@PAPAVBase@UAlbertaBot@@PAPAV12@@0@PAPAVBase@UAlbertaBot@@0P6A_NPBV23@1@Z@Z 1002e110 f i Bases.obj
 0001:0002d2e0       ??$_Emplace_reallocate@VPotentialBase@UAlbertaBot@@@?$vector@VPotentialBase@UAlbertaBot@@V?$allocator@VPotentialBase@UAlbertaBot@@@std@@@std@@AAEPAVPotentialBase@UAlbertaBot@@QAV23@$$QAV23@@Z 1002e2e0 f i Bases.obj
 0001:0002d4a0       ??$_Emplace_reallocate@ABVUnitset@BWAPI@@@?$vector@VUnitset@BWAPI@@V?$allocator@VUnitset@BWAPI@@@std@@@std@@AAEPAVUnitset@BWAPI@@QAV23@ABV23@@Z 1002e4a0 f i Bases.obj
 0001:0002d6f0       ??$_Find_lower_bound@PAVPlayerInterface@BWAPI@@@?$_Tree@V?$_Tmap_traits@PAVPlayerInterface@BWAPI@@VUnitData@UAlbertaBot@@U?$less@PAVPlayerInterface@BWAPI@@@std@@V?$allocator@U?$pair@QAVPlayerInterface@BWAPI@@VUnitData@UAlbertaBot@@@std@@@6@$0A@@std@@@std@@IBE?AU?$_Tree_find_result@PAU?$_Tree_node@U?$pair@QAVPlayerInterface@BWAPI@@VUnitData@UAlbertaBot@@@std@@PAX@std@@@1@ABQAVPlayerInterface@BWAPI@@@Z 1002e6f0 f i InformationManager.obj
 0001:0002d6f0       ??$_Find_lower_bound@PAVSkill@UAlbertaBot@@@?$_Tree@V?$_Tmap_traits@PAVSkill@UAlbertaBot@@V?$map@HV?$vector@HV?$allocator@H@std@@@std@@U?$less@H@2@V?$allocator@U?$pair@$$CBHV?$vector@HV?$allocator@H@std@@@std@@@std@@@2@@std@@U?$less@PAVSkill@UAlbertaBot@@@4@V?$allocator@U?$pair@QAVSkill@UAlbertaBot@@V?$map@HV?$vector@HV?$allocator@H@std@@@std@@U?$less@H@2@V?$allocator@U?$pair@$$CBHV?$vector@HV?$allocator@H@std@@@std@@@std@@@2@@std@@@std@@@4@$0A@@std@@@std@@IBE?AU?$_Tree_find_result@PAU?$_Tree_node@U?$pair@QAVSkill@UAlbertaBot@@V?$map@HV?$vector@HV?$allocator@H@std@@@std@@U?$less@H@2@V?$allocator@U?$pair@$$CBHV?$vector@HV?$allocator@H@std@@@std@@@std@@@2@@std@@@std@@PAX@std@@@1@ABQAVSkill@UAlbertaBot@@@Z 1002e6f0 f i GameRecord.obj
 0001:0002d6f0       ??$_Find_lower_bound@PAVUnitInterface@BWAPI@@@?$_Tree@V?$_Tmap_traits@PAVUnitInterface@BWAPI@@HU?$less@PAVUnitInterface@BWAPI@@@std@@V?$allocator@U?$pair@QAVUnitInterface@BWAPI@@H@std@@@4@$0A@@std@@@std@@IBE?AU?$_Tree_find_result@PAU?$_Tree_node@U?$pair@QAVUnitInterface@BWAPI@@H@std@@PAX@std@@@1@ABQAVUnitInterface@BWAPI@@@Z 1002e6f0 f i WorkerData.obj
 0001:0002d6f0       ??$_Find_lower_bound@PAVUnitInterface@BWAPI@@@?$_Tree@V?$_Tmap_traits@PAVUnitInterface@BWAPI@@PAV12@U?$less@PAVUnitInterface@BWAPI@@@std@@V?$allocator@U?$pair@QAVUnitInterface@BWAPI@@PAV12@@std@@@4@$0A@@std@@@std@@IBE?AU?$_Tree_find_result@PAU?$_Tree_node@U?$pair@QAVUnitInterface@BWAPI@@PAV12@@std@@PAX@std@@@1@ABQAVUnitInterface@BWAPI@@@Z 1002e6f0 f i WorkerData.obj
 0001:0002d6f0       ??$_Find_lower_bound@PAVUnitInterface@BWAPI@@@?$_Tree@V?$_Tmap_traits@PAVUnitInterface@BWAPI@@PAVBase@UAlbertaBot@@U?$less@PAVUnitInterface@BWAPI@@@std@@V?$allocator@U?$pair@QAVUnitInterface@BWAPI@@PAVBase@UAlbertaBot@@@std@@@6@$0A@@std@@@std@@IBE?AU?$_Tree_find_result@PAU?$_Tree_node@U?$pair@QAVUnitInterface@BWAPI@@PAVBase@UAlbertaBot@@@std@@PAX@std@@@1@ABQAVUnitInterface@BWAPI@@@Z 1002e6f0 f i Bases.obj
 0001:0002d6f0       ??$_Find_lower_bound@PAVUnitInterface@BWAPI@@@?$_Tree@V?$_Tmap_traits@PAVUnitInterface@BWAPI@@UUnitInfo@UAlbertaBot@@U?$less@PAVUnitInterface@BWAPI@@@std@@V?$allocator@U?$pair@QAVUnitInterface@BWAPI@@UUnitInfo@UAlbertaBot@@@std@@@6@$0A@@std@@@std@@IBE?AU?$_Tree_find_result@PAU?$_Tree_node@U?$pair@QAVUnitInterface@BWAPI@@UUnitInfo@UAlbertaBot@@@std@@PAX@std@@@1@ABQAVUnitInterface@BWAPI@@@Z 1002e6f0 f i InformationManager.obj
 0001:0002d6f0       ??$_Find_lower_bound@PAVUnitInterface@BWAPI@@@?$_Tree@V?$_Tmap_traits@PAVUnitInterface@BWAPI@@V?$Point@H$0CA@@2@U?$less@PAVUnitInterface@BWAPI@@@std@@V?$allocator@U?$pair@QAVUnitInterface@BWAPI@@V?$Point@H$0CA@@2@@std@@@5@$0A@@std@@@std@@IBE?AU?$_Tree_find_result@PAU?$_Tree_node@U?$pair@QAVUnitInterface@BWAPI@@V?$Point@H$0CA@@2@@std@@PAX@std@@@1@ABQAVUnitInterface@BWAPI@@@Z 1002e6f0 f i MicroOverlords.obj
 0001:0002d6f0       ??$_Find_lower_bound@PAVUnitInterface@BWAPI@@@?$_Tree@V?$_Tmap_traits@PAVUnitInterface@BWAPI@@VCasterState@UAlbertaBot@@U?$less@PAVUnitInterface@BWAPI@@@std@@V?$allocator@U?$pair@QAVUnitInterface@BWAPI@@VCasterState@UAlbertaBot@@@std@@@6@$0A@@std@@@std@@IBE?AU?$_Tree_find_result@PAU?$_Tree_node@U?$pair@QAVUnitInterface@BWAPI@@VCasterState@UAlbertaBot@@@std@@PAX@std@@@1@ABQAVUnitInterface@BWAPI@@@Z 1002e6f0 f i MicroManager.obj
 0001:0002d6f0       ??$_Find_lower_bound@PAVUnitInterface@BWAPI@@@?$_Tree@V?$_Tmap_traits@PAVUnitInterface@BWAPI@@VMicroState@UAlbertaBot@@U?$less@PAVUnitInterface@BWAPI@@@std@@V?$allocator@U?$pair@QAVUnitInterface@BWAPI@@VMicroState@UAlbertaBot@@@std@@@6@$0A@@std@@@std@@IBE?AU?$_Tree_find_result@PAU?$_Tree_node@U?$pair@QAVUnitInterface@BWAPI@@VMicroState@UAlbertaBot@@@std@@PAX@std@@@1@ABQAVUnitInterface@BWAPI@@@Z 1002e6f0 f i Micro.obj
 0001:0002d6f0       ??$_Find_lower_bound@PAVUnitInterface@BWAPI@@@?$_Tree@V?$_Tmap_traits@PAVUnitInterface@BWAPI@@VResourceInfo@UAlbertaBot@@U?$less@PAVUnitInterface@BWAPI@@@std@@V?$allocator@U?$pair@QAVUnitInterface@BWAPI@@VResourceInfo@UAlbertaBot@@@std@@@6@$0A@@std@@@std@@IBE?AU?$_Tree_find_result@PAU?$_Tree_node@U?$pair@QAVUnitInterface@BWAPI@@VResourceInfo@UAlbertaBot@@@std@@PAX@std@@@1@ABQAVUnitInterface@BWAPI@@@Z 1002e6f0 f i InformationManager.obj
 0001:0002d6f0       ??$_Find_lower_bound@PAVUnitInterface@BWAPI@@@?$_Tree@V?$_Tmap_traits@PAVUnitInterface@BWAPI@@VUnitset@2@U?$less@PAVUnitInterface@BWAPI@@@std@@V?$allocator@U?$pair@QAVUnitInterface@BWAPI@@VUnitset@2@@std@@@5@$0A@@std@@@std@@IBE?AU?$_Tree_find_result@PAU?$_Tree_node@U?$pair@QAVUnitInterface@BWAPI@@VUnitset@2@@std@@PAX@std@@@1@ABQAVUnitInterface@BWAPI@@@Z 1002e6f0 f i InformationManager.obj
 0001:0002d6f0       ??$_Find_lower_bound@PAVUnitInterface@BWAPI@@@?$_Tree@V?$_Tmap_traits@PAVUnitInterface@BWAPI@@VWorkerPost@WorkerData@UAlbertaBot@@U?$less@PAVUnitInterface@BWAPI@@@std@@V?$allocator@U?$pair@QAVUnitInterface@BWAPI@@VWorkerPost@WorkerData@UAlbertaBot@@@std@@@7@$0A@@std@@@std@@IBE?AU?$_Tree_find_result@PAU?$_Tree_node@U?$pair@QAVUnitInterface@BWAPI@@VWorkerPost@WorkerData@UAlbertaBot@@@std@@PAX@std@@@1@ABQAVUnitInterface@BWAPI@@@Z 1002e6f0 f i WorkerData.obj
 0001:0002d6f0       ??$_Find_lower_bound@PAVUnitInterface@BWAPI@@@?$_Tree@V?$_Tmap_traits@PAVUnitInterface@BWAPI@@W4WorkerJob@WorkerData@UAlbertaBot@@U?$less@PAVUnitInterface@BWAPI@@@std@@V?$allocator@U?$pair@QAVUnitInterface@BWAPI@@W4WorkerJob@WorkerData@UAlbertaBot@@@std@@@7@$0A@@std@@@std@@IBE?AU?$_Tree_find_result@PAU?$_Tree_node@U?$pair@QAVUnitInterface@BWAPI@@W4WorkerJob@WorkerData@UAlbertaBot@@@std@@PAX@std@@@1@ABQAVUnitInterface@BWAPI@@@Z 1002e6f0 f i WorkerData.obj
 0001:0002d6f0       ??$_Find_lower_bound@PAVUnitInterface@BWAPI@@@?$_Tree@V?$_Tmap_traits@PAVUnitInterface@BWAPI@@_NU?$less@PAVUnitInterface@BWAPI@@@std@@V?$allocator@U?$pair@QAVUnitInterface@BWAPI@@_N@std@@@4@$0A@@std@@@std@@IBE?AU?$_Tree_find_result@PAU?$_Tree_node@U?$pair@QAVUnitInterface@BWAPI@@_N@std@@PAX@std@@@1@ABQAVUnitInterface@BWAPI@@@Z 1002e6f0 f i Squad.obj
 0001:0002d6f0       ??$_Find_lower_bound@PAVZone@UAlbertaBot@@@?$_Tree@V?$_Tset_traits@PAVZone@UAlbertaBot@@U?$less@PAVZone@UAlbertaBot@@@std@@V?$allocator@PAVZone@UAlbertaBot@@@4@$0A@@std@@@std@@IBE?AU?$_Tree_find_result@PAU?$_Tree_node@PAVZone@UAlbertaBot@@PAX@std@@@1@ABQAVZone@UAlbertaBot@@@Z 1002e6f0 f i GridZone.obj
 0001:0002d740       ??$_Emplace_reallocate@ABH@?$vector@HV?$allocator@H@std@@@std@@AAEPAHQAHABH@Z 1002e740 f i OpponentModel.obj
 0001:0002d740       ??$_Emplace_reallocate@ABQAUGameSnapshot@UAlbertaBot@@@?$vector@PAUGameSnapshot@UAlbertaBot@@V?$allocator@PAUGameSnapshot@UAlbertaBot@@@std@@@std@@AAEPAPAUGameSnapshot@UAlbertaBot@@QAPAU23@ABQAU23@@Z 1002e740 f i GameRecord.obj
 0001:0002d740       ??$_Emplace_reallocate@ABQAVBase@UAlbertaBot@@@?$vector@PAVBase@UAlbertaBot@@V?$allocator@PAVBase@UAlbertaBot@@@std@@@std@@AAEPAPAVBase@UAlbertaBot@@QAPAV23@ABQAV23@@Z 1002e740 f i Bases.obj
 0001:0002d740       ??$_Emplace_reallocate@ABQAVGameRecord@UAlbertaBot@@@?$vector@PAVGameRecord@UAlbertaBot@@V?$allocator@PAVGameRecord@UAlbertaBot@@@std@@@std@@AAEPAPAVGameRecord@UAlbertaBot@@QAPAV23@ABQAV23@@Z 1002e740 f i OpponentModel.obj
 0001:0002d740       ??$_Emplace_reallocate@ABQAVSkill@UAlbertaBot@@@?$vector@PAVSkill@UAlbertaBot@@V?$allocator@PAVSkill@UAlbertaBot@@@std@@@std@@AAEPAPAVSkill@UAlbertaBot@@QAPAV23@ABQAV23@@Z 1002e740 f i SkillKit.obj
 0001:0002d740       ??$_Emplace_reallocate@ABQAVUnitInterface@BWAPI@@@?$vector@PAVUnitInterface@BWAPI@@V?$allocator@PAVUnitInterface@BWAPI@@@std@@@std@@AAEPAPAVUnitInterface@BWAPI@@QAPAV23@ABQAV23@@Z 1002e740 f i CombatCommander.obj
 0001:0002d740       ??$_Emplace_reallocate@ABVUnitType@BWAPI@@@?$vector@VUnitType@BWAPI@@V?$allocator@VUnitType@BWAPI@@@std@@@std@@AAEPAVUnitType@BWAPI@@QAV23@ABV23@@Z 1002e740 f i BuildingManager.obj
 0001:0002d740       ??$_Emplace_reallocate@ABVUpgradeType@BWAPI@@@?$vector@VUpgradeType@BWAPI@@V?$allocator@VUpgradeType@BWAPI@@@std@@@std@@AAEPAVUpgradeType@BWAPI@@QAV23@ABV23@@Z 1002e740 f i StrategyBossZerg.obj
 0001:0002d740       ??$_Emplace_reallocate@PAVZone@UAlbertaBot@@@?$vector@PAVZone@UAlbertaBot@@V?$allocator@PAVZone@UAlbertaBot@@@std@@@std@@AAEPAPAVZone@UAlbertaBot@@QAPAV23@$$QAPAV23@@Z 1002e740 f i GridZone.obj
 0001:0002d740       ??$_Emplace_reallocate@V?$reference_wrapper@VBuilding@UAlbertaBot@@@std@@@?$vector@V?$reference_wrapper@VBuilding@UAlbertaBot@@@std@@V?$allocator@V?$reference_wrapper@VBuilding@UAlbertaBot@@@std@@@2@@std@@AAEPAV?$reference_wrapper@VBuilding@UAlbertaBot@@@1@QAV21@$$QAV21@@Z 1002e740 f i BuildingManager.obj
 0001:0002d8a0       ?_Insert_node@?$_Tree_val@U?$_Tree_simple_types@PAVUnitInterface@BWAPI@@@std@@@std@@QAEPAU?$_Tree_node@PAVUnitInterface@BWAPI@@PAX@2@U?$_Tree_id@PAU?$_Tree_node@PAVUnitInterface@BWAPI@@PAX@std@@@2@QAU32@@Z 1002e8a0 f i WorkerData.obj
 0001:0002d8a0       ?_Insert_node@?$_Tree_val@U?$_Tree_simple_types@PAVZone@UAlbertaBot@@@std@@@std@@QAEPAU?$_Tree_node@PAVZone@UAlbertaBot@@PAX@2@U?$_Tree_id@PAU?$_Tree_node@PAVZone@UAlbertaBot@@PAX@std@@@2@QAU32@@Z 1002e8a0 f i GridZone.obj
 0001:0002d8a0       ?_Insert_node@?$_Tree_val@U?$_Tree_simple_types@PBVZone@UAlbertaBot@@@std@@@std@@QAEPAU?$_Tree_node@PBVZone@UAlbertaBot@@PAX@2@U?$_Tree_id@PAU?$_Tree_node@PBVZone@UAlbertaBot@@PAX@std@@@2@QAU32@@Z 1002e8a0 f i InformationManager.obj
 0001:0002d8a0       ?_Insert_node@?$_Tree_val@U?$_Tree_simple_types@U?$pair@$$CBHI@std@@@std@@@std@@QAEPAU?$_Tree_node@U?$pair@$$CBHI@std@@PAX@2@U?$_Tree_id@PAU?$_Tree_node@U?$pair@$$CBHI@std@@PAX@std@@@2@QAU32@@Z 1002e8a0 f i GridZone.obj
 0001:0002d8a0       ?_Insert_node@?$_Tree_val@U?$_Tree_simple_types@U?$pair@$$CBHV?$vector@HV?$allocator@H@std@@@std@@@std@@@std@@@std@@QAEPAU?$_Tree_node@U?$pair@$$CBHV?$vector@HV?$allocator@H@std@@@std@@@std@@PAX@2@U?$_Tree_id@PAU?$_Tree_node@U?$pair@$$CBHV?$vector@HV?$allocator@H@std@@@std@@@std@@PAX@std@@@2@QAU32@@Z 1002e8a0 f i GameRecord.obj
 0001:0002d8a0       ?_Insert_node@?$_Tree_val@U?$_Tree_simple_types@U?$pair@$$CBV?$Point@H$0CA@@BWAPI@@VGridDistances@UAlbertaBot@@@std@@@std@@@std@@QAEPAU?$_Tree_node@U?$pair@$$CBV?$Point@H$0CA@@BWAPI@@VGridDistances@UAlbertaBot@@@std@@PAX@2@U?$_Tree_id@PAU?$_Tree_node@U?$pair@$$CBV?$Point@H$0CA@@BWAPI@@VGridDistances@UAlbertaBot@@@std@@PAX@std@@@2@QAU32@@Z 1002e8a0 f i MapTools.obj
 0001:0002d8a0       ?_Insert_node@?$_Tree_val@U?$_Tree_simple_types@U?$pair@$$CBV?$basic_string@DU?$char_traits@D@std@@V?$allocator@D@2@@std@@PAVTask@UAlbertaBot@@@std@@@std@@@std@@QAEPAU?$_Tree_node@U?$pair@$$CBV?$basic_string@DU?$char_traits@D@std@@V?$allocator@D@2@@std@@PAVTask@UAlbertaBot@@@std@@PAX@2@U?$_Tree_id@PAU?$_Tree_node@U?$pair@$$CBV?$basic_string@DU?$char_traits@D@std@@V?$allocator@D@2@@std@@PAVTask@UAlbertaBot@@@std@@PAX@std@@@2@QAU32@@Z 1002e8a0 f i Tasks.obj
 0001:0002d8a0       ?_Insert_node@?$_Tree_val@U?$_Tree_simple_types@U?$pair@$$CBV?$basic_string@DU?$char_traits@D@std@@V?$allocator@D@2@@std@@UOpeningInfoType@OpponentModel@UAlbertaBot@@@std@@@std@@@std@@QAEPAU?$_Tree_node@U?$pair@$$CBV?$basic_string@DU?$char_traits@D@std@@V?$allocator@D@2@@std@@UOpeningInfoType@OpponentModel@UAlbertaBot@@@std@@PAX@2@U?$_Tree_id@PAU?$_Tree_node@U?$pair@$$CBV?$basic_string@DU?$char_traits@D@std@@V?$allocator@D@2@@std@@UOpeningInfoType@OpponentModel@UAlbertaBot@@@std@@PAX@std@@@2@QAU32@@Z 1002e8a0 f i OpponentModel.obj
 0001:0002d8a0       ?_Insert_node@?$_Tree_val@U?$_Tree_simple_types@U?$pair@$$CBV?$basic_string@DU?$char_traits@D@std@@V?$allocator@D@2@@std@@UStrategy@UAlbertaBot@@@std@@@std@@@std@@QAEPAU?$_Tree_node@U?$pair@$$CBV?$basic_string@DU?$char_traits@D@std@@V?$allocator@D@2@@std@@UStrategy@UAlbertaBot@@@std@@PAX@2@U?$_Tree_id@PAU?$_Tree_node@U?$pair@$$CBV?$basic_string@DU?$char_traits@D@std@@V?$allocator@D@2@@std@@UStrategy@UAlbertaBot@@@std@@PAX@std@@@2@QAU32@@Z 1002e8a0 f i StrategyManager.obj
 0001:0002d8a0       ?_Insert_node@?$_Tree_val@U?$_Tree_simple_types@U?$pair@$$CBV?$basic_string@DU?$char_traits@D@std@@V?$allocator@D@2@@std@@VActionType@BOSS@@@std@@@std@@@std@@QAEPAU?$_Tree_node@U?$pair@$$CBV?$basic_string@DU?$char_traits@D@std@@V?$allocator@D@2@@std@@VActionType@BOSS@@@std@@PAX@2@U?$_Tree_id@PAU?$_Tree_node@U?$pair@$$CBV?$basic_string@DU?$char_traits@D@std@@V?$allocator@D@2@@std@@VActionType@BOSS@@@std@@PAX@std@@@2@QAU32@@Z 1002e8a0 f i BOSS:ActionType.obj
 0001:0002d8a0       ?_Insert_node@?$_Tree_val@U?$_Tree_simple_types@U?$pair@$$CBV?$basic_string@DU?$char_traits@D@std@@V?$allocator@D@2@@std@@VSquad@UAlbertaBot@@@std@@@std@@@std@@QAEPAU?$_Tree_node@U?$pair@$$CBV?$basic_string@DU?$char_traits@D@std@@V?$allocator@D@2@@std@@VSquad@UAlbertaBot@@@std@@PAX@2@U?$_Tree_id@PAU?$_Tree_node@U?$pair@$$CBV?$basic_string@DU?$char_traits@D@std@@V?$allocator@D@2@@std@@VSquad@UAlbertaBot@@@std@@PAX@std@@@2@QAU32@@Z 1002e8a0 f i SquadData.obj
 0001:0002d8a0       ?_Insert_node@?$_Tree_val@U?$_Tree_simple_types@U?$pair@$$CBV?$basic_string@DU?$char_traits@D@std@@V?$allocator@D@2@@std@@VUnitType@BWAPI@@@std@@@std@@@std@@QAEPAU?$_Tree_node@U?$pair@$$CBV?$basic_string@DU?$char_traits@D@std@@V?$allocator@D@2@@std@@VUnitType@BWAPI@@@std@@PAX@2@U?$_Tree_id@PAU?$_Tree_node@U?$pair@$$CBV?$basic_string@DU?$char_traits@D@std@@V?$allocator@D@2@@std@@VUnitType@BWAPI@@@std@@PAX@std@@@2@QAU32@@Z 1002e8a0 f i MacroAct.obj
 0001:0002d8a0       ?_Insert_node@?$_Tree_val@U?$_Tree_simple_types@U?$pair@$$CBVTechType@BWAPI@@H@std@@@std@@@std@@QAEPAU?$_Tree_node@U?$pair@$$CBVTechType@BWAPI@@H@std@@PAX@2@U?$_Tree_id@PAU?$_Tree_node@U?$pair@$$CBVTechType@BWAPI@@H@std@@PAX@std@@@2@QAU32@@Z 1002e8a0 f i SkillOpeningTiming.obj
 0001:0002d8a0       ?_Insert_node@?$_Tree_val@U?$_Tree_simple_types@U?$pair@$$CBVUnitType@BWAPI@@H@std@@@std@@@std@@QAEPAU?$_Tree_node@U?$pair@$$CBVUnitType@BWAPI@@H@std@@PAX@2@U?$_Tree_id@PAU?$_Tree_node@U?$pair@$$CBVUnitType@BWAPI@@H@std@@PAX@std@@@2@QAU32@@Z 1002e8a0 f i BOSimulator.obj
 0001:0002d8a0       ?_Insert_node@?$_Tree_val@U?$_Tree_simple_types@U?$pair@$$CBVUpgradeType@BWAPI@@H@std@@@std@@@std@@QAEPAU?$_Tree_node@U?$pair@$$CBVUpgradeType@BWAPI@@H@std@@PAX@2@U?$_Tree_id@PAU?$_Tree_node@U?$pair@$$CBVUpgradeType@BWAPI@@H@std@@PAX@std@@@2@QAU32@@Z 1002e8a0 f i SkillOpeningTiming.obj
 0001:0002d8a0       ?_Insert_node@?$_Tree_val@U?$_Tree_simple_types@U?$pair@$$CBW4Type@TimerManager@UAlbertaBot@@UTimer@3@@std@@@std@@@std@@QAEPAU?$_Tree_node@U?$pair@$$CBW4Type@TimerManager@UAlbertaBot@@UTimer@3@@std@@PAX@2@U?$_Tree_id@PAU?$_Tree_node@U?$pair@$$CBW4Type@TimerManager@UAlbertaBot@@UTimer@3@@std@@PAX@std@@@2@QAU32@@Z 1002e8a0 f i TimerManager.obj
 0001:0002d8a0       ?_Insert_node@?$_Tree_val@U?$_Tree_simple_types@U?$pair@QAVPlayerInterface@BWAPI@@V?$set@PBVZone@UAlbertaBot@@U?$less@PBVZone@UAlbertaBot@@@std@@V?$allocator@PBVZone@UAlbertaBot@@@4@@std@@@std@@@std@@@std@@QAEPAU?$_Tree_node@U?$pair@QAVPlayerInterface@BWAPI@@V?$set@PBVZone@UAlbertaBot@@U?$less@PBVZone@UAlbertaBot@@@std@@V?$allocator@PBVZone@UAlbertaBot@@@4@@std@@@std@@PAX@2@U?$_Tree_id@PAU?$_Tree_node@U?$pair@QAVPlayerInterface@BWAPI@@V?$set@PBVZone@UAlbertaBot@@U?$less@PBVZone@UAlbertaBot@@@std@@V?$allocator@PBVZone@UAlbertaBot@@@4@@std@@@std@@PAX@std@@@2@QAU32@@Z 1002e8a0 f i InformationManager.obj
 0001:0002d8a0       ?_Insert_node@?$_Tree_val@U?$_Tree_simple_types@U?$pair@QAVPlayerInterface@BWAPI@@VUnitData@UAlbertaBot@@@std@@@std@@@std@@QAEPAU?$_Tree_node@U?$pair@QAVPlayerInterface@BWAPI@@VUnitData@UAlbertaBot@@@std@@PAX@2@U?$_Tree_id@PAU?$_Tree_node@U?$pair@QAVPlayerInterface@BWAPI@@VUnitData@UAlbertaBot@@@std@@PAX@std@@@2@QAU32@@Z 1002e8a0 f i InformationManager.obj
 0001:0002d8a0       ?_Insert_node@?$_Tree_val@U?$_Tree_simple_types@U?$pair@QAVSkill@UAlbertaBot@@V?$map@HV?$vector@HV?$allocator@H@std@@@std@@U?$less@H@2@V?$allocator@U?$pair@$$CBHV?$vector@HV?$allocator@H@std@@@std@@@std@@@2@@std@@@std@@@std@@@std@@QAEPAU?$_Tree_node@U?$pair@QAVSkill@UAlbertaBot@@V?$map@HV?$vector@HV?$allocator@H@std@@@std@@U?$less@H@2@V?$allocator@U?$pair@$$CBHV?$vector@HV?$allocator@H@std@@@std@@@std@@@2@@std@@@std@@PAX@2@U?$_Tree_id@PAU?$_Tree_node@U?$pair@QAVSkill@UAlbertaBot@@V?$map@HV?$vector@HV?$allocator@H@std@@@std@@U?$less@H@2@V?$allocator@U?$pair@$$CBHV?$vector@HV?$allocator@H@std@@@std@@@std@@@2@@std@@@std@@PAX@std@@@2@QAU32@@Z 1002e8a0 f i GameRecord.obj
 0001:0002d8a0       ?_Insert_node@?$_Tree_val@U?$_Tree_simple_types@U?$pair@QAVUnitInterface@BWAPI@@H@std@@@std@@@std@@QAEPAU?$_Tree_node@U?$pair@QAVUnitInterface@BWAPI@@H@std@@PAX@2@U?$_Tree_id@PAU?$_Tree_node@U?$pair@QAVUnitInterface@BWAPI@@H@std@@PAX@std@@@2@QAU32@@Z 1002e8a0 f i WorkerData.obj
 0001:0002d8a0       ?_Insert_node@?$_Tree_val@U?$_Tree_simple_types@U?$pair@QAVUnitInterface@BWAPI@@PAV12@@std@@@std@@@std@@QAEPAU?$_Tree_node@U?$pair@QAVUnitInterface@BWAPI@@PAV12@@std@@PAX@2@U?$_Tree_id@PAU?$_Tree_node@U?$pair@QAVUnitInterface@BWAPI@@PAV12@@std@@PAX@std@@@2@QAU32@@Z 1002e8a0 f i MicroMutas.obj
 0001:0002d8a0       ?_Insert_node@?$_Tree_val@U?$_Tree_simple_types@U?$pair@QAVUnitInterface@BWAPI@@PAVBase@UAlbertaBot@@@std@@@std@@@std@@QAEPAU?$_Tree_node@U?$pair@QAVUnitInterface@BWAPI@@PAVBase@UAlbertaBot@@@std@@PAX@2@U?$_Tree_id@PAU?$_Tree_node@U?$pair@QAVUnitInterface@BWAPI@@PAVBase@UAlbertaBot@@@std@@PAX@std@@@2@QAU32@@Z 1002e8a0 f i Bases.obj
 0001:0002d8a0       ?_Insert_node@?$_Tree_val@U?$_Tree_simple_types@U?$pair@QAVUnitInterface@BWAPI@@UUnitInfo@UAlbertaBot@@@std@@@std@@@std@@QAEPAU?$_Tree_node@U?$pair@QAVUnitInterface@BWAPI@@UUnitInfo@UAlbertaBot@@@std@@PAX@2@U?$_Tree_id@PAU?$_Tree_node@U?$pair@QAVUnitInterface@BWAPI@@UUnitInfo@UAlbertaBot@@@std@@PAX@std@@@2@QAU32@@Z 1002e8a0 f i UnitData.obj
 0001:0002d8a0       ?_Insert_node@?$_Tree_val@U?$_Tree_simple_types@U?$pair@QAVUnitInterface@BWAPI@@V?$Point@H$0CA@@2@@std@@@std@@@std@@QAEPAU?$_Tree_node@U?$pair@QAVUnitInterface@BWAPI@@V?$Point@H$0CA@@2@@std@@PAX@2@U?$_Tree_id@PAU?$_Tree_node@U?$pair@QAVUnitInterface@BWAPI@@V?$Point@H$0CA@@2@@std@@PAX@std@@@2@QAU32@@Z 1002e8a0 f i MicroOverlords.obj
 0001:0002d8a0       ?_Insert_node@?$_Tree_val@U?$_Tree_simple_types@U?$pair@QAVUnitInterface@BWAPI@@VCasterState@UAlbertaBot@@@std@@@std@@@std@@QAEPAU?$_Tree_node@U?$pair@QAVUnitInterface@BWAPI@@VCasterState@UAlbertaBot@@@std@@PAX@2@U?$_Tree_id@PAU?$_Tree_node@U?$pair@QAVUnitInterface@BWAPI@@VCasterState@UAlbertaBot@@@std@@PAX@std@@@2@QAU32@@Z 1002e8a0 f i MicroManager.obj
 0001:0002d8a0       ?_Insert_node@?$_Tree_val@U?$_Tree_simple_types@U?$pair@QAVUnitInterface@BWAPI@@VMicroState@UAlbertaBot@@@std@@@std@@@std@@QAEPAU?$_Tree_node@U?$pair@QAVUnitInterface@BWAPI@@VMicroState@UAlbertaBot@@@std@@PAX@2@U?$_Tree_id@PAU?$_Tree_node@U?$pair@QAVUnitInterface@BWAPI@@VMicroState@UAlbertaBot@@@std@@PAX@std@@@2@QAU32@@Z 1002e8a0 f i Micro.obj
 0001:0002d8a0       ?_Insert_node@?$_Tree_val@U?$_Tree_simple_types@U?$pair@QAVUnitInterface@BWAPI@@VResourceInfo@UAlbertaBot@@@std@@@std@@@std@@QAEPAU?$_Tree_node@U?$pair@QAVUnitInterface@BWAPI@@VResourceInfo@UAlbertaBot@@@std@@PAX@2@U?$_Tree_id@PAU?$_Tree_node@U?$pair@QAVUnitInterface@BWAPI@@VResourceInfo@UAlbertaBot@@@std@@PAX@std@@@2@QAU32@@Z 1002e8a0 f i InformationManager.obj
 0001:0002d8a0       ?_Insert_node@?$_Tree_val@U?$_Tree_simple_types@U?$pair@QAVUnitInterface@BWAPI@@VUnitset@2@@std@@@std@@@std@@QAEPAU?$_Tree_node@U?$pair@QAVUnitInterface@BWAPI@@VUnitset@2@@std@@PAX@2@U?$_Tree_id@PAU?$_Tree_node@U?$pair@QAVUnitInterface@BWAPI@@VUnitset@2@@std@@PAX@std@@@2@QAU32@@Z 1002e8a0 f i InformationManager.obj
 0001:0002d8a0       ?_Insert_node@?$_Tree_val@U?$_Tree_simple_types@U?$pair@QAVUnitInterface@BWAPI@@VWorkerPost@WorkerData@UAlbertaBot@@@std@@@std@@@std@@QAEPAU?$_Tree_node@U?$pair@QAVUnitInterface@BWAPI@@VWorkerPost@WorkerData@UAlbertaBot@@@std@@PAX@2@U?$_Tree_id@PAU?$_Tree_node@U?$pair@QAVUnitInterface@BWAPI@@VWorkerPost@WorkerData@UAlbertaBot@@@std@@PAX@std@@@2@QAU32@@Z 1002e8a0 f i WorkerData.obj
 0001:0002d8a0       ?_Insert_node@?$_Tree_val@U?$_Tree_simple_types@U?$pair@QAVUnitInterface@BWAPI@@W4WorkerJob@WorkerData@UAlbertaBot@@@std@@@std@@@std@@QAEPAU?$_Tree_node@U?$pair@QAVUnitInterface@BWAPI@@W4WorkerJob@WorkerData@UAlbertaBot@@@std@@PAX@2@U?$_Tree_id@PAU?$_Tree_node@U?$pair@QAVUnitInterface@BWAPI@@W4WorkerJob@WorkerData@UAlbertaBot@@@std@@PAX@std@@@2@QAU32@@Z 1002e8a0 f i WorkerData.obj
 0001:0002d8a0       ?_Insert_node@?$_Tree_val@U?$_Tree_simple_types@U?$pair@QAVUnitInterface@BWAPI@@_N@std@@@std@@@std@@QAEPAU?$_Tree_node@U?$pair@QAVUnitInterface@BWAPI@@_N@std@@PAX@2@U?$_Tree_id@PAU?$_Tree_node@U?$pair@QAVUnitInterface@BWAPI@@_N@std@@PAX@std@@@2@QAU32@@Z 1002e8a0 f i Squad.obj
 0001:0002d8a0       ?_Insert_node@?$_Tree_val@U?$_Tree_simple_types@V?$Point@H$0CA@@BWAPI@@@std@@@std@@QAEPAU?$_Tree_node@V?$Point@H$0CA@@BWAPI@@PAX@2@U?$_Tree_id@PAU?$_Tree_node@V?$Point@H$0CA@@BWAPI@@PAX@std@@@2@QAU32@@Z 1002e8a0 f i MicroOverlords.obj
 0001:0002d8a0       ?_Insert_node@?$_Tree_val@U?$_Tree_simple_types@VTechType@BWAPI@@@std@@@std@@QAEPAU?$_Tree_node@VTechType@BWAPI@@PAX@2@U?$_Tree_id@PAU?$_Tree_node@VTechType@BWAPI@@PAX@std@@@2@QAU32@@Z 1002e8a0 f i SkillOpeningTiming.obj
 0001:0002d8a0       ?_Insert_node@?$_Tree_val@U?$_Tree_simple_types@VUnitType@BWAPI@@@std@@@std@@QAEPAU?$_Tree_node@VUnitType@BWAPI@@PAX@2@U?$_Tree_id@PAU?$_Tree_node@VUnitType@BWAPI@@PAX@std@@@2@QAU32@@Z 1002e8a0 f i MacroAct.obj
 0001:0002d8a0       ?_Insert_node@?$_Tree_val@U?$_Tree_simple_types@W4OpeningPlan@UAlbertaBot@@@std@@@std@@QAEPAU?$_Tree_node@W4OpeningPlan@UAlbertaBot@@PAX@2@U?$_Tree_id@PAU?$_Tree_node@W4OpeningPlan@UAlbertaBot@@PAX@std@@@2@QAU32@@Z 1002e8a0 f i OpponentModel.obj
 0001:0002da90       ?_Extract@?$_Tree_val@U?$_Tree_simple_types@U?$pair@QAVUnitInterface@BWAPI@@PAVBase@UAlbertaBot@@@std@@@std@@@std@@QAEPAU?$_Tree_node@U?$pair@QAVUnitInterface@BWAPI@@PAVBase@UAlbertaBot@@@std@@PAX@2@V?$_Tree_unchecked_const_iterator@V?$_Tree_val@U?$_Tree_simple_types@U?$pair@QAVUnitInterface@BWAPI@@PAVBase@UAlbertaBot@@@std@@@std@@@std@@U_Iterator_base0@2@@2@@Z 1002ea90 f i Bases.obj
 0001:0002dea0       ??$_Pop_heap_hole_by_index@PAPAVBase@UAlbertaBot@@PAV12@P6A_NPBV12@0@Z@std@@YAXPAPAVBase@UAlbertaBot@@HH$$QAPAV12@P6A_NPBV12@2@Z@Z 1002eea0 f i Bases.obj
 0001:0002df50       ??$_Guess_median_unchecked@PAPAVBase@UAlbertaBot@@P6A_NPBV12@0@Z@std@@YAXPAPAVBase@UAlbertaBot@@00P6A_NPBV12@1@Z@Z 1002ef50 f i Bases.obj
 0001:0002e150       ??1?$_Alloc_construct_ptr@V?$allocator@U?$_Tree_node@U?$pair@$$CBHI@std@@PAX@std@@@std@@@std@@QAE@XZ 1002f150 f i GridZone.obj
 0001:0002e150       ??1?$_Alloc_construct_ptr@V?$allocator@U?$_Tree_node@U?$pair@$$CBVTechType@BWAPI@@H@std@@PAX@std@@@std@@@std@@QAE@XZ 1002f150 f i SkillOpeningTiming.obj
 0001:0002e150       ??1?$_Alloc_construct_ptr@V?$allocator@U?$_Tree_node@U?$pair@$$CBVUnitType@BWAPI@@H@std@@PAX@std@@@std@@@std@@QAE@XZ 1002f150 f i BOSimulator.obj
 0001:0002e150       ??1?$_Alloc_construct_ptr@V?$allocator@U?$_Tree_node@U?$pair@$$CBVUpgradeType@BWAPI@@H@std@@PAX@std@@@std@@@std@@QAE@XZ 1002f150 f i SkillOpeningTiming.obj
 0001:0002e150       ??1?$_Alloc_construct_ptr@V?$allocator@U?$_Tree_node@U?$pair@QAVUnitInterface@BWAPI@@H@std@@PAX@std@@@std@@@std@@QAE@XZ 1002f150 f i WorkerData.obj
 0001:0002e150       ??1?$_Alloc_construct_ptr@V?$allocator@U?$_Tree_node@U?$pair@QAVUnitInterface@BWAPI@@PAV12@@std@@PAX@std@@@std@@@std@@QAE@XZ 1002f150 f i MicroMutas.obj
 0001:0002e150       ??1?$_Alloc_construct_ptr@V?$allocator@U?$_Tree_node@U?$pair@QAVUnitInterface@BWAPI@@PAVBase@UAlbertaBot@@@std@@PAX@std@@@std@@@std@@QAE@XZ 1002f150 f i Bases.obj
 0001:0002e150       ??1?$_Alloc_construct_ptr@V?$allocator@U?$_Tree_node@U?$pair@QAVUnitInterface@BWAPI@@W4WorkerJob@WorkerData@UAlbertaBot@@@std@@PAX@std@@@std@@@std@@QAE@XZ 1002f150 f i WorkerData.obj
 0001:0002e150       ??1?$_Alloc_construct_ptr@V?$allocator@U?$_Tree_node@U?$pair@QAVUnitInterface@BWAPI@@_N@std@@PAX@std@@@std@@@std@@QAE@XZ 1002f150 f i Squad.obj
 0001:0002e150       ??1?$_Alloc_construct_ptr@V?$allocator@U?$_Tree_node@V?$Point@H$0CA@@BWAPI@@PAX@std@@@std@@@std@@QAE@XZ 1002f150 f i MicroOverlords.obj
 0001:0002e150       ??1?$_Tree_temp_node@V?$allocator@U?$_Tree_node@U?$pair@$$CBVUnitType@BWAPI@@H@std@@PAX@std@@@std@@@std@@QAE@XZ 1002f150 f i BOSimulator.obj
 0001:0002e150       ??1?$_Tree_temp_node_alloc@V?$allocator@U?$_Tree_node@U?$pair@$$CBVUnitType@BWAPI@@H@std@@PAX@std@@@std@@@std@@QAE@XZ 1002f150 f i BOSimulator.obj
 0001:0002e170       ??1_Reallocation_guard@?$vector@VUnitset@BWAPI@@V?$allocator@VUnitset@BWAPI@@@std@@@std@@QAE@XZ 1002f170 f i Bases.obj
 0001:0002e1e0       ??1?$_Uninitialized_backout_al@V?$allocator@VUnitset@BWAPI@@@std@@@std@@QAE@XZ 1002f1e0 f i Bases.obj
 0001:0002e210       ??A?$map@VTechType@BWAPI@@HU?$less@VTechType@BWAPI@@@std@@V?$allocator@U?$pair@$$CBVTechType@BWAPI@@H@std@@@4@@std@@QAEAAH$$QAVTechType@BWAPI@@@Z 1002f210 f i SkillOpeningTiming.obj
 0001:0002e210       ??A?$map@VUnitType@BWAPI@@HU?$less@VUnitType@BWAPI@@@std@@V?$allocator@U?$pair@$$CBVUnitType@BWAPI@@H@std@@@4@@std@@QAEAAH$$QAVUnitType@BWAPI@@@Z 1002f210 f i CombatSimulation.obj
 0001:0002e210       ??A?$map@VUnitType@BWAPI@@HU?$less@VUnitType@BWAPI@@@std@@V?$allocator@U?$pair@$$CBVUnitType@BWAPI@@H@std@@@4@@std@@QAEAAHABVUnitType@BWAPI@@@Z 1002f210 f i BOSimulator.obj
 0001:0002e210       ??A?$map@VUpgradeType@BWAPI@@HU?$less@VUpgradeType@BWAPI@@@std@@V?$allocator@U?$pair@$$CBVUpgradeType@BWAPI@@H@std@@@4@@std@@QAEAAH$$QAVUpgradeType@BWAPI@@@Z 1002f210 f i SkillOpeningTiming.obj
 0001:0002e2d0       ??0?$map@VUnitType@BWAPI@@HU?$less@VUnitType@BWAPI@@@std@@V?$allocator@U?$pair@$$CBVUnitType@BWAPI@@H@std@@@4@@std@@QAE@XZ 1002f2d0 f i BOSimulator.obj
 0001:0002e310       ??$_Find_lower_bound@H@?$_Tree@V?$_Tmap_traits@HV?$vector@HV?$allocator@H@std@@@std@@U?$less@H@2@V?$allocator@U?$pair@$$CBHV?$vector@HV?$allocator@H@std@@@std@@@std@@@2@$0A@@std@@@std@@IBE?AU?$_Tree_find_result@PAU?$_Tree_node@U?$pair@$$CBHV?$vector@HV?$allocator@H@std@@@std@@@std@@PAX@std@@@1@ABH@Z 1002f310 f i GameRecord.obj
 0001:0002e310       ??$_Find_lower_bound@VTechType@BWAPI@@@?$_Tree@V?$_Tmap_traits@VTechType@BWAPI@@HU?$less@VTechType@BWAPI@@@std@@V?$allocator@U?$pair@$$CBVTechType@BWAPI@@H@std@@@4@$0A@@std@@@std@@IBE?AU?$_Tree_find_result@PAU?$_Tree_node@U?$pair@$$CBVTechType@BWAPI@@H@std@@PAX@std@@@1@ABVTechType@BWAPI@@@Z 1002f310 f i SkillOpeningTiming.obj
 0001:0002e310       ??$_Find_lower_bound@VTechType@BWAPI@@@?$_Tree@V?$_Tset_traits@VTechType@BWAPI@@U?$less@VTechType@BWAPI@@@std@@V?$allocator@VTechType@BWAPI@@@4@$0A@@std@@@std@@IBE?AU?$_Tree_find_result@PAU?$_Tree_node@VTechType@BWAPI@@PAX@std@@@1@ABVTechType@BWAPI@@@Z 1002f310 f i SkillOpeningTiming.obj
 0001:0002e310       ??$_Find_lower_bound@VUnitType@BWAPI@@@?$_Tree@V?$_Tmap_traits@VUnitType@BWAPI@@HU?$less@VUnitType@BWAPI@@@std@@V?$allocator@U?$pair@$$CBVUnitType@BWAPI@@H@std@@@4@$0A@@std@@@std@@IBE?AU?$_Tree_find_result@PAU?$_Tree_node@U?$pair@$$CBVUnitType@BWAPI@@H@std@@PAX@std@@@1@ABVUnitType@BWAPI@@@Z 1002f310 f i BOSimulator.obj
 0001:0002e310       ??$_Find_lower_bound@VUnitType@BWAPI@@@?$_Tree@V?$_Tset_traits@VUnitType@BWAPI@@U?$less@VUnitType@BWAPI@@@std@@V?$allocator@VUnitType@BWAPI@@@4@$0A@@std@@@std@@IBE?AU?$_Tree_find_result@PAU?$_Tree_node@VUnitType@BWAPI@@PAX@std@@@1@ABVUnitType@BWAPI@@@Z 1002f310 f i MacroAct.obj
 0001:0002e310       ??$_Find_lower_bound@VUpgradeType@BWAPI@@@?$_Tree@V?$_Tmap_traits@VUpgradeType@BWAPI@@HU?$less@VUpgradeType@BWAPI@@@std@@V?$allocator@U?$pair@$$CBVUpgradeType@BWAPI@@H@std@@@4@$0A@@std@@@std@@IBE?AU?$_Tree_find_result@PAU?$_Tree_node@U?$pair@$$CBVUpgradeType@BWAPI@@H@std@@PAX@std@@@1@ABVUpgradeType@BWAPI@@@Z 1002f310 f i SkillOpeningTiming.obj
 0001:0002e310       ??$_Find_lower_bound@W4Type@TimerManager@UAlbertaBot@@@?$_Tree@V?$_Tmap_traits@W4Type@TimerManager@UAlbertaBot@@UTimer@3@U?$less@W4Type@TimerManager@UAlbertaBot@@@std@@V?$allocator@U?$pair@$$CBW4Type@TimerManager@UAlbertaBot@@UTimer@3@@std@@@6@$0A@@std@@@std@@IBE?AU?$_Tree_find_result@PAU?$_Tree_node@U?$pair@$$CBW4Type@TimerManager@UAlbertaBot@@UTimer@3@@std@@PAX@std@@@1@ABW4Type@TimerManager@UAlbertaBot@@@Z 1002f310 f i TimerManager.obj
 0001:0002e360       ??$_Lower_bound_duplicate@VUnitType@BWAPI@@@?$_Tree@V?$_Tmap_traits@VUnitType@BWAPI@@HU?$less@VUnitType@BWAPI@@@std@@V?$allocator@U?$pair@$$CBVUnitType@BWAPI@@H@std@@@4@$0A@@std@@@std@@IBE_NQAU?$_Tree_node@U?$pair@$$CBVUnitType@BWAPI@@H@std@@PAX@1@ABVUnitType@BWAPI@@@Z 1002f360 f i BOSimulator.obj
 0001:0002e390       ??$?0AAPAU?$_Tree_node@U?$pair@$$CBVUnitType@BWAPI@@H@std@@PAX@std@@_N$0A@@?$pair@PAU?$_Tree_node@U?$pair@$$CBVUnitType@BWAPI@@H@std@@PAX@std@@_N@std@@QAE@AAPAU?$_Tree_node@U?$pair@$$CBVUnitType@BWAPI@@H@std@@PAX@1@$$QA_N@Z 1002f390 f i SkillUnitTimings.obj
 0001:0002e390       ??$?0PAU?$_Tree_node@U?$pair@$$CBVUnitType@BWAPI@@H@std@@PAX@std@@_N$0A@@?$pair@PAU?$_Tree_node@U?$pair@$$CBVUnitType@BWAPI@@H@std@@PAX@std@@_N@std@@QAE@$$QAPAU?$_Tree_node@U?$pair@$$CBVUnitType@BWAPI@@H@std@@PAX@1@$$QA_N@Z 1002f390 f i BOSimulator.obj
 0001:0002e390       ??$?0V?$_Tree_iterator@V?$_Tree_val@U?$_Tree_simple_types@U?$pair@$$CBVUnitType@BWAPI@@H@std@@@std@@@std@@@std@@AB_N$0A@@?$pair@V?$_Tree_iterator@V?$_Tree_val@U?$_Tree_simple_types@U?$pair@$$CBVUnitType@BWAPI@@H@std@@@std@@@std@@@std@@_N@std@@QAE@$$QAV?$_Tree_iterator@V?$_Tree_val@U?$_Tree_simple_types@U?$pair@$$CBVUnitType@BWAPI@@H@std@@@std@@@std@@@1@AB_N@Z 1002f390 f i SkillUnitTimings.obj
 0001:0002e3b0       ?_Release@?$_Alloc_construct_ptr@V?$allocator@U?$_Tree_node@U?$pair@$$CBVUnitType@BWAPI@@H@std@@PAX@std@@@std@@@std@@QAEPAU?$_Tree_node@U?$pair@$$CBVUnitType@BWAPI@@H@std@@PAX@2@XZ 1002f3b0 f i BOSimulator.obj
 0001:0002e3c0       ?_Check_grow_by_1@?$_Tree@V?$_Tmap_traits@VUnitType@BWAPI@@HU?$less@VUnitType@BWAPI@@@std@@V?$allocator@U?$pair@$$CBVUnitType@BWAPI@@H@std@@@4@$0A@@std@@@std@@IAEXXZ 1002f3c0 f i BOSimulator.obj
 0001:0002e3d0       ??$_Construct_in_place@PAU?$_Tree_node@U?$pair@$$CBVUnitType@BWAPI@@H@std@@PAX@std@@AAPAU12@@std@@YAXAAPAU?$_Tree_node@U?$pair@$$CBVUnitType@BWAPI@@H@std@@PAX@0@0@Z 1002f3d0 f i BOSimulator.obj
 0001:0002e3e0       ??0?$_Tree_temp_node_alloc@V?$allocator@U?$_Tree_node@U?$pair@$$CBVUnitType@BWAPI@@H@std@@PAX@std@@@std@@@std@@QAE@AAV?$allocator@U?$_Tree_node@U?$pair@$$CBVUnitType@BWAPI@@H@std@@PAX@std@@@1@@Z 1002f3e0 f i BOSimulator.obj
 0001:0002e440       ??1GameState@BOSS@@QAE@XZ  1002f440 f i BOSSManager.obj
 0001:0002e450       ??1BuildOrder@BOSS@@QAE@XZ 1002f450 f i BOSSManager.obj
 0001:0002e470       ??1BuildOrder@UAlbertaBot@@QAE@XZ 1002f470 f i BOSSManager.obj
 0001:0002e480       ?Instance@BOSSManager@UAlbertaBot@@SAAAV12@XZ 1002f480 f   BOSSManager.obj
 0001:0002e610       ??1DFBB_BuildOrderSearchResults@BOSS@@QAE@XZ 1002f610 f i BOSSManager.obj
 0001:0002e630       ??4DFBB_BuildOrderSearchResults@BOSS@@QAEAAV01@$$QAV01@@Z 1002f630 f i BOSSManager.obj
 0001:0002e690       ??4BuildOrder@BOSS@@QAEAAV01@$$QAV01@@Z 1002f690 f i BOSSManager.obj
 0001:0002e760       ??4GameState@BOSS@@QAEAAV01@$$QAV01@@Z 1002f760 f i BOSSManager.obj
 0001:0002e970       ?startNewSearch@BOSSManager@UAlbertaBot@@QAEXABV?$vector@U?$pair@VMacroAct@UAlbertaBot@@I@std@@V?$allocator@U?$pair@VMacroAct@UAlbertaBot@@I@std@@@2@@std@@@Z 1002f970 f   BOSSManager.obj
 0001:0002edd0       ??1BuildOrderSearchGoal@BOSS@@QAE@XZ 1002fdd0 f i BOSSManager.obj
 0001:0002edf0       ?drawSearchInformation@BOSSManager@UAlbertaBot@@QAEXHH@Z 1002fdf0 f   BOSSManager.obj
 0001:0002f020       ?update@BOSSManager@UAlbertaBot@@QAEXN@Z 10030020 f   BOSSManager.obj
 0001:0002f980       ??4DFBB_BuildOrderSearchResults@BOSS@@QAEAAV01@ABV01@@Z 10030980 f i BOSSManager.obj
 0001:0002fa00       ??4GameState@BOSS@@QAEAAV01@ABV01@@Z 10030a00 f i BOSSManager.obj
 0001:0002fbf0       ??1NaiveBuildOrderSearch@BOSS@@QAE@XZ 10030bf0 f i BOSSManager.obj
 0001:0002fc30       ?GetGoal@BOSSManager@UAlbertaBot@@SA?AVBuildOrderSearchGoal@BOSS@@ABV?$vector@U?$pair@VMacroAct@UAlbertaBot@@I@std@@V?$allocator@U?$pair@VMacroAct@UAlbertaBot@@I@std@@@2@@std@@@Z 10030c30 f   BOSSManager.obj
 0001:0002fe20       ?GetMacroAct@BOSSManager@UAlbertaBot@@SA?AVMacroAct@2@ABVActionType@BOSS@@@Z 10030e20 f   BOSSManager.obj
 0001:0002ff30       ??1?$vector@V?$vector@VMacroAct@UAlbertaBot@@V?$allocator@VMacroAct@UAlbertaBot@@@std@@@std@@V?$allocator@V?$vector@VMacroAct@UAlbertaBot@@V?$allocator@VMacroAct@UAlbertaBot@@@std@@@std@@@2@@std@@QAE@XZ 10030f30 f i BOSSManager.obj
 0001:0002ffc0       ??1?$shared_ptr@VDFBB_BuildOrderSmartSearch@BOSS@@@std@@QAE@XZ 10030fc0 f i BOSSManager.obj
 0001:0002fff0       ??1?$vector@U?$pair@VMacroAct@UAlbertaBot@@I@std@@V?$allocator@U?$pair@VMacroAct@UAlbertaBot@@I@std@@@2@@std@@QAE@XZ 10030ff0 f i BOSSManager.obj
 0001:0002fff0       ??1?$vector@UUnitInfo@UAlbertaBot@@V?$allocator@UUnitInfo@UAlbertaBot@@@std@@@std@@QAE@XZ 10030ff0 f i CombatSimulation.obj
 0001:00030070       ??1?$vector@VMacroAct@UAlbertaBot@@V?$allocator@VMacroAct@UAlbertaBot@@@std@@@std@@QAE@XZ 10031070 f i BOSSManager.obj
 0001:00030080       ??1?$vector@VActionPerformed@BOSS@@V?$allocator@VActionPerformed@BOSS@@@std@@@std@@QAE@XZ 10031080 f i BOSSManager.obj
 0001:00030090       ??4?$basic_string@DU?$char_traits@D@std@@V?$allocator@D@2@@std@@QAEAAV01@$$QAV01@@Z 10031090 f i BOSSManager.obj
 0001:000300d0       ??$_Assign_counted_range@PAU?$pair@VMacroAct@UAlbertaBot@@I@std@@@?$vector@U?$pair@VMacroAct@UAlbertaBot@@I@std@@V?$allocator@U?$pair@VMacroAct@UAlbertaBot@@I@std@@@2@@std@@AAEXPAU?$pair@VMacroAct@UAlbertaBot@@I@1@I@Z 100310d0 f i BOSSManager.obj
 0001:000302a0       ??$_Assign_counted_range@PAH@?$vector@HV?$allocator@H@std@@@std@@AAEXPAHI@Z 100312a0 f i GameRecord.obj
 0001:000302a0       ??$_Assign_counted_range@PAI@?$vector@IV?$allocator@I@std@@@std@@AAEXPAII@Z 100312a0 f i BOSSManager.obj
 0001:000303e0       ??$_Assign_counted_range@PAVActionPerformed@BOSS@@@?$vector@VActionPerformed@BOSS@@V?$allocator@VActionPerformed@BOSS@@@std@@@std@@AAEXPAVActionPerformed@BOSS@@I@Z 100313e0 f i BOSSManager.obj
 0001:000305b0       ??$_Assign_counted_range@PAVActionType@BOSS@@@?$vector@VActionType@BOSS@@V?$allocator@VActionType@BOSS@@@std@@@std@@AAEXPAVActionType@BOSS@@I@Z 100315b0 f i BOSSManager.obj
 0001:00030710       ?_Delete_this@?$_Ref_count@VDFBB_BuildOrderSmartSearch@BOSS@@@std@@EAEXXZ 10031710 f i BOSSManager.obj
 0001:00030720       ?_Destroy@?$_Ref_count@VDFBB_BuildOrderSmartSearch@BOSS@@@std@@EAEXXZ 10031720 f i BOSSManager.obj
 0001:00030730       ??1?$_Temporary_owner@VDFBB_BuildOrderSmartSearch@BOSS@@@std@@QAE@XZ 10031730 f i BOSSManager.obj
 0001:00030740       ?_Tidy@?$vector@VMacroAct@UAlbertaBot@@V?$allocator@VMacroAct@UAlbertaBot@@@std@@@std@@AAEXXZ 10031740 f i BOSSManager.obj
 0001:000307b0       ?_Tidy@?$vector@VActionPerformed@BOSS@@V?$allocator@VActionPerformed@BOSS@@@std@@@std@@AAEXXZ 100317b0 f i BOSSManager.obj
 0001:00030810       ?append@?$basic_string@DU?$char_traits@D@std@@V?$allocator@D@2@@std@@QAEAAV12@QBDI@Z 10031810 f i BOSSManager.obj
 0001:00030980       ??_GDFBB_BuildOrderSmartSearch@BOSS@@QAEPAXI@Z 10031980 f i BOSSManager.obj
 0001:00030a10       ??_E?$_Ref_count@VDFBB_BuildOrderSmartSearch@BOSS@@@std@@UAEPAXI@Z 10031a10 f i * CIL library *:* CIL module *
 0001:00030a10       ??_G?$_Ref_count@VDFBB_BuildOrderSmartSearch@BOSS@@@std@@UAEPAXI@Z 10031a10 f i BOSSManager.obj
 0001:00030a30       ??1DFBB_BuildOrderSearchParameters@BOSS@@QAE@XZ 10031a30 f i BOSSManager.obj
 0001:00030a60       ??1DFBB_BuildOrderStackSearch@BOSS@@QAE@XZ 10031a60 f i BOSSManager.obj
 0001:00030ad0       ??$_Emplace_reallocate@ABVMacroAct@UAlbertaBot@@@?$vector@VMacroAct@UAlbertaBot@@V?$allocator@VMacroAct@UAlbertaBot@@@std@@@std@@AAEPAVMacroAct@UAlbertaBot@@QAV23@ABV23@@Z 10031ad0 f i BuildOrder.obj
 0001:00030ad0       ??$_Emplace_reallocate@VMacroAct@UAlbertaBot@@@?$vector@VMacroAct@UAlbertaBot@@V?$allocator@VMacroAct@UAlbertaBot@@@std@@@std@@AAEPAVMacroAct@UAlbertaBot@@QAV23@$$QAV23@@Z 10031ad0 f i BOSSManager.obj
 0001:00030c40       ?_Change_array@?$vector@VMacroAct@UAlbertaBot@@V?$allocator@VMacroAct@UAlbertaBot@@@std@@@std@@AAEXQAVMacroAct@UAlbertaBot@@II@Z 10031c40 f i BOSSManager.obj
 0001:00030cc0       ?_Tidy@?$vector@VStackData@BOSS@@V?$allocator@VStackData@BOSS@@@std@@@std@@AAEXXZ 10031cc0 f i BOSSManager.obj
 0001:00030d60       ?_Buy_raw@?$vector@VActionPerformed@BOSS@@V?$allocator@VActionPerformed@BOSS@@@std@@@std@@AAEXI@Z 10031d60 f i BOSSManager.obj
 0001:00030df0       ?_Buy_raw@?$vector@GV?$allocator@G@std@@@std@@AAEXI@Z 10031df0 f i MapPartitions.obj
 0001:00030df0       ?_Buy_raw@?$vector@VActionType@BOSS@@V?$allocator@VActionType@BOSS@@@std@@@std@@AAEXI@Z 10031df0 f i BOSSManager.obj
 0001:00030e80       ??$_Allocate_at_least_helper@V?$allocator@U?$pair@VMacroAct@UAlbertaBot@@I@std@@@std@@@std@@YAPAU?$pair@VMacroAct@UAlbertaBot@@I@0@AAV?$allocator@U?$pair@VMacroAct@UAlbertaBot@@I@std@@@0@AAI@Z 10031e80 f i BOSSManager.obj
 0001:00030ee0       ??1StackData@BOSS@@QAE@XZ  10031ee0 f i BOSSManager.obj
 0001:00030ef0       ??1?$pair@W4LurkerTactic@UAlbertaBot@@V?$basic_string@DU?$char_traits@D@std@@V?$allocator@D@2@@std@@@std@@QAE@XZ 10031ef0 f i CombatCommander.obj
 0001:00030ef0       ??1?$pair@W4OpeningPlan@UAlbertaBot@@V?$basic_string@DU?$char_traits@D@std@@V?$allocator@D@2@@std@@@std@@QAE@XZ 10031ef0 f i BuildingManager.obj
 0001:00030ef0       ??1GridTask@UAlbertaBot@@QAE@XZ 10031ef0 f i GridTasks.obj
 0001:00030ef0       ??1Skill@UAlbertaBot@@QAE@XZ 10031ef0 f i SkillBattles.obj
 0001:00030f00       ?update@BuildingManager@UAlbertaBot@@QAEXXZ 10031f00 f   BuildingManager.obj
 0001:000311f0       ?validateBuildings@BuildingManager@UAlbertaBot@@AAEXXZ 100321f0 f   BuildingManager.obj
 0001:00031360       ?assignWorkersToUnassignedBuildings@BuildingManager@UAlbertaBot@@AAEXXZ 10032360 f   BuildingManager.obj
 0001:000315d0       ?constructAssignedBuildings@BuildingManager@UAlbertaBot@@AAEXXZ 100325d0 f   BuildingManager.obj
 0001:00031ed0       ?checkForStartedConstruction@BuildingManager@UAlbertaBot@@AAEXXZ 10032ed0 f   BuildingManager.obj
 0001:00032050       ?checkForCompletedBuildings@BuildingManager@UAlbertaBot@@AAEXXZ 10033050 f   BuildingManager.obj
 0001:000322a0       ?addTrackedBuildingTask@BuildingManager@UAlbertaBot@@QAEAAVBuilding@2@ABVMacroAct@2@V?$Point@H$0CA@@BWAPI@@PAVUnitInterface@6@_N@Z 100332a0 f   BuildingManager.obj
 0001:00032460       ?validBuilder@BuildingManager@UAlbertaBot@@ABE_NPAVUnitInterface@BWAPI@@@Z 10033460 f   BuildingManager.obj
 0001:00032500       ?drawBuildingInformation@BuildingManager@UAlbertaBot@@QAEXHH@Z 10033500 f   BuildingManager.obj
 0001:00032ad0       ?Instance@BuildingManager@UAlbertaBot@@SAAAV12@XZ 10033ad0 f   BuildingManager.obj
 0001:00032b40       ?buildingsQueued@BuildingManager@UAlbertaBot@@QAE?AV?$vector@VUnitType@BWAPI@@V?$allocator@VUnitType@BWAPI@@@std@@@std@@XZ 10033b40 f   BuildingManager.obj
 0001:00032bf0       ?cancelBuilding@BuildingManager@UAlbertaBot@@QAEXAAVBuilding@2@@Z 10033bf0 f   BuildingManager.obj
 0001:00032d50       ?cancelQueuedBuildings@BuildingManager@UAlbertaBot@@QAEXXZ 10033d50 f   BuildingManager.obj
 0001:00032e50       ?cancelBuildingType@BuildingManager@UAlbertaBot@@QAEXVUnitType@BWAPI@@@Z 10033e50 f   BuildingManager.obj
 0001:00032f40       ?getBuildingLocation@BuildingManager@UAlbertaBot@@QAE?AV?$Point@H$0CA@@BWAPI@@ABVBuilding@2@@Z 10033f40 f   BuildingManager.obj
 0001:00033270       ?undoBuildings@BuildingManager@UAlbertaBot@@AAEXABV?$vector@V?$reference_wrapper@VBuilding@UAlbertaBot@@@std@@V?$allocator@V?$reference_wrapper@VBuilding@UAlbertaBot@@@std@@@2@@std@@@Z 10034270 f   BuildingManager.obj
 0001:000334c0       ?removeBuildings@BuildingManager@UAlbertaBot@@AAEXABV?$vector@V?$reference_wrapper@VBuilding@UAlbertaBot@@@std@@V?$allocator@V?$reference_wrapper@VBuilding@UAlbertaBot@@@std@@@2@@std@@@Z 100344c0 f   BuildingManager.obj
 0001:00033540       ??0?$vector@U?$pair@W4LurkerTactic@UAlbertaBot@@V?$basic_string@DU?$char_traits@D@std@@V?$allocator@D@2@@std@@@std@@V?$allocator@U?$pair@W4LurkerTactic@UAlbertaBot@@V?$basic_string@DU?$char_traits@D@std@@V?$allocator@D@2@@std@@@std@@@2@@std@@QAE@V?$initializer_list@U?$pair@W4LurkerTactic@UAlbertaBot@@V?$basic_string@DU?$char_traits@D@std@@V?$allocator@D@2@@std@@@std@@@1@ABV?$allocator@U?$pair@W4LurkerTactic@UAlbertaBot@@V?$basic_string@DU?$char_traits@D@std@@V?$allocator@D@2@@std@@@std@@@1@@Z 10034540 f i CombatCommander.obj
 0001:00033540       ??0?$vector@U?$pair@W4OpeningPlan@UAlbertaBot@@V?$basic_string@DU?$char_traits@D@std@@V?$allocator@D@2@@std@@@std@@V?$allocator@U?$pair@W4OpeningPlan@UAlbertaBot@@V?$basic_string@DU?$char_traits@D@std@@V?$allocator@D@2@@std@@@std@@@2@@std@@QAE@V?$initializer_list@U?$pair@W4OpeningPlan@UAlbertaBot@@V?$basic_string@DU?$char_traits@D@std@@V?$allocator@D@2@@std@@@std@@@1@ABV?$allocator@U?$pair@W4OpeningPlan@UAlbertaBot@@V?$basic_string@DU?$char_traits@D@std@@V?$allocator@D@2@@std@@@std@@@1@@Z 10034540 f i BuildingManager.obj
 0001:00033680       ??1?$vector@VBuilding@UAlbertaBot@@V?$allocator@VBuilding@UAlbertaBot@@@std@@@std@@QAE@XZ 10034680 f i BuildingManager.obj
 0001:000336f0       ??0?$basic_string@DU?$char_traits@D@std@@V?$allocator@D@2@@std@@QAE@ABV01@@Z 100346f0 f i BuildingManager.obj
 0001:000337a0       ?_Tidy@?$vector@U?$pair@W4LurkerTactic@UAlbertaBot@@V?$basic_string@DU?$char_traits@D@std@@V?$allocator@D@2@@std@@@std@@V?$allocator@U?$pair@W4LurkerTactic@UAlbertaBot@@V?$basic_string@DU?$char_traits@D@std@@V?$allocator@D@2@@std@@@std@@@2@@std@@AAEXXZ 100347a0 f i CombatCommander.obj
 0001:000337a0       ?_Tidy@?$vector@U?$pair@W4OpeningPlan@UAlbertaBot@@V?$basic_string@DU?$char_traits@D@std@@V?$allocator@D@2@@std@@@std@@V?$allocator@U?$pair@W4OpeningPlan@UAlbertaBot@@V?$basic_string@DU?$char_traits@D@std@@V?$allocator@D@2@@std@@@std@@@2@@std@@AAEXXZ 100347a0 f i BuildingManager.obj
 0001:00033840       ??$_Emplace_reallocate@ABVBuilding@UAlbertaBot@@@?$vector@VBuilding@UAlbertaBot@@V?$allocator@VBuilding@UAlbertaBot@@@std@@@std@@AAEPAVBuilding@UAlbertaBot@@QAV23@ABV23@@Z 10034840 f i BuildingManager.obj
 0001:00033a10       ??1?$_Tidy_guard@V?$vector@U?$pair@W4LurkerTactic@UAlbertaBot@@V?$basic_string@DU?$char_traits@D@std@@V?$allocator@D@2@@std@@@std@@V?$allocator@U?$pair@W4LurkerTactic@UAlbertaBot@@V?$basic_string@DU?$char_traits@D@std@@V?$allocator@D@2@@std@@@std@@@2@@std@@@std@@QAE@XZ 10034a10 f i CombatCommander.obj
 0001:00033a10       ??1?$_Tidy_guard@V?$vector@U?$pair@W4OpeningPlan@UAlbertaBot@@V?$basic_string@DU?$char_traits@D@std@@V?$allocator@D@2@@std@@@std@@V?$allocator@U?$pair@W4OpeningPlan@UAlbertaBot@@V?$basic_string@DU?$char_traits@D@std@@V?$allocator@D@2@@std@@@std@@@2@@std@@@std@@QAE@XZ 10034a10 f i BuildingManager.obj
 0001:00033a20       ??1?$_Uninitialized_backout_al@V?$allocator@U?$pair@W4LurkerTactic@UAlbertaBot@@V?$basic_string@DU?$char_traits@D@std@@V?$allocator@D@2@@std@@@std@@@std@@@std@@QAE@XZ 10034a20 f i CombatCommander.obj
 0001:00033a20       ??1?$_Uninitialized_backout_al@V?$allocator@U?$pair@W4OpeningPlan@UAlbertaBot@@V?$basic_string@DU?$char_traits@D@std@@V?$allocator@D@2@@std@@@std@@@std@@@std@@QAE@XZ 10034a20 f i BuildingManager.obj
 0001:00033a50       ?reserveSpaceNearResources@BuildingPlacer@UAlbertaBot@@AAEXXZ 10034a50 f   BuildingPlacer.obj
 0001:00033c20       ?setReserve@BuildingPlacer@UAlbertaBot@@AAEXABV?$Point@H$0CA@@BWAPI@@HH_N@Z 10034c20 f   BuildingPlacer.obj
 0001:00033ce0       ?isFreeTile@BuildingPlacer@UAlbertaBot@@ABE_NHH@Z 10034ce0 f   BuildingPlacer.obj
 0001:00033e90       ?freeOnTop@BuildingPlacer@UAlbertaBot@@ABE_NABV?$Point@H$0CA@@BWAPI@@VUnitType@4@@Z 10034e90 f   BuildingPlacer.obj
 0001:00033f10       ?freeOnRight@BuildingPlacer@UAlbertaBot@@ABE_NABV?$Point@H$0CA@@BWAPI@@VUnitType@4@@Z 10034f10 f   BuildingPlacer.obj
 0001:00033fb0       ?freeOnLeft@BuildingPlacer@UAlbertaBot@@ABE_NABV?$Point@H$0CA@@BWAPI@@VUnitType@4@@Z 10034fb0 f   BuildingPlacer.obj
 0001:00034030       ?freeOnBottom@BuildingPlacer@UAlbertaBot@@ABE_NABV?$Point@H$0CA@@BWAPI@@VUnitType@4@@Z 10035030 f   BuildingPlacer.obj
 0001:000340d0       ?freeOnAllSides@BuildingPlacer@UAlbertaBot@@ABE_NPAVUnitInterface@BWAPI@@@Z 100350d0 f   BuildingPlacer.obj
 0001:00034190       ?canBuildHere@BuildingPlacer@UAlbertaBot@@ABE_NABV?$Point@H$0CA@@BWAPI@@ABVBuilding@2@@Z 10035190 f   BuildingPlacer.obj
 0001:00034280       ?canBuildWithSpace@BuildingPlacer@UAlbertaBot@@ABE_NABV?$Point@H$0CA@@BWAPI@@ABVBuilding@2@H@Z 10035280 f   BuildingPlacer.obj
 0001:000343e0       ?findEdgeLocation@BuildingPlacer@UAlbertaBot@@ABE?AV?$Point@H$0CA@@BWAPI@@ABVBuilding@2@@Z 100353e0 f   BuildingPlacer.obj
 0001:000347f0       ?findGroupedLocation@BuildingPlacer@UAlbertaBot@@ABE?AV?$Point@H$0CA@@BWAPI@@ABVBuilding@2@@Z 100357f0 f   BuildingPlacer.obj
 0001:00034d10       ?findAnyLocation@BuildingPlacer@UAlbertaBot@@ABE?AV?$Point@H$0CA@@BWAPI@@ABVBuilding@2@H@Z 10035d10 f   BuildingPlacer.obj
 0001:00034dc0       ?getBuildLocationNear@BuildingPlacer@UAlbertaBot@@QBE?AV?$Point@H$0CA@@BWAPI@@ABVBuilding@2@H@Z 10035dc0 f   BuildingPlacer.obj
 0001:00035020       ?getMacroLocationTile@BuildingPlacer@UAlbertaBot@@QBE?AV?$Point@H$0CA@@BWAPI@@W4MacroLocation@2@@Z 10036020 f   BuildingPlacer.obj
 0001:000354b0       ?getRefineryPosition@BuildingPlacer@UAlbertaBot@@QBE?AV?$Point@H$0CA@@BWAPI@@XZ 100364b0 f   BuildingPlacer.obj
 0001:00035740       ?getInBaseProxyPosition@BuildingPlacer@UAlbertaBot@@QBE?AV?$Point@H$0CA@@BWAPI@@PBVBase@2@@Z 10036740 f   BuildingPlacer.obj
 0001:000359d0       ?getAntiBunkerSunkenPosition@BuildingPlacer@UAlbertaBot@@QBE?AV?$Point@H$0CA@@BWAPI@@PBVBase@2@PAVUnitInterface@4@@Z 100369d0 f   BuildingPlacer.obj
 0001:00035b40       ?getAntiCannonSunkenPosition@BuildingPlacer@UAlbertaBot@@QBE?AV?$Point@H$0CA@@BWAPI@@PBVBase@2@PAVUnitInterface@4@@Z 10036b40 f   BuildingPlacer.obj
 0001:00036220       ??$?0V?$allocator@V?$vector@_NV?$allocator@_N@std@@@std@@@std@@$0A@@?$vector@V?$vector@_NV?$allocator@_N@std@@@std@@V?$allocator@V?$vector@_NV?$allocator@_N@std@@@std@@@2@@std@@QAE@IABV?$vector@_NV?$allocator@_N@std@@@1@ABV?$allocator@V?$vector@_NV?$allocator@_N@std@@@std@@@1@@Z 10037220 f i BuildingPlacer.obj
 0001:00036330       ??$?WV?$UnaryFilter@PAVUnitInterface@BWAPI@@V?$function@$$A6A_NPAVUnitInterface@BWAPI@@@Z@std@@@BWAPI@@@?$UnaryFilter@PAVUnitInterface@BWAPI@@V?$function@$$A6A_NPAVUnitInterface@BWAPI@@@Z@std@@@BWAPI@@QBE?AV01@ABV01@@Z 10037330 f i BuildingPlacer.obj
 0001:00036420       ??0?$vector@_NV?$allocator@_N@std@@@std@@QAE@IAB_NABV?$allocator@_N@1@@Z 10037420 f i BuildingPlacer.obj
 0001:00036500       ??1?$_Tidy_guard@V?$vector@V?$vector@_NV?$allocator@_N@std@@@std@@V?$allocator@V?$vector@_NV?$allocator@_N@std@@@std@@@2@@std@@@std@@QAE@XZ 10037500 f i BuildingPlacer.obj
 0001:00036510       ?_Xlen@?$vector@_NV?$allocator@_N@std@@@std@@SAXXZ 10037510 f i BuildingPlacer.obj
 0001:00036520       ??1?$_Uninitialized_backout_al@V?$allocator@V?$vector@_NV?$allocator@_N@std@@@std@@@std@@@std@@QAE@XZ 10037520 f i BuildingPlacer.obj
 0001:00036550       ??$_Uninitialized_fill_n@V?$allocator@I@std@@@std@@YAPAIPAIIABIAAV?$allocator@I@0@@Z 10037550 f i BuildingPlacer.obj
 0001:000365b0       ?_Target_type@?$_Func_impl_no_alloc@V<lambda_a75142be93029274f5333ecd96084427>@@_NPAVUnitInterface@BWAPI@@@std@@EBEABVtype_info@@XZ 100375b0 f i BuildingPlacer.obj
 0001:000365c0       ?_Do_call@?$_Func_impl_no_alloc@V<lambda_a75142be93029274f5333ecd96084427>@@_NPAVUnitInterface@BWAPI@@@std@@EAE_N$$QAPAVUnitInterface@BWAPI@@@Z 100375c0 f i BuildingPlacer.obj
 0001:00036620       ?_Copy@?$_Func_impl_no_alloc@V<lambda_a75142be93029274f5333ecd96084427>@@_NPAVUnitInterface@BWAPI@@@std@@EBEPAV?$_Func_base@_NPAVUnitInterface@BWAPI@@@2@PAX@Z 10037620 f i BuildingPlacer.obj
 0001:000366b0       ??0?$vector@IV?$allocator@I@std@@@std@@QAE@ABV01@@Z 100376b0 f i BuildingPlacer.obj
 0001:00036720       ??0?$vector@VMacroAct@UAlbertaBot@@V?$allocator@VMacroAct@UAlbertaBot@@@std@@@std@@QAE@ABV01@@Z 10037720 f i BuildOrder.obj
 0001:000367b0       ?_Buy_raw@?$vector@VMacroAct@UAlbertaBot@@V?$allocator@VMacroAct@UAlbertaBot@@@std@@@std@@AAEXI@Z 100377b0 f i BuildOrder.obj
 0001:00036840       ?queueAsHighestPriority@BuildOrderQueue@UAlbertaBot@@QAEXVMacroAct@2@_N@Z 10037840 f   BuildOrderQueue.obj
 0001:000368f0       ?queueAfterSpore@BuildOrderQueue@UAlbertaBot@@QAEXVMacroAct@2@@Z 100378f0 f   BuildOrderQueue.obj
 0001:000369d0       ?queueAsLowestPriority@BuildOrderQueue@UAlbertaBot@@QAEXVMacroAct@2@@Z 100379d0 f   BuildOrderQueue.obj
 0001:00036a90       ?pullToTop@BuildOrderQueue@UAlbertaBot@@QAEXI@Z 10037a90 f   BuildOrderQueue.obj
 0001:00036b50       ?getNextUnit@BuildOrderQueue@UAlbertaBot@@QBE?AVUnitType@BWAPI@@XZ 10037b50 f   BuildOrderQueue.obj
 0001:00036bb0       ?getNextGasCost@BuildOrderQueue@UAlbertaBot@@QBEHH@Z 10037bb0 f   BuildOrderQueue.obj
 0001:00036c10       ?anyInNextN@BuildOrderQueue@UAlbertaBot@@QBE_NVUnitType@BWAPI@@H@Z 10037c10 f   BuildOrderQueue.obj
 0001:00036c70       ?totalCosts@BuildOrderQueue@UAlbertaBot@@QBEXAAH0@Z 10037c70 f   BuildOrderQueue.obj
 0001:00036ce0       ?drawQueueInformation@BuildOrderQueue@UAlbertaBot@@QAEXHH_N@Z 10037ce0 f   BuildOrderQueue.obj
 0001:00037080       ??_D?$basic_stringstream@DU?$char_traits@D@std@@V?$allocator@D@2@@std@@QAEXXZ 10038080 f i BuildOrderQueue.obj
 0001:000370d0       ??$?6U?$char_traits@D@std@@@std@@YAAAV?$basic_ostream@DU?$char_traits@D@std@@@0@AAV10@D@Z 100380d0 f i BuildOrderQueue.obj
 0001:00037290       ??$?6U?$char_traits@D@std@@@std@@YAAAV?$basic_ostream@DU?$char_traits@D@std@@@0@AAV10@PBD@Z 10038290 f i BuildOrderQueue.obj
 0001:00037470       ?str@?$basic_stringstream@DU?$char_traits@D@std@@V?$allocator@D@2@@std@@QBE?AV?$basic_string@DU?$char_traits@D@std@@V?$allocator@D@2@@2@XZ 10038470 f i BuildOrderQueue.obj
 0001:00037550       ??0?$basic_stringstream@DU?$char_traits@D@std@@V?$allocator@D@2@@std@@QAE@XZ 10038550 f i BuildOrderQueue.obj
 0001:00037610       ?seekpos@?$basic_stringbuf@DU?$char_traits@D@std@@V?$allocator@D@2@@std@@MAE?AV?$fpos@U_Mbstatet@@@2@V32@H@Z 10038610 f i BuildOrderQueue.obj
 0001:00037750       ?seekoff@?$basic_stringbuf@DU?$char_traits@D@std@@V?$allocator@D@2@@std@@MAE?AV?$fpos@U_Mbstatet@@@2@_JHH@Z 10038750 f i BuildOrderQueue.obj
 0001:00037920       ?underflow@?$basic_stringbuf@DU?$char_traits@D@std@@V?$allocator@D@2@@std@@MAEHXZ 10038920 f i BuildOrderQueue.obj
 0001:00037990       ?pbackfail@?$basic_stringbuf@DU?$char_traits@D@std@@V?$allocator@D@2@@std@@MAEHH@Z 10038990 f i BuildOrderQueue.obj
 0001:000379f0       ?overflow@?$basic_stringbuf@DU?$char_traits@D@std@@V?$allocator@D@2@@std@@MAEHH@Z 100389f0 f i BuildOrderQueue.obj
 0001:00037be0       ??1?$basic_stringbuf@DU?$char_traits@D@std@@V?$allocator@D@2@@std@@UAE@XZ 10038be0 f i BuildOrderQueue.obj
 0001:00037c00       ??_E?$basic_stringstream@DU?$char_traits@D@std@@V?$allocator@D@2@@std@@UAEPAXI@Z 10038c00 f i * CIL library *:* CIL module *
 0001:00037c00       ??_G?$basic_stringstream@DU?$char_traits@D@std@@V?$allocator@D@2@@std@@UAEPAXI@Z 10038c00 f i BuildOrderQueue.obj
 0001:00037c70       ??_E?$basic_stringbuf@DU?$char_traits@D@std@@V?$allocator@D@2@@std@@UAEPAXI@Z 10038c70 f i * CIL library *:* CIL module *
 0001:00037c70       ??_G?$basic_stringbuf@DU?$char_traits@D@std@@V?$allocator@D@2@@std@@UAEPAXI@Z 10038c70 f i BuildOrderQueue.obj
 0001:00037cb0       ?_Tidy@?$deque@UBuildOrderItem@UAlbertaBot@@V?$allocator@UBuildOrderItem@UAlbertaBot@@@std@@@std@@AAEXXZ 10038cb0 f i BuildOrderQueue.obj
 0001:00037d50       ?erase@?$deque@UBuildOrderItem@UAlbertaBot@@V?$allocator@UBuildOrderItem@UAlbertaBot@@@std@@@std@@QAE?AV?$_Deque_iterator@V?$_Deque_val@U?$_Deque_simple_types@UBuildOrderItem@UAlbertaBot@@@std@@@std@@@2@V?$_Deque_const_iterator@V?$_Deque_val@U?$_Deque_simple_types@UBuildOrderItem@UAlbertaBot@@@std@@@std@@@2@0@Z 10038d50 f i BuildOrderQueue.obj
 0001:00037ee0       ??1sentry@?$basic_ostream@DU?$char_traits@D@std@@@std@@QAE@XZ 10038ee0 f i BuildOrderQueue.obj
 0001:00037f50       ??0sentry@?$basic_ostream@DU?$char_traits@D@std@@@std@@QAE@AAV12@@Z 10038f50 f i BuildOrderQueue.obj
 0001:00037ff0       ?_Tidy@?$basic_stringbuf@DU?$char_traits@D@std@@V?$allocator@D@2@@std@@IAEXXZ 10038ff0 f i BuildOrderQueue.obj
 0001:000380e0       ??0?$basic_stringbuf@DU?$char_traits@D@std@@V?$allocator@D@2@@std@@QAE@H@Z 100390e0 f i BuildOrderQueue.obj
 0001:00038140       ?_Growmap@?$deque@UBuildOrderItem@UAlbertaBot@@V?$allocator@UBuildOrderItem@UAlbertaBot@@@std@@@std@@AAEXI@Z 10039140 f i BuildOrderQueue.obj
 0001:00038310       ??1_Sentry_base@?$basic_istream@DU?$char_traits@D@std@@@std@@QAE@XZ 10039310 f i GameCommander.obj
 0001:00038310       ??1_Sentry_base@?$basic_ostream@DU?$char_traits@D@std@@@std@@QAE@XZ 10039310 f i BuildOrderQueue.obj
 0001:00038360       ?_Xlen@?$deque@UBuildOrderItem@UAlbertaBot@@V?$allocator@UBuildOrderItem@UAlbertaBot@@@std@@@std@@CAXXZ 10039360 f i BuildOrderQueue.obj
 0001:0003836c       ??_E?$basic_stringstream@DU?$char_traits@D@std@@V?$allocator@D@2@@std@@$4PPPPPPPM@A@AEPAXI@Z 1003936c f i BuildOrderQueue.obj
 0001:00038380       ?analyzeForEnemies@CombatSimulation@UAlbertaBot@@ABE?AW4CombatSimEnemies@2@ABVUnitset@BWAPI@@@Z 10039380 f   CombatSimulation.obj
 0001:00038520       ?includeEnemy@CombatSimulation@UAlbertaBot@@ABE_NW4CombatSimEnemies@2@VUnitType@BWAPI@@@Z 10039520 f   CombatSimulation.obj
 0001:000385f0       ?getClosestEnemyCombatUnit@CombatSimulation@UAlbertaBot@@ABE?AV?$Point@H$00@BWAPI@@ABV34@H@Z 100395f0 f   CombatSimulation.obj
 0001:000387d0       ?setCombatUnits@CombatSimulation@UAlbertaBot@@QAEXABVUnitset@BWAPI@@ABV?$Point@H$00@4@H_N@Z 100397d0 f   CombatSimulation.obj
 0001:00039390       ??$_Copy@$0A@@?$_Tree@V?$_Tmap_traits@VUnitType@BWAPI@@HU?$less@VUnitType@BWAPI@@@std@@V?$allocator@U?$pair@$$CBVUnitType@BWAPI@@H@std@@@4@$0A@@std@@@std@@IAEXABV01@@Z 1003a390 f i CombatSimulation.obj
 0001:00039410       ??$_Copy_nodes@$0A@@?$_Tree@V?$_Tmap_traits@PAVUnitInterface@BWAPI@@_NU?$less@PAVUnitInterface@BWAPI@@@std@@V?$allocator@U?$pair@QAVUnitInterface@BWAPI@@_N@std@@@4@$0A@@std@@@std@@IAEPAU?$_Tree_node@U?$pair@QAVUnitInterface@BWAPI@@_N@std@@PAX@1@PAU21@0@Z 1003a410 f i SquadData.obj
 0001:00039410       ??$_Copy_nodes@$0A@@?$_Tree@V?$_Tmap_traits@VUnitType@BWAPI@@HU?$less@VUnitType@BWAPI@@@std@@V?$allocator@U?$pair@$$CBVUnitType@BWAPI@@H@std@@@4@$0A@@std@@@std@@IAEPAU?$_Tree_node@U?$pair@$$CBVUnitType@BWAPI@@H@std@@PAX@1@PAU21@0@Z 1003a410 f i CombatSimulation.obj
 0001:000394d0       ??1?$_Erase_tree_and_orphan_guard@V?$allocator@U?$_Tree_node@U?$pair@$$CBVUnitType@BWAPI@@H@std@@PAX@std@@@std@@@?$_Tree_val@U?$_Tree_simple_types@U?$pair@$$CBVUnitType@BWAPI@@H@std@@@std@@@std@@QAE@XZ 1003a4d0 f i CombatSimulation.obj
 0001:000394d0       ??1?$_Erase_tree_and_orphan_guard@V?$allocator@U?$_Tree_node@U?$pair@QAVUnitInterface@BWAPI@@_N@std@@PAX@std@@@std@@@?$_Tree_val@U?$_Tree_simple_types@U?$pair@QAVUnitInterface@BWAPI@@_N@std@@@std@@@std@@QAE@XZ 1003a4d0 f i SquadData.obj
 0001:00039510       ?enemyRace@The@UAlbertaBot@@QBE?AVRace@BWAPI@@XZ 1003a510 f i CombatCommander.obj
 0001:00039540       ??1SquadData@UAlbertaBot@@QAE@XZ 1003a540 f i CombatCommander.obj
 0001:00039560       ?initializeSquads@CombatCommander@UAlbertaBot@@AAEXXZ 1003a560 f   CombatCommander.obj
 0001:00039ef0       ?update@CombatCommander@UAlbertaBot@@QAEXABVUnitset@BWAPI@@@Z 1003aef0 f   CombatCommander.obj
 0001:0003a4f0       ?updateIrradiatedSquad@CombatCommander@UAlbertaBot@@AAEXXZ 1003b4f0 f   CombatCommander.obj
 0001:0003aaa0       ?updateOverlordSquad@CombatCommander@UAlbertaBot@@AAEXXZ 1003baa0 f   CombatCommander.obj
 0001:0003ac60       ?chooseScourgeTarget@CombatCommander@UAlbertaBot@@AAEXABVSquad@2@@Z 1003bc60 f   CombatCommander.obj
 0001:0003aea0       ?updateScourgeSquad@CombatCommander@UAlbertaBot@@AAEXXZ 1003bea0 f   CombatCommander.obj
 0001:0003b470       ?compareFirst@@YA_NABU?$pair@HPAVBase@UAlbertaBot@@@std@@0@Z 1003c470 f   CombatCommander.obj
 0001:0003b490       ?updateWatchSquads@CombatCommander@UAlbertaBot@@AAEXXZ 1003c490 f   CombatCommander.obj
 0001:0003c0e0       ?updateReconSquad@CombatCommander@UAlbertaBot@@AAEXXZ 1003d0e0 f   CombatCommander.obj
 0001:0003c8f0       ?weighReconUnit@CombatCommander@UAlbertaBot@@ABEHQAVUnitInterface@BWAPI@@@Z 1003d8f0 f   CombatCommander.obj
 0001:0003c970       ?chooseReconTarget@CombatCommander@UAlbertaBot@@AAEXABVSquad@2@@Z 1003d970 f   CombatCommander.obj
 0001:0003cb10       ?getReconLocation@CombatCommander@UAlbertaBot@@ABEPAVBase@2@XZ 1003db10 f   CombatCommander.obj
 0001:0003cc80       ?updateAttackSquads@CombatCommander@UAlbertaBot@@AAEXXZ 1003dc80 f   CombatCommander.obj
 0001:0003d2c0       ?updateDropSquads@CombatCommander@UAlbertaBot@@AAEXXZ 1003e2c0 f   CombatCommander.obj
 0001:0003d950       ?updateScoutDefenseSquad@CombatCommander@UAlbertaBot@@AAEXXZ 1003e950 f   CombatCommander.obj
 0001:0003dbe0       ?updateBaseDefenseSquads@CombatCommander@UAlbertaBot@@AAEXXZ 1003ebe0 f   CombatCommander.obj
 0001:0003f710       ?updateDefenseSquadUnits@CombatCommander@UAlbertaBot@@AAEXAAVSquad@2@ABI1_N2@Z 10040710 f   CombatCommander.obj
 0001:0003f900       ?findClosestDefender@CombatCommander@UAlbertaBot@@AAEPAVUnitInterface@BWAPI@@ABVSquad@2@V?$Point@H$00@4@_N22@Z 10040900 f   CombatCommander.obj
 0001:0003fa50       ?loadOrUnloadBunkers@CombatCommander@UAlbertaBot@@AAEXXZ 10040a50 f   CombatCommander.obj
 0001:0003ffa0       ?wantSquadDetectors@CombatCommander@UAlbertaBot@@ABE_NXZ 10040fa0 f   CombatCommander.obj
 0001:00040140       ?maybeAssignDetector@CombatCommander@UAlbertaBot@@AAEXAAVSquad@2@_N@Z 10041140 f   CombatCommander.obj
 0001:00040260       ?doComsatScan@CombatCommander@UAlbertaBot@@AAEXXZ 10041260 f   CombatCommander.obj
 0001:000403b0       ?workerPullScore@CombatCommander@UAlbertaBot@@CAHPAVUnitInterface@BWAPI@@@Z 100413b0 f   CombatCommander.obj
 0001:00040460       ?pullWorkers@CombatCommander@UAlbertaBot@@QAEXH@Z 10041460 f   CombatCommander.obj
 0001:00040750       ?getAttackOrder@CombatCommander@UAlbertaBot@@AAE?AVSquadOrder@2@PAVSquad@2@@Z 10041750 f   CombatCommander.obj
 0001:00040db0       ?getAttackLocation@CombatCommander@UAlbertaBot@@AAEXPAVSquad@2@AAPAVBase@2@AAV?$Point@H$00@BWAPI@@AAV?$basic_string@DU?$char_traits@D@std@@V?$allocator@D@2@@std@@@Z 10041db0 f   CombatCommander.obj
 0001:00041b10       ?Instance@CombatCommander@UAlbertaBot@@SAAAV12@XZ 10042b10 f   CombatCommander.obj
 0001:00041c70       ??1?$_Tree@V?$_Tmap_traits@W4LurkerTactic@UAlbertaBot@@ULurkerState@2@U?$less@W4LurkerTactic@UAlbertaBot@@@std@@V?$allocator@U?$pair@$$CBW4LurkerTactic@UAlbertaBot@@ULurkerState@2@@std@@@5@$0A@@std@@@std@@QAE@XZ 10042c70 f i CombatCommander.obj
 0001:00041cc0       ??0?$basic_string@DU?$char_traits@D@std@@V?$allocator@D@2@@std@@QAE@XZ 10042cc0 f i CombatCommander.obj
 0001:00041ce0       ??$_Insertion_sort_unchecked@PAU?$pair@HPAVBase@UAlbertaBot@@@std@@P6A_NABU12@0@Z@std@@YAPAU?$pair@HPAVBase@UAlbertaBot@@@0@QAU10@0P6A_NABU10@1@Z@Z 10042ce0 f i CombatCommander.obj
 0001:00041dc0       ??$_Stable_sort_unchecked@PAU?$pair@HPAVBase@UAlbertaBot@@@std@@P6A_NABU12@0@Z@std@@YAXQAU?$pair@HPAVBase@UAlbertaBot@@@0@0H0HP6A_NABU10@1@Z@Z 10042dc0 f i CombatCommander.obj
 0001:00041e70       ??1?$_Optimistic_temporary_buffer@U?$pair@HPAVBase@UAlbertaBot@@@std@@@std@@QAE@XZ 10042e70 f i CombatCommander.obj
 0001:00041e90       ?_Xrange@?$vector@HV?$allocator@H@std@@@std@@CAXXZ 10042e90 f i OpponentModel.obj
 0001:00041e90       ?_Xrange@?$vector@PAVBase@UAlbertaBot@@V?$allocator@PAVBase@UAlbertaBot@@@std@@@std@@CAXXZ 10042e90 f i CombatCommander.obj
 0001:00041e90       ?_Xrange@?$vector@V?$basic_string@DU?$char_traits@D@std@@V?$allocator@D@2@@std@@V?$allocator@V?$basic_string@DU?$char_traits@D@std@@V?$allocator@D@2@@std@@@2@@std@@CAXXZ 10042e90 f i ParseUtils.obj
 0001:00041e90       ?_Xrange@?$vector@VUpgradeType@BWAPI@@V?$allocator@VUpgradeType@BWAPI@@@std@@@std@@CAXXZ 10042e90 f i StrategyBossZerg.obj
 0001:00041ea0       ??0?$basic_string@DU?$char_traits@D@std@@V?$allocator@D@2@@std@@QAE@U_String_constructor_concat_tag@1@ABV01@QBDI2I@Z 10042ea0 f i CombatCommander.obj
 0001:00041f40       ??$_Buffered_merge_sort_unchecked@PAU?$pair@HPAVBase@UAlbertaBot@@@std@@P6A_NABU12@0@Z@std@@YAXQAU?$pair@HPAVBase@UAlbertaBot@@@0@0H0P6A_NABU10@1@Z@Z 10042f40 f i CombatCommander.obj
 0001:000420d0       ??$_Buffered_inplace_merge_unchecked@PAU?$pair@HPAVBase@UAlbertaBot@@@std@@P6A_NABU12@0@Z@std@@YAXPAU?$pair@HPAVBase@UAlbertaBot@@@0@00HHQAU10@HP6A_NABU10@2@Z@Z 100430d0 f i CombatCommander.obj
 0001:00042250       ??$_Emplace_reallocate@ABV?$Point@H$00@BWAPI@@@?$vector@V?$Point@H$00@BWAPI@@V?$allocator@V?$Point@H$00@BWAPI@@@std@@@std@@AAEPAV?$Point@H$00@BWAPI@@QAV23@ABV23@@Z 10043250 f i OpsBoss.obj
 0001:00042250       ??$_Emplace_reallocate@ABV?$Point@H$07@BWAPI@@@?$vector@V?$Point@H$07@BWAPI@@V?$allocator@V?$Point@H$07@BWAPI@@@std@@@std@@AAEPAV?$Point@H$07@BWAPI@@QAV23@ABV23@@Z 10043250 f i GridInset.obj
 0001:00042250       ??$_Emplace_reallocate@U?$pair@HPAVBase@UAlbertaBot@@@std@@@?$vector@U?$pair@HPAVBase@UAlbertaBot@@@std@@V?$allocator@U?$pair@HPAVBase@UAlbertaBot@@@std@@@2@@std@@AAEPAU?$pair@HPAVBase@UAlbertaBot@@@1@QAU21@$$QAU21@@Z 10043250 f i CombatCommander.obj
 0001:00042250       ??$_Emplace_reallocate@V?$Point@H$00@BWAPI@@@?$vector@V?$Point@H$00@BWAPI@@V?$allocator@V?$Point@H$00@BWAPI@@@std@@@std@@AAEPAV?$Point@H$00@BWAPI@@QAV23@$$QAV23@@Z 10043250 f i MicroTransports.obj
 0001:00042250       ??$_Emplace_reallocate@V?$Point@H$07@BWAPI@@@?$vector@V?$Point@H$07@BWAPI@@V?$allocator@V?$Point@H$07@BWAPI@@@std@@@std@@AAEPAV?$Point@H$07@BWAPI@@QAV23@$$QAV23@@Z 10043250 f i GridInset.obj
 0001:000423c0       ??$_Erase_tree@V?$allocator@U?$_Tree_node@U?$pair@$$CBV?$basic_string@DU?$char_traits@D@std@@V?$allocator@D@2@@std@@VSquad@UAlbertaBot@@@std@@PAX@std@@@std@@@?$_Tree_val@U?$_Tree_simple_types@U?$pair@$$CBV?$basic_string@DU?$char_traits@D@std@@V?$allocator@D@2@@std@@VSquad@UAlbertaBot@@@std@@@std@@@std@@QAEXAAV?$allocator@U?$_Tree_node@U?$pair@$$CBV?$basic_string@DU?$char_traits@D@std@@V?$allocator@D@2@@std@@VSquad@UAlbertaBot@@@std@@PAX@std@@@1@PAU?$_Tree_node@U?$pair@$$CBV?$basic_string@DU?$char_traits@D@std@@V?$allocator@D@2@@std@@VSquad@UAlbertaBot@@@std@@PAX@1@@Z 100433c0 f i CombatCommander.obj
 0001:00042430       ??$_Erase_tree@V?$allocator@U?$_Tree_node@U?$pair@$$CBW4LurkerTactic@UAlbertaBot@@ULurkerState@2@@std@@PAX@std@@@std@@@?$_Tree_val@U?$_Tree_simple_types@U?$pair@$$CBW4LurkerTactic@UAlbertaBot@@ULurkerState@2@@std@@@std@@@std@@QAEXAAV?$allocator@U?$_Tree_node@U?$pair@$$CBW4LurkerTactic@UAlbertaBot@@ULurkerState@2@@std@@PAX@std@@@1@PAU?$_Tree_node@U?$pair@$$CBW4LurkerTactic@UAlbertaBot@@ULurkerState@2@@std@@PAX@1@@Z 10043430 f i CombatCommander.obj
 0001:00042480       ??$_Chunked_merge_unchecked@PAU?$pair@HPAVBase@UAlbertaBot@@@std@@PAU12@P6A_NABU12@0@Z@std@@YAXPAU?$pair@HPAVBase@UAlbertaBot@@@0@QAU10@0HHP6A_NABU10@2@Z@Z 10043480 f i CombatCommander.obj
 0001:00042580       ??$_Buffered_inplace_merge_unchecked_impl@PAU?$pair@HPAVBase@UAlbertaBot@@@std@@P6A_NABU12@0@Z@std@@YAXPAU?$pair@HPAVBase@UAlbertaBot@@@0@00HHQAU10@HP6A_NABU10@2@Z@Z 10043580 f i CombatCommander.obj
 0001:00042790       ?_Delete_this@?$_Func_impl_no_alloc@V<lambda_a2cf48cc0ad720342f05725db62c6909>@@_NPAVUnitInterface@BWAPI@@@std@@EAEX_N@Z 10043790 f i MicroDefilers.obj
 0001:00042790       ?_Delete_this@?$_Func_impl_no_alloc@V?$UnaryFilter@PAVUnitInterface@BWAPI@@P6A_NPAV12@@Z@BWAPI@@_NPAVUnitInterface@2@@std@@EAEX_N@Z 10043790 f i CombatCommander.obj
 0001:000427b0       ?_Target_type@?$_Func_impl_no_alloc@V?$UnaryFilter@PAVUnitInterface@BWAPI@@P6A_NPAV12@@Z@BWAPI@@_NPAVUnitInterface@2@@std@@EBEABVtype_info@@XZ 100437b0 f i CombatCommander.obj
 0001:000427c0       ?_Do_call@?$_Func_impl_no_alloc@V?$UnaryFilter@PAVUnitInterface@BWAPI@@P6A_NPAV12@@Z@BWAPI@@_NPAVUnitInterface@2@@std@@EAE_N$$QAPAVUnitInterface@BWAPI@@@Z 100437c0 f i CombatCommander.obj
 0001:000427e0       ?_Copy@?$_Func_impl_no_alloc@V?$UnaryFilter@PAVUnitInterface@BWAPI@@P6A_NPAV12@@Z@BWAPI@@_NPAVUnitInterface@2@@std@@EBEPAV?$_Func_base@_NPAVUnitInterface@BWAPI@@@2@PAX@Z 100437e0 f i CombatCommander.obj
 0001:000427e0       ?_Move@?$_Func_impl_no_alloc@V?$UnaryFilter@PAVUnitInterface@BWAPI@@P6A_NPAV12@@Z@BWAPI@@_NPAVUnitInterface@2@@std@@EAEPAV?$_Func_base@_NPAVUnitInterface@BWAPI@@@2@PAX@Z 100437e0 f i CombatCommander.obj
 0001:00042800       ??$_Buffered_inplace_merge_divide_and_conquer@PAU?$pair@HPAVBase@UAlbertaBot@@@std@@P6A_NABU12@0@Z@std@@YAXPAU?$pair@HPAVBase@UAlbertaBot@@@0@00HHQAU10@HP6A_NABU10@2@Z@Z 10043800 f i CombatCommander.obj
 0001:00042960       ??$_Buffered_rotate_unchecked@PAU?$pair@HPAVBase@UAlbertaBot@@@std@@@std@@YAPAU?$pair@HPAVBase@UAlbertaBot@@@0@QAU10@00HH0H@Z 10043960 f i CombatCommander.obj
 0001:00042b00       ?Intersection@@YA?AVUnitset@BWAPI@@ABV12@0@Z 10043b00 f   Common.obj
 0001:00042bf0       ?GetIntFromString@@YAHABV?$basic_string@DU?$char_traits@D@std@@V?$allocator@D@2@@std@@@Z 10043bf0 f   Common.obj
 0001:00042d60       ?TrimRaceName@@YA?AV?$basic_string@DU?$char_traits@D@std@@V?$allocator@D@2@@std@@ABV12@@Z 10043d60 f   Common.obj
 0001:00043090       ?RaceChar@@YADVRace@BWAPI@@@Z 10044090 f   Common.obj
 0001:000430c0       ?UnitTypeName@@YA?AV?$basic_string@DU?$char_traits@D@std@@V?$allocator@D@2@@std@@VUnitType@BWAPI@@@Z 100440c0 f   Common.obj
 0001:000431f0       ?DistanceAndDirection@@YA?AV?$Point@H$00@BWAPI@@ABV12@0H@Z 100441f0 f   Common.obj
 0001:000432b0       ?NearestOf@@YAPAVUnitInterface@BWAPI@@ABV?$Point@H$00@2@ABVUnitset@2@@Z 100442b0 f   Common.obj
 0001:00043310       ?PredictMovement@@YA?AV?$Point@H$00@BWAPI@@PAVUnitInterface@2@H@Z 10044310 f   Common.obj
 0001:000433d0       ?GroundHeight@@YAHABV?$Point@H$0CA@@BWAPI@@@Z 100443d0 f   Common.obj
 0001:00043400       ??$?8DU?$char_traits@D@std@@V?$allocator@D@1@@std@@YA_NABV?$basic_string@DU?$char_traits@D@std@@V?$allocator@D@2@@0@QBD@Z 10044400 f i Common.obj
 0001:00043440       ?substr@?$basic_string@DU?$char_traits@D@std@@V?$allocator@D@2@@std@@QBE?AV12@II@Z 10044440 f i Common.obj
 0001:000434a0       ??0?$basic_stringbuf@DU?$char_traits@D@std@@V?$allocator@D@2@@std@@QAE@ABV?$basic_string@DU?$char_traits@D@std@@V?$allocator@D@2@@1@H@Z 100444a0 f i Common.obj
 0001:00043540       ??$_Traits_equal@U?$char_traits@D@std@@@std@@YA_NQBDI0I@Z 10044540 f i Common.obj
 0001:000435c0       ?_Init@?$basic_stringbuf@DU?$char_traits@D@std@@V?$allocator@D@2@@std@@IAEXPBDIH@Z 100445c0 f i Common.obj
 0001:000436d0       ?_Xran@?$_String_val@U?$_Simple_types@D@std@@@std@@SAXXZ 100446d0 f i Common.obj
 0001:000436e0       ?update@DistractorManager@UAlbertaBot@@QAEXXZ 100446e0 f   DistractorManager.obj
 0001:00043c30       ?drawDebug@DistractorManager@UAlbertaBot@@QBEXXZ 10044c30 f   DistractorManager.obj
 0001:00044160       ?findInterceptPoints@DistractorManager@UAlbertaBot@@AAE?AV?$vector@V?$Point@H$0CA@@BWAPI@@V?$allocator@V?$Point@H$0CA@@BWAPI@@@std@@@std@@XZ 10045160 f   DistractorManager.obj
 0001:000449e0       ??1ApproachPath@DistractorManager@UAlbertaBot@@QAE@XZ 100459e0 f i DistractorManager.obj
 0001:000449f0       ?tracePath@DistractorManager@UAlbertaBot@@ABE?AV?$vector@V?$Point@H$0CA@@BWAPI@@V?$allocator@V?$Point@H$0CA@@BWAPI@@@std@@@std@@ABV?$Point@H$0CA@@BWAPI@@ABVGridDistances@2@@Z 100459f0 f   DistractorManager.obj
 0001:00044c10       ?calculateLurePosition@DistractorManager@UAlbertaBot@@AAE?AV?$Point@H$00@BWAPI@@ABV?$vector@PAVUnitInterface@BWAPI@@V?$allocator@PAVUnitInterface@BWAPI@@@std@@@std@@@Z 10045c10 f   DistractorManager.obj
 0001:00044fe0       ??1?$vector@UApproachPath@DistractorManager@UAlbertaBot@@V?$allocator@UApproachPath@DistractorManager@UAlbertaBot@@@std@@@std@@QAE@XZ 10045fe0 f i DistractorManager.obj
 0001:00045080       ??$_Emplace_reallocate@UApproachPath@DistractorManager@UAlbertaBot@@@?$vector@UApproachPath@DistractorManager@UAlbertaBot@@V?$allocator@UApproachPath@DistractorManager@UAlbertaBot@@@std@@@std@@AAEPAUApproachPath@DistractorManager@UAlbertaBot@@QAU234@$$QAU234@@Z 10046080 f i DistractorManager.obj
 0001:000452b0       ??$_Uninitialized_move@PAUApproachPath@DistractorManager@UAlbertaBot@@V?$allocator@UApproachPath@DistractorManager@UAlbertaBot@@@std@@@std@@YAPAUApproachPath@DistractorManager@UAlbertaBot@@QAU123@0PAU123@AAV?$allocator@UApproachPath@DistractorManager@UAlbertaBot@@@0@@Z 100462b0 f i DistractorManager.obj
 0001:00045330       ?_Target_type@?$_Func_impl_no_alloc@V<lambda_118b755b5cc58de9f37bbbebea1f7d1c>@@_NPAVUnitInterface@BWAPI@@@std@@EBEABVtype_info@@XZ 10046330 f i DistractorManager.obj
 0001:00045340       ?_Do_call@?$_Func_impl_no_alloc@V<lambda_118b755b5cc58de9f37bbbebea1f7d1c>@@_NPAVUnitInterface@BWAPI@@@std@@EAE_N$$QAPAVUnitInterface@BWAPI@@@Z 10046340 f i DistractorManager.obj
 0001:00045380       ?_Copy@?$_Func_impl_no_alloc@V<lambda_118b755b5cc58de9f37bbbebea1f7d1c>@@_NPAVUnitInterface@BWAPI@@@std@@EBEPAV?$_Func_base@_NPAVUnitInterface@BWAPI@@@2@PAX@Z 10046380 f i DistractorManager.obj
 0001:00045380       ?_Move@?$_Func_impl_no_alloc@V<lambda_118b755b5cc58de9f37bbbebea1f7d1c>@@_NPAVUnitInterface@BWAPI@@@std@@EAEPAV?$_Func_base@_NPAVUnitInterface@BWAPI@@@2@PAX@Z 10046380 f i DistractorManager.obj
 0001:000453a0       _gameInit                  100463a0 f   Dll.obj
 0001:000453b0       _DllMain@12                100463b0 f   Dll.obj
 0001:000453c0       _newAIModule               100463c0 f   Dll.obj
 0001:000453e0       ?playerScores@FastAPproximation@UAlbertaBot@@QBE?AU?$pair@HH@std@@XZ 100463e0 f   FAP.obj
 0001:00045470       ?dealDamage@FastAPproximation@UAlbertaBot@@ABEXABUFAPUnit@12@HVDamageType@BWAPI@@@Z 10046470 f   FAP.obj
 0001:00045500       ?unitsim@FastAPproximation@UAlbertaBot@@AAEXABUFAPUnit@12@AAV?$vector@UFAPUnit@FastAPproximation@UAlbertaBot@@V?$allocator@UFAPUnit@FastAPproximation@UAlbertaBot@@@std@@@std@@@Z 10046500 f   FAP.obj
 0001:00045770       ?medicsim@FastAPproximation@UAlbertaBot@@AAEXABUFAPUnit@12@AAV?$vector@UFAPUnit@FastAPproximation@UAlbertaBot@@V?$allocator@UFAPUnit@FastAPproximation@UAlbertaBot@@@std@@@std@@@Z 10046770 f   FAP.obj
 0001:00045820       ?suicideSim@FastAPproximation@UAlbertaBot@@AAE_NABUFAPUnit@12@AAV?$vector@UFAPUnit@FastAPproximation@UAlbertaBot@@V?$allocator@UFAPUnit@FastAPproximation@UAlbertaBot@@@std@@@std@@@Z 10046820 f   FAP.obj
 0001:000459b0       ?isimulate@FastAPproximation@UAlbertaBot@@AAEX_N@Z 100469b0 f   FAP.obj
 0001:00045bb0       ?unitDeath@FastAPproximation@UAlbertaBot@@AAEXABUFAPUnit@12@AAV?$vector@UFAPUnit@FastAPproximation@UAlbertaBot@@V?$allocator@UFAPUnit@FastAPproximation@UAlbertaBot@@@std@@@std@@@Z 10046bb0 f   FAP.obj
 0001:00045c70       ??0FAPUnit@FastAPproximation@UAlbertaBot@@QAE@ABUUnitInfo@2@@Z 10046c70 f   FAP.obj
 0001:00046270       ??4FAPUnit@FastAPproximation@UAlbertaBot@@QBEABU012@ABU012@@Z 10047270 f   FAP.obj
 0001:00046330       ??$sqrt@H$0A@@@YANH@Z      10047330 f i FAP.obj
 0001:00046350       ??1?$vector@UFAPUnit@FastAPproximation@UAlbertaBot@@V?$allocator@UFAPUnit@FastAPproximation@UAlbertaBot@@@std@@@std@@QAE@XZ 10047350 f i FAP.obj
 0001:000463b0       ??$_Emplace_reallocate@ABUFAPUnit@FastAPproximation@UAlbertaBot@@@?$vector@UFAPUnit@FastAPproximation@UAlbertaBot@@V?$allocator@UFAPUnit@FastAPproximation@UAlbertaBot@@@std@@@std@@AAEPAUFAPUnit@FastAPproximation@UAlbertaBot@@QAU234@ABU234@@Z 100473b0 f i FAP.obj
 0001:00046530       ??0bad_cast@std@@QAE@XZ    10047530 f i GameCommander.obj
 0001:00046550       ?_Throw_bad_cast@std@@YAXXZ 10047550 f i GameCommander.obj
 0001:00046570       ??0bad_cast@std@@QAE@ABV01@@Z 10047570 f i GameCommander.obj
 0001:000465b0       ??1locale@std@@QAE@XZ      100475b0 f i GameCommander.obj
 0001:000465d0       ??1?$map@W4Type@TimerManager@UAlbertaBot@@UTimer@3@U?$less@W4Type@TimerManager@UAlbertaBot@@@std@@V?$allocator@U?$pair@$$CBW4Type@TimerManager@UAlbertaBot@@UTimer@3@@std@@@6@@std@@QAE@XZ 100475d0 f i GameCommander.obj
 0001:000465d0       ??1TimerManager@UAlbertaBot@@QAE@XZ 100475d0 f i GameCommander.obj
 0001:000465e0       ?Instance@DistractorManager@UAlbertaBot@@SAAAV12@XZ 100475e0 f i GameCommander.obj
 0001:00046690       ?update@GameCommander@UAlbertaBot@@QAEXXZ 10047690 f   GameCommander.obj
 0001:00048080       ?getStrategyStats@GameCommander@UAlbertaBot@@AAE?AU?$pair@NH@std@@ABV?$basic_string@DU?$char_traits@D@std@@V?$allocator@D@2@@4@_N@Z 10049080 f   GameCommander.obj
 0001:00048180       ?onStart@GameCommander@UAlbertaBot@@QAEXXZ 10049180 f   GameCommander.obj
 0001:00048810       ?loadWeights@GameCommander@UAlbertaBot@@CA?AV?$vector@NV?$allocator@N@std@@@std@@ABV?$basic_string@DU?$char_traits@D@std@@V?$allocator@D@2@@4@@Z 10049810 f   GameCommander.obj
 0001:00048f60       ??_D?$basic_ifstream@DU?$char_traits@D@std@@@std@@QAEXXZ 10049f60 f i GameCommander.obj
 0001:00049020       ??_D?$basic_ofstream@DU?$char_traits@D@std@@@std@@QAEXXZ 1004a020 f i GameCommander.obj
 0001:000490e0       ?trainModel@GameCommander@UAlbertaBot@@AAAXABV?$basic_string@DU?$char_traits@D@std@@V?$allocator@D@2@@std@@ZZ 1004a0e0 f   GameCommander.obj
 0001:00049510       ?recordMatchResult@GameCommander@UAlbertaBot@@AAEXV?$basic_string@DU?$char_traits@D@std@@V?$allocator@D@2@@std@@H_N01@Z 1004a510 f   GameCommander.obj
 0001:00049ac0       ??1Record@GameCommander@UAlbertaBot@@QAE@XZ 1004aac0 f i GameCommander.obj
 0001:00049ae0       ?loadRecords@GameCommander@UAlbertaBot@@CA?AV?$vector@URecord@GameCommander@UAlbertaBot@@V?$allocator@URecord@GameCommander@UAlbertaBot@@@std@@@std@@V?$basic_string@DU?$char_traits@D@std@@V?$allocator@D@2@@4@@Z 1004aae0 f   GameCommander.obj
 0001:0004a290       ?shouldExpand@GameCommander@UAlbertaBot@@QAE_NABV?$basic_string@DU?$char_traits@D@std@@V?$allocator@D@2@@std@@@Z 1004b290 f   GameCommander.obj
 0001:0004a480       ?onEnd@GameCommander@UAlbertaBot@@QAEX_N@Z 1004b480 f   GameCommander.obj
 0001:0004a730       ?drawDebugInterface@GameCommander@UAlbertaBot@@AAEXXZ 1004b730 f   GameCommander.obj
 0001:0004abc0       ?drawGameInformation@GameCommander@UAlbertaBot@@AAEXHH@Z 1004bbc0 f   GameCommander.obj
 0001:0004b750       ?drawUnitOrders@GameCommander@UAlbertaBot@@AAEXXZ 1004c750 f   GameCommander.obj
 0001:0004bc50       ?drawUnitCounts@GameCommander@UAlbertaBot@@ABEXHH@Z 1004cc50 f   GameCommander.obj
 0001:0004c310       ?drawDefenseClusters@GameCommander@UAlbertaBot@@AAEXXZ 1004d310 f   GameCommander.obj
 0001:0004c5d0       ?shouldExpandRuleBased@GameCommander@UAlbertaBot@@AAE_NV?$vector@URecord@GameCommander@UAlbertaBot@@V?$allocator@URecord@GameCommander@UAlbertaBot@@@std@@@std@@@Z 1004d5d0 f   GameCommander.obj
 0001:0004c8d0       ?shouldExpandML@GameCommander@UAlbertaBot@@AAE_NV?$basic_string@DU?$char_traits@D@std@@V?$allocator@D@2@@std@@@Z 1004d8d0 f   GameCommander.obj
 0001:0004cbc0       ?handleUnitAssignments@GameCommander@UAlbertaBot@@QAEXXZ 1004dbc0 f   GameCommander.obj
 0001:0004cd70       ?isAssigned@GameCommander@UAlbertaBot@@ABE_NPAVUnitInterface@BWAPI@@@Z 1004dd70 f   GameCommander.obj
 0001:0004ce40       ?setScoutUnits@GameCommander@UAlbertaBot@@QAEXXZ 1004de40 f   GameCommander.obj
 0001:0004d070       ?setDistractorUnits@GameCommander@UAlbertaBot@@QAEXXZ 1004e070 f   GameCommander.obj
 0001:0004d1f0       ?onUnitDestroy@GameCommander@UAlbertaBot@@QAEXPAVUnitInterface@BWAPI@@@Z 1004e1f0 f   GameCommander.obj
 0001:0004d320       ?onUnitMorph@GameCommander@UAlbertaBot@@QAEXPAVUnitInterface@BWAPI@@@Z 1004e320 f   GameCommander.obj
 0001:0004d470       ?assignUnit@GameCommander@UAlbertaBot@@AAEXPAVUnitInterface@BWAPI@@AAVUnitset@4@@Z 1004e470 f   GameCommander.obj
 0001:0004d510       ?surrenderMonkey@GameCommander@UAlbertaBot@@AAE_NXZ 1004e510 f   GameCommander.obj
 0001:0004d720       ?Instance@GameCommander@UAlbertaBot@@SAAAV12@XZ 1004e720 f   GameCommander.obj
 0001:0004d850       ??$?6DU?$char_traits@D@std@@V?$allocator@D@1@@std@@YAAAV?$basic_ostream@DU?$char_traits@D@std@@@0@AAV10@ABV?$basic_string@DU?$char_traits@D@std@@V?$allocator@D@2@@0@@Z 1004e850 f i GameCommander.obj
 0001:0004d870       ??$?9DU?$char_traits@D@std@@V?$allocator@D@1@@std@@YA_NABV?$basic_string@DU?$char_traits@D@std@@V?$allocator@D@2@@0@QBD@Z 1004e870 f i GameCommander.obj
 0001:0004da10       ?size@?$vector@V?$basic_string@DU?$char_traits@D@std@@V?$allocator@D@2@@std@@V?$allocator@V?$basic_string@DU?$char_traits@D@std@@V?$allocator@D@2@@std@@@2@@std@@QBEIXZ 1004ea10 f i GameCommander.obj
 0001:0004da30       ??1?$vector@V?$basic_string@DU?$char_traits@D@std@@V?$allocator@D@2@@std@@V?$allocator@V?$basic_string@DU?$char_traits@D@std@@V?$allocator@D@2@@std@@@2@@std@@QAE@XZ 1004ea30 f i GameCommander.obj
 0001:0004da40       ??1?$vector@URecord@GameCommander@UAlbertaBot@@V?$allocator@URecord@GameCommander@UAlbertaBot@@@std@@@std@@QAE@XZ 1004ea40 f i GameCommander.obj
 0001:0004da50       ??1?$_Tree@V?$_Tmap_traits@W4Type@TimerManager@UAlbertaBot@@UTimer@3@U?$less@W4Type@TimerManager@UAlbertaBot@@@std@@V?$allocator@U?$pair@$$CBW4Type@TimerManager@UAlbertaBot@@UTimer@3@@std@@@6@$0A@@std@@@std@@QAE@XZ 1004ea50 f i GameCommander.obj
 0001:0004daa0       ?getName@?$Type@VTechType@BWAPI@@$0CO@@BWAPI@@QBEABV?$basic_string@DU?$char_traits@D@std@@V?$allocator@D@2@@std@@XZ 1004eaa0 f i GameCommander.obj
 0001:0004dac0       ?getName@?$Type@VUpgradeType@BWAPI@@$0DO@@BWAPI@@QBEABV?$basic_string@DU?$char_traits@D@std@@V?$allocator@D@2@@std@@XZ 1004eac0 f i GameCommander.obj
 0001:0004dae0       ??1?$deque@VUnitType@BWAPI@@V?$allocator@VUnitType@BWAPI@@@std@@@std@@QAE@XZ 1004eae0 f i GameCommander.obj
 0001:0004db90       ??4?$basic_string@DU?$char_traits@D@std@@V?$allocator@D@2@@std@@QAEAAV01@ABV01@@Z 1004eb90 f i GameCommander.obj
 0001:0004dbc0       ??0?$basic_ifstream@DU?$char_traits@D@std@@@std@@QAE@ABV?$basic_string@DU?$char_traits@D@std@@V?$allocator@D@2@@1@HH@Z 1004ebc0 f i GameCommander.obj
 0001:0004dce0       ?imbue@?$basic_filebuf@DU?$char_traits@D@std@@@std@@MAEXABVlocale@2@@Z 1004ece0 f i GameCommander.obj
 0001:0004dd20       ?sync@?$basic_filebuf@DU?$char_traits@D@std@@@std@@MAEHXZ 1004ed20 f i GameCommander.obj
 0001:0004dd60       ?setbuf@?$basic_filebuf@DU?$char_traits@D@std@@@std@@MAEPAV?$basic_streambuf@DU?$char_traits@D@std@@@2@PAD_J@Z 1004ed60 f i GameCommander.obj
 0001:0004de30       ?seekpos@?$basic_filebuf@DU?$char_traits@D@std@@@std@@MAE?AV?$fpos@U_Mbstatet@@@2@V32@H@Z 1004ee30 f i GameCommander.obj
 0001:0004df00       ?seekoff@?$basic_filebuf@DU?$char_traits@D@std@@@std@@MAE?AV?$fpos@U_Mbstatet@@@2@_JHH@Z 1004ef00 f i GameCommander.obj
 0001:0004e010       ?xsputn@?$basic_filebuf@DU?$char_traits@D@std@@@std@@MAE_JPBD_J@Z 1004f010 f i GameCommander.obj
 0001:0004e110       ?xsgetn@?$basic_filebuf@DU?$char_traits@D@std@@@std@@MAE_JPAD_J@Z 1004f110 f i GameCommander.obj
 0001:0004e230       ?uflow@?$basic_filebuf@DU?$char_traits@D@std@@@std@@MAEHXZ 1004f230 f i GameCommander.obj
 0001:0004e440       ?underflow@?$basic_filebuf@DU?$char_traits@D@std@@@std@@MAEHXZ 1004f440 f i GameCommander.obj
 0001:0004e480       ?pbackfail@?$basic_filebuf@DU?$char_traits@D@std@@@std@@MAEHH@Z 1004f480 f i GameCommander.obj
 0001:0004e530       ?overflow@?$basic_filebuf@DU?$char_traits@D@std@@@std@@MAEHH@Z 1004f530 f i GameCommander.obj
 0001:0004e690       ?_Unlock@?$basic_filebuf@DU?$char_traits@D@std@@@std@@UAEXXZ 1004f690 f i GameCommander.obj
 0001:0004e6a0       ?_Lock@?$basic_filebuf@DU?$char_traits@D@std@@@std@@UAEXXZ 1004f6a0 f i GameCommander.obj
 0001:0004e6b0       ??1?$basic_filebuf@DU?$char_traits@D@std@@@std@@UAE@XZ 1004f6b0 f i GameCommander.obj
 0001:0004e730       ??_E?$basic_ofstream@DU?$char_traits@D@std@@@std@@UAEPAXI@Z 1004f730 f i * CIL library *:* CIL module *
 0001:0004e730       ??_G?$basic_ofstream@DU?$char_traits@D@std@@@std@@UAEPAXI@Z 1004f730 f i GameCommander.obj
 0001:0004e760       ??_E?$basic_ifstream@DU?$char_traits@D@std@@@std@@UAEPAXI@Z 1004f760 f i * CIL library *:* CIL module *
 0001:0004e760       ??_G?$basic_ifstream@DU?$char_traits@D@std@@@std@@UAEPAXI@Z 1004f760 f i GameCommander.obj
 0001:0004e790       ??_E?$basic_filebuf@DU?$char_traits@D@std@@@std@@UAEPAXI@Z 1004f790 f i * CIL library *:* CIL module *
 0001:0004e790       ??_G?$basic_filebuf@DU?$char_traits@D@std@@@std@@UAEPAXI@Z 1004f790 f i GameCommander.obj
 0001:0004e830       ??$getline@DU?$char_traits@D@std@@V?$allocator@D@2@@std@@YAAAV?$basic_istream@DU?$char_traits@D@std@@@0@$$QAV10@AAV?$basic_string@DU?$char_traits@D@std@@V?$allocator@D@2@@0@D@Z 1004f830 f i GameCommander.obj
 0001:0004e9a0       ??$_Insert_string@DU?$char_traits@D@std@@I@std@@YAAAV?$basic_ostream@DU?$char_traits@D@std@@@0@AAV10@QBDI@Z 1004f9a0 f i GameCommander.obj
 0001:0004eb40       ??$_Assign_counted_range@PAURecord@GameCommander@UAlbertaBot@@@?$vector@URecord@GameCommander@UAlbertaBot@@V?$allocator@URecord@GameCommander@UAlbertaBot@@@std@@@std@@AAEXPAURecord@GameCommander@UAlbertaBot@@I@Z 1004fb40 f i GameCommander.obj
 0001:0004ede0       ??$use_facet@V?$codecvt@DDU_Mbstatet@@@std@@@std@@YAABV?$codecvt@DDU_Mbstatet@@@0@ABVlocale@0@@Z 1004fde0 f i GameCommander.obj
 0001:0004ef00       ??1?$unique_ptr@V_Facet_base@std@@U?$default_delete@V_Facet_base@std@@@2@@std@@QAE@XZ 1004ff00 f i GameCommander.obj
 0001:0004ef00       ??1?$unique_ptr@V_Node_assert@std@@U?$default_delete@V_Node_assert@std@@@2@@std@@QAE@XZ 1004ff00 f i MacroAct.obj
 0001:0004ef10       ?_Tidy@?$vector@V?$basic_string@DU?$char_traits@D@std@@V?$allocator@D@2@@std@@V?$allocator@V?$basic_string@DU?$char_traits@D@std@@V?$allocator@D@2@@std@@@2@@std@@AAEXXZ 1004ff10 f i GameCommander.obj
 0001:0004efa0       ?_Tidy@?$vector@URecord@GameCommander@UAlbertaBot@@V?$allocator@URecord@GameCommander@UAlbertaBot@@@std@@@std@@AAEXXZ 1004ffa0 f i GameCommander.obj
 0001:0004f040       ?push_back@?$basic_string@DU?$char_traits@D@std@@V?$allocator@D@2@@std@@QAEXD@Z 10050040 f i GameCommander.obj
 0001:0004f170       ??0?$basic_ofstream@DU?$char_traits@D@std@@@std@@QAE@PBDHH@Z 10050170 f i GameCommander.obj
 0001:0004f270       ?_Endwrite@?$basic_filebuf@DU?$char_traits@D@std@@@std@@IAE_NXZ 10050270 f i GameCommander.obj
 0001:0004f340       ?close@?$basic_filebuf@DU?$char_traits@D@std@@@std@@QAEPAV12@XZ 10050340 f i GameCommander.obj
 0001:0004f3d0       ??1sentry@?$basic_istream@DU?$char_traits@D@std@@@std@@QAE@XZ 100503d0 f i GameCommander.obj
 0001:0004f430       ??0?$_List_const_iterator@V?$_List_val@U?$_List_simple_types@VTechType@BWAPI@@@std@@@std@@@std@@QAE@PAU?$_List_node@VTechType@BWAPI@@PAX@1@PBV?$_List_val@U?$_List_simple_types@VTechType@BWAPI@@@std@@@1@@Z 10050430 f i MacroAct.obj
 0001:0004f430       ??0?$_List_const_iterator@V?$_List_val@U?$_List_simple_types@VUnitType@BWAPI@@@std@@@std@@@std@@QAE@PAU?$_List_node@VUnitType@BWAPI@@PAX@1@PBV?$_List_val@U?$_List_simple_types@VUnitType@BWAPI@@@std@@@1@@Z 10050430 f i GameCommander.obj
 0001:0004f430       ??0?$_List_const_iterator@V?$_List_val@U?$_List_simple_types@VUpgradeType@BWAPI@@@std@@@std@@@std@@QAE@PAU?$_List_node@VUpgradeType@BWAPI@@PAX@1@PBV?$_List_val@U?$_List_simple_types@VUpgradeType@BWAPI@@@std@@@1@@Z 10050430 f i MacroAct.obj
 0001:0004f430       ??0?$_List_unchecked_const_iterator@V?$_List_val@U?$_List_simple_types@VTechType@BWAPI@@@std@@@std@@U_Iterator_base0@2@@std@@QAE@PAU?$_List_node@VTechType@BWAPI@@PAX@1@PBV?$_List_val@U?$_List_simple_types@VTechType@BWAPI@@@std@@@1@@Z 10050430 f i MacroAct.obj
 0001:0004f430       ??0?$_List_unchecked_const_iterator@V?$_List_val@U?$_List_simple_types@VUnitType@BWAPI@@@std@@@std@@U_Iterator_base0@2@@std@@QAE@PAU?$_List_node@VUnitType@BWAPI@@PAX@1@PBV?$_List_val@U?$_List_simple_types@VUnitType@BWAPI@@@std@@@1@@Z 10050430 f i GameCommander.obj
 0001:0004f430       ??0?$_List_unchecked_const_iterator@V?$_List_val@U?$_List_simple_types@VUpgradeType@BWAPI@@@std@@@std@@U_Iterator_base0@2@@std@@QAE@PAU?$_List_node@VUpgradeType@BWAPI@@PAX@1@PBV?$_List_val@U?$_List_simple_types@VUpgradeType@BWAPI@@@std@@@1@@Z 10050430 f i MacroAct.obj
 0001:0004f430       ??0?$_Tree_iterator@V?$_Tree_val@U?$_Tree_simple_types@U?$pair@$$CBVUnitType@BWAPI@@H@std@@@std@@@std@@@std@@QAE@PAU?$_Tree_node@U?$pair@$$CBVUnitType@BWAPI@@H@std@@PAX@1@PBV?$_Tree_val@U?$_Tree_simple_types@U?$pair@$$CBVUnitType@BWAPI@@H@std@@@std@@@1@@Z 10050430 f i PlayerSnapshot.obj
 0001:0004f440       ??$_Find_lower_bound@V?$basic_string@DU?$char_traits@D@std@@V?$allocator@D@2@@std@@@?$_Tree@V?$_Tmap_traits@V?$basic_string@DU?$char_traits@D@std@@V?$allocator@D@2@@std@@UOpeningInfoType@OpponentModel@UAlbertaBot@@U?$less@V?$basic_string@DU?$char_traits@D@std@@V?$allocator@D@2@@std@@@2@V?$allocator@U?$pair@$$CBV?$basic_string@DU?$char_traits@D@std@@V?$allocator@D@2@@std@@UOpeningInfoType@OpponentModel@UAlbertaBot@@@std@@@2@$0A@@std@@@std@@IBE?AU?$_Tree_find_result@PAU?$_Tree_node@U?$pair@$$CBV?$basic_string@DU?$char_traits@D@std@@V?$allocator@D@2@@std@@UOpeningInfoType@OpponentModel@UAlbertaBot@@@std@@PAX@std@@@1@ABV?$basic_string@DU?$char_traits@D@std@@V?$allocator@D@2@@1@@Z 10050440 f   GameCommander.obj
 0001:0004f440       ??$_Find_lower_bound@V?$basic_string@DU?$char_traits@D@std@@V?$allocator@D@2@@std@@@?$_Tree@V?$_Tmap_traits@V?$basic_string@DU?$char_traits@D@std@@V?$allocator@D@2@@std@@UStrategy@UAlbertaBot@@U?$less@V?$basic_string@DU?$char_traits@D@std@@V?$allocator@D@2@@std@@@2@V?$allocator@U?$pair@$$CBV?$basic_string@DU?$char_traits@D@std@@V?$allocator@D@2@@std@@UStrategy@UAlbertaBot@@@std@@@2@$0A@@std@@@std@@IBE?AU?$_Tree_find_result@PAU?$_Tree_node@U?$pair@$$CBV?$basic_string@DU?$char_traits@D@std@@V?$allocator@D@2@@std@@UStrategy@UAlbertaBot@@@std@@PAX@std@@@1@ABV?$basic_string@DU?$char_traits@D@std@@V?$allocator@D@2@@1@@Z 10050440 f   StrategyManager.obj
 0001:0004f440       ??$_Find_lower_bound@V?$basic_string@DU?$char_traits@D@std@@V?$allocator@D@2@@std@@@?$_Tree@V?$_Tmap_traits@V?$basic_string@DU?$char_traits@D@std@@V?$allocator@D@2@@std@@VSquad@UAlbertaBot@@U?$less@V?$basic_string@DU?$char_traits@D@std@@V?$allocator@D@2@@std@@@2@V?$allocator@U?$pair@$$CBV?$basic_string@DU?$char_traits@D@std@@V?$allocator@D@2@@std@@VSquad@UAlbertaBot@@@std@@@2@$0A@@std@@@std@@IBE?AU?$_Tree_find_result@PAU?$_Tree_node@U?$pair@$$CBV?$basic_string@DU?$char_traits@D@std@@V?$allocator@D@2@@std@@VSquad@UAlbertaBot@@@std@@PAX@std@@@1@ABV?$basic_string@DU?$char_traits@D@std@@V?$allocator@D@2@@1@@Z 10050440 f   SquadData.obj
 0001:0004f510       ??$_Emplace_reallocate@ABV?$basic_string@DU?$char_traits@D@std@@V?$allocator@D@2@@std@@@?$vector@V?$basic_string@DU?$char_traits@D@std@@V?$allocator@D@2@@std@@V?$allocator@V?$basic_string@DU?$char_traits@D@std@@V?$allocator@D@2@@std@@@2@@std@@AAEPAV?$basic_string@DU?$char_traits@D@std@@V?$allocator@D@2@@1@QAV21@ABV21@@Z 10050510 f i GameCommander.obj
 0001:0004f6b0       ??$_Uninitialized_copy_n@PAURecord@GameCommander@UAlbertaBot@@V?$allocator@URecord@GameCommander@UAlbertaBot@@@std@@@std@@YAPAURecord@GameCommander@UAlbertaBot@@PAU123@I0AAV?$allocator@URecord@GameCommander@UAlbertaBot@@@0@@Z 100506b0 f i GameCommander.obj
 0001:0004f750       ??$_Emplace_reallocate@ABURecord@GameCommander@UAlbertaBot@@@?$vector@URecord@GameCommander@UAlbertaBot@@V?$allocator@URecord@GameCommander@UAlbertaBot@@@std@@@std@@AAEPAURecord@GameCommander@UAlbertaBot@@QAU234@ABU234@@Z 10050750 f i GameCommander.obj
 0001:0004f9b0       ??$_Erase_tree@V?$allocator@U?$_Tree_node@U?$pair@$$CBW4Type@TimerManager@UAlbertaBot@@UTimer@3@@std@@PAX@std@@@std@@@?$_Tree_val@U?$_Tree_simple_types@U?$pair@$$CBW4Type@TimerManager@UAlbertaBot@@UTimer@3@@std@@@std@@@std@@QAEXAAV?$allocator@U?$_Tree_node@U?$pair@$$CBW4Type@TimerManager@UAlbertaBot@@UTimer@3@@std@@PAX@std@@@1@PAU?$_Tree_node@U?$pair@$$CBW4Type@TimerManager@UAlbertaBot@@UTimer@3@@std@@PAX@1@@Z 100509b0 f i GameCommander.obj
 0001:0004fa00       ??1?$_Tidy_guard@V?$vector@V?$basic_string@DU?$char_traits@D@std@@V?$allocator@D@2@@std@@V?$allocator@V?$basic_string@DU?$char_traits@D@std@@V?$allocator@D@2@@std@@@2@@std@@@std@@QAE@XZ 10050a00 f i GameCommander.obj
 0001:0004fa10       ??1?$_Tidy_guard@V?$vector@NV?$allocator@N@std@@@std@@@std@@QAE@XZ 10050a10 f i GameCommander.obj
 0001:0004fa70       ??1?$_Tidy_guard@V?$vector@URecord@GameCommander@UAlbertaBot@@V?$allocator@URecord@GameCommander@UAlbertaBot@@@std@@@std@@@std@@QAE@XZ 10050a70 f i GameCommander.obj
 0001:0004fa80       ?_Buy_nonzero@?$vector@NV?$allocator@N@std@@@std@@AAEXI@Z 10050a80 f i GameCommander.obj
 0001:0004fb20       ?insert@?$basic_string@DU?$char_traits@D@std@@V?$allocator@D@2@@std@@QAEAAV12@IQBDI@Z 10050b20 f i GameCommander.obj
 0001:0004fcd0       ?open@?$basic_filebuf@DU?$char_traits@D@std@@@std@@QAEPAV12@PBDHH@Z 10050cd0 f i GameCommander.obj
 0001:0004fe10       ??1?$_Alloc_construct_ptr@V?$allocator@U?$_Tree_node@U?$pair@$$CBV?$basic_string@DU?$char_traits@D@std@@V?$allocator@D@2@@std@@UOpeningInfoType@OpponentModel@UAlbertaBot@@@std@@PAX@std@@@std@@@std@@QAE@XZ 10050e10 f   OpponentModel.obj
 0001:0004fe10       ??1?$_Tree_temp_node_alloc@V?$allocator@U?$_Tree_node@U?$pair@$$CBV?$basic_string@DU?$char_traits@D@std@@V?$allocator@D@2@@std@@UOpeningInfoType@OpponentModel@UAlbertaBot@@@std@@PAX@std@@@std@@@std@@QAE@XZ 10050e10 f   OpponentModel.obj
 0001:0004fe30       ??$_Uninitialized_move@PAV?$basic_string@DU?$char_traits@D@std@@V?$allocator@D@2@@std@@V?$allocator@V?$basic_string@DU?$char_traits@D@std@@V?$allocator@D@2@@std@@@2@@std@@YAPAV?$basic_string@DU?$char_traits@D@std@@V?$allocator@D@2@@0@QAV10@0PAV10@AAV?$allocator@V?$basic_string@DU?$char_traits@D@std@@V?$allocator@D@2@@std@@@0@@Z 10050e30 f i GameCommander.obj
 0001:0004fe90       ??$_Uninitialized_move@PAURecord@GameCommander@UAlbertaBot@@V?$allocator@URecord@GameCommander@UAlbertaBot@@@std@@@std@@YAPAURecord@GameCommander@UAlbertaBot@@QAU123@0PAU123@AAV?$allocator@URecord@GameCommander@UAlbertaBot@@@0@@Z 10050e90 f i GameCommander.obj
 0001:0004ff60       ??1?$_Uninitialized_backout_al@V?$allocator@URecord@GameCommander@UAlbertaBot@@@std@@@std@@QAE@XZ 10050f60 f i GameCommander.obj
 0001:0004ff90       ??1?$_Uninitialized_backout_al@V?$allocator@V?$basic_string@DU?$char_traits@D@std@@V?$allocator@D@2@@std@@@std@@@std@@QAE@XZ 10050f90 f i GameCommander.obj
 0001:0004ffc0       ??1_Reallocation_guard@?$vector@V?$basic_string@DU?$char_traits@D@std@@V?$allocator@D@2@@std@@V?$allocator@V?$basic_string@DU?$char_traits@D@std@@V?$allocator@D@2@@std@@@2@@std@@QAE@XZ 10050fc0 f i GameCommander.obj
 0001:00050030       ?_Change_array@?$vector@V?$basic_string@DU?$char_traits@D@std@@V?$allocator@D@2@@std@@V?$allocator@V?$basic_string@DU?$char_traits@D@std@@V?$allocator@D@2@@std@@@2@@std@@AAEXQAV?$basic_string@DU?$char_traits@D@std@@V?$allocator@D@2@@2@II@Z 10051030 f i GameCommander.obj
 0001:000500d0       ??1_Reallocation_guard@?$vector@URecord@GameCommander@UAlbertaBot@@V?$allocator@URecord@GameCommander@UAlbertaBot@@@std@@@std@@QAE@XZ 100510d0 f i GameCommander.obj
 0001:00050150       ?_Buy_raw@?$vector@URecord@GameCommander@UAlbertaBot@@V?$allocator@URecord@GameCommander@UAlbertaBot@@@std@@@std@@AAEXI@Z 10051150 f i GameCommander.obj
 0001:000501f0       ??$_Traits_compare@U?$char_traits@D@std@@@std@@YAHQBDI0I@Z 100511f0 f i GameCommander.obj
 0001:00050275       ??_E?$basic_ifstream@DU?$char_traits@D@std@@@std@@$4PPPPPPPM@A@AEPAXI@Z 10051275 f i GameCommander.obj
 0001:0005027d       ??_E?$basic_ofstream@DU?$char_traits@D@std@@@std@@$4PPPPPPPM@A@AEPAXI@Z 1005127d f i GameCommander.obj
 0001:00050290       ??0UnitType@BWAPI@@QAE@H@Z 10051290 f i GameRecord.obj
 0001:000502b0       ??0PlayerSnapshot@UAlbertaBot@@QAE@ABV01@@Z 100512b0 f i GameRecord.obj
 0001:00050350       ?readNumber@GameRecord@UAlbertaBot@@IAEHAAV?$basic_istream@DU?$char_traits@D@std@@@std@@@Z 10051350 f   GameRecord.obj
 0001:00050460       ??0game_record_read_error@@QAE@XZ 10051460 f i GameRecord.obj
 0001:00050480       ??0game_record_read_error@@QAE@ABV0@@Z 10051480 f i GameRecord.obj
 0001:000504c0       ?readNumber@GameRecord@UAlbertaBot@@IAEHAAV?$basic_string@DU?$char_traits@D@std@@V?$allocator@D@2@@std@@@Z 100514c0 f   GameRecord.obj
 0001:000505c0       ??_D?$basic_istringstream@DU?$char_traits@D@std@@V?$allocator@D@2@@std@@QAEXXZ 100515c0 f i GameRecord.obj
 0001:00050610       ?readOpeningPlan@GameRecord@UAlbertaBot@@IAE?AW4OpeningPlan@2@AAV?$basic_istream@DU?$char_traits@D@std@@@std@@@Z 10051610 f   GameRecord.obj
 0001:00050760       ?readPlayerSnapshot@GameRecord@UAlbertaBot@@IAE_NAAV?$basic_istream@DU?$char_traits@D@std@@@std@@AAVPlayerSnapshot@2@@Z 10051760 f   GameRecord.obj
 0001:00050a60       ?readGameSnapshot@GameRecord@UAlbertaBot@@IAEPAUGameSnapshot@2@AAV?$basic_istream@DU?$char_traits@D@std@@@std@@@Z 10051a60 f   GameRecord.obj
 0001:00050d20       ?read_v3_0@GameRecord@UAlbertaBot@@IAEXAAV?$basic_istream@DU?$char_traits@D@std@@@std@@@Z 10051d20 f   GameRecord.obj
 0001:000511f0       ?read_v1_4@GameRecord@UAlbertaBot@@IAEXAAV?$basic_istream@DU?$char_traits@D@std@@@std@@@Z 100521f0 f   GameRecord.obj
 0001:000515e0       ?read@GameRecord@UAlbertaBot@@IAEXAAV?$basic_istream@DU?$char_traits@D@std@@@std@@@Z 100525e0 f   GameRecord.obj
 0001:00051880       ?writeSkills@GameRecord@UAlbertaBot@@MBEXAAV?$basic_ostream@DU?$char_traits@D@std@@@std@@@Z 10052880 f   GameRecord.obj
 0001:000518d0       ??0GameRecord@UAlbertaBot@@QAE@XZ 100528d0 f   GameRecord.obj
 0001:00051bb0       ??1?$map@PAVSkill@UAlbertaBot@@V?$map@HV?$vector@HV?$allocator@H@std@@@std@@U?$less@H@2@V?$allocator@U?$pair@$$CBHV?$vector@HV?$allocator@H@std@@@std@@@std@@@2@@std@@U?$less@PAVSkill@UAlbertaBot@@@4@V?$allocator@U?$pair@QAVSkill@UAlbertaBot@@V?$map@HV?$vector@HV?$allocator@H@std@@@std@@U?$less@H@2@V?$allocator@U?$pair@$$CBHV?$vector@HV?$allocator@H@std@@@std@@@std@@@2@@std@@@std@@@4@@std@@QAE@XZ 10052bb0 f i GameRecord.obj
 0001:00051bd0       ??1OpeningTimingRecord@UAlbertaBot@@QAE@XZ 10052bd0 f i GameRecord.obj
 0001:00051c30       ??0GameRecord@UAlbertaBot@@QAE@AAV?$basic_istream@DU?$char_traits@D@std@@@std@@@Z 10052c30 f   GameRecord.obj
 0001:00051e80       ?write@GameRecord@UAlbertaBot@@QAEXAAV?$basic_ostream@DU?$char_traits@D@std@@@std@@@Z 10052e80 f   GameRecord.obj
 0001:00052360       ?setSkillInfo@GameRecord@UAlbertaBot@@QAEXPAVSkill@2@HABV?$vector@HV?$allocator@H@std@@@std@@@Z 10053360 f   GameRecord.obj
 0001:00052510       ??0?$basic_istringstream@DU?$char_traits@D@std@@V?$allocator@D@2@@std@@QAE@ABV?$basic_string@DU?$char_traits@D@std@@V?$allocator@D@2@@1@H@Z 10053510 f i GameRecord.obj
 0001:000525b0       ??_E?$basic_istringstream@DU?$char_traits@D@std@@V?$allocator@D@2@@std@@UAEPAXI@Z 100535b0 f i * CIL library *:* CIL module *
 0001:000525b0       ??_G?$basic_istringstream@DU?$char_traits@D@std@@V?$allocator@D@2@@std@@UAEPAXI@Z 100535b0 f i GameRecord.obj
 0001:00052620       ??$_Erase_tree@V?$allocator@U?$_Tree_node@U?$pair@QAVSkill@UAlbertaBot@@V?$map@HV?$vector@HV?$allocator@H@std@@@std@@U?$less@H@2@V?$allocator@U?$pair@$$CBHV?$vector@HV?$allocator@H@std@@@std@@@std@@@2@@std@@@std@@PAX@std@@@std@@@?$_Tree_val@U?$_Tree_simple_types@U?$pair@QAVSkill@UAlbertaBot@@V?$map@HV?$vector@HV?$allocator@H@std@@@std@@U?$less@H@2@V?$allocator@U?$pair@$$CBHV?$vector@HV?$allocator@H@std@@@std@@@std@@@2@@std@@@std@@@std@@@std@@QAEXAAV?$allocator@U?$_Tree_node@U?$pair@QAVSkill@UAlbertaBot@@V?$map@HV?$vector@HV?$allocator@H@std@@@std@@U?$less@H@2@V?$allocator@U?$pair@$$CBHV?$vector@HV?$allocator@H@std@@@std@@@std@@@2@@std@@@std@@PAX@std@@@1@PAU?$_Tree_node@U?$pair@QAVSkill@UAlbertaBot@@V?$map@HV?$vector@HV?$allocator@H@std@@@std@@U?$less@H@2@V?$allocator@U?$pair@$$CBHV?$vector@HV?$allocator@H@std@@@std@@@std@@@2@@std@@@std@@PAX@1@@Z 10053620 f i GameRecord.obj
 0001:00052680       ??1?$_Tree_head_scoped_ptr@V?$allocator@U?$_Tree_node@U?$pair@$$CBVUnitType@BWAPI@@H@std@@PAX@std@@@std@@V?$_Tree_val@U?$_Tree_simple_types@U?$pair@$$CBVUnitType@BWAPI@@H@std@@@std@@@2@@std@@QAE@XZ 10053680 f i GameRecord.obj
 0001:00052680       ??1?$_Tree_head_scoped_ptr@V?$allocator@U?$_Tree_node@U?$pair@QAVUnitInterface@BWAPI@@_N@std@@PAX@std@@@std@@V?$_Tree_val@U?$_Tree_simple_types@U?$pair@QAVUnitInterface@BWAPI@@_N@std@@@std@@@2@@std@@QAE@XZ 10053680 f i SquadData.obj
 0001:000526b0       ??1?$_Alloc_construct_ptr@V?$allocator@U?$_Tree_node@U?$pair@QAVPlayerInterface@BWAPI@@V?$set@PBVZone@UAlbertaBot@@U?$less@PBVZone@UAlbertaBot@@@std@@V?$allocator@PBVZone@UAlbertaBot@@@4@@std@@@std@@PAX@std@@@std@@@std@@QAE@XZ 100536b0 f i InformationManager.obj
 0001:000526b0       ??1?$_Alloc_construct_ptr@V?$allocator@U?$_Tree_node@U?$pair@QAVSkill@UAlbertaBot@@V?$map@HV?$vector@HV?$allocator@H@std@@@std@@U?$less@H@2@V?$allocator@U?$pair@$$CBHV?$vector@HV?$allocator@H@std@@@std@@@std@@@2@@std@@@std@@PAX@std@@@std@@@std@@QAE@XZ 100536b0 f i GameRecord.obj
 0001:000526b0       ??1?$_Alloc_construct_ptr@V?$allocator@U?$_Tree_node@U?$pair@QAVUnitInterface@BWAPI@@V?$Point@H$0CA@@2@@std@@PAX@std@@@std@@@std@@QAE@XZ 100536b0 f i MicroOverlords.obj
 0001:000526b0       ??1?$_Tree_temp_node_alloc@V?$allocator@U?$_Tree_node@U?$pair@QAVPlayerInterface@BWAPI@@V?$set@PBVZone@UAlbertaBot@@U?$less@PBVZone@UAlbertaBot@@@std@@V?$allocator@PBVZone@UAlbertaBot@@@4@@std@@@std@@PAX@std@@@std@@@std@@QAE@XZ 100536b0 f i InformationManager.obj
 0001:000526b0       ??1?$_Tree_temp_node_alloc@V?$allocator@U?$_Tree_node@U?$pair@QAVSkill@UAlbertaBot@@V?$map@HV?$vector@HV?$allocator@H@std@@@std@@U?$less@H@2@V?$allocator@U?$pair@$$CBHV?$vector@HV?$allocator@H@std@@@std@@@std@@@2@@std@@@std@@PAX@std@@@std@@@std@@QAE@XZ 100536b0 f i GameRecord.obj
 0001:000526d0       ??1?$_Alloc_construct_ptr@V?$allocator@U?$_Tree_node@U?$pair@$$CBHV?$vector@HV?$allocator@H@std@@@std@@@std@@PAX@std@@@std@@@std@@QAE@XZ 100536d0 f i GameRecord.obj
 0001:000526d0       ??1?$_Alloc_construct_ptr@V?$allocator@U?$_Tree_node@U?$pair@QAVUnitInterface@BWAPI@@VCasterState@UAlbertaBot@@@std@@PAX@std@@@std@@@std@@QAE@XZ 100536d0 f i MicroManager.obj
 0001:000526d0       ??1?$_Alloc_construct_ptr@V?$allocator@U?$_Tree_node@U?$pair@QAVUnitInterface@BWAPI@@VWorkerPost@WorkerData@UAlbertaBot@@@std@@PAX@std@@@std@@@std@@QAE@XZ 100536d0 f i WorkerData.obj
 0001:000526d0       ??1?$_Tree_temp_node_alloc@V?$allocator@U?$_Tree_node@U?$pair@QAVUnitInterface@BWAPI@@VWorkerPost@WorkerData@UAlbertaBot@@@std@@PAX@std@@@std@@@std@@QAE@XZ 100536d0 f i WorkerData.obj
 0001:000526f0       ??$_Erase_tree@V?$allocator@U?$_Tree_node@U?$pair@$$CBHV?$vector@HV?$allocator@H@std@@@std@@@std@@PAX@std@@@std@@@?$_Tree_val@U?$_Tree_simple_types@U?$pair@$$CBHV?$vector@HV?$allocator@H@std@@@std@@@std@@@std@@@std@@QAEXAAV?$allocator@U?$_Tree_node@U?$pair@$$CBHV?$vector@HV?$allocator@H@std@@@std@@@std@@PAX@std@@@1@PAU?$_Tree_node@U?$pair@$$CBHV?$vector@HV?$allocator@H@std@@@std@@@std@@PAX@1@@Z 100536f0 f i GameRecord.obj
 0001:0005273c       ??_E?$basic_istringstream@DU?$char_traits@D@std@@V?$allocator@D@2@@std@@$4PPPPPPPM@A@AEPAXI@Z 1005373c f i GameRecord.obj
 0001:00052750       ?writeSkills@GameRecordNow@UAlbertaBot@@MBEXAAV?$basic_ostream@DU?$char_traits@D@std@@@std@@@Z 10053750 f   GameRecordNow.obj
 0001:00052860       ??1GameRecord@UAlbertaBot@@QAE@XZ 10053860 f i GameRecordNow.obj
 0001:000529a0       ?update@GameRecordNow@UAlbertaBot@@QAEXXZ 100539a0 f   GameRecordNow.obj
 0001:00052e10       ??0Grid@UAlbertaBot@@QAE@ABV01@@Z 10053e10 f   Grid.obj
 0001:00052f50       ?get@Grid@UAlbertaBot@@IBEHHH@Z 10053f50 f   Grid.obj
 0001:00052fe0       ?at@Grid@UAlbertaBot@@UBEHHH@Z 10053fe0 f   Grid.obj
 0001:00052fe0       ?at@GridWalk@UAlbertaBot@@UBEHHH@Z 10053fe0 f   GridWalk.obj
 0001:00052ff0       ?at@Grid@UAlbertaBot@@UBEHABV?$Point@H$0CA@@BWAPI@@@Z 10053ff0 f   Grid.obj
 0001:00052ff0       ?at@GridWalk@UAlbertaBot@@UBEHABV?$Point@H$07@BWAPI@@@Z 10053ff0 f   GridWalk.obj
 0001:00053010       ?at@Grid@UAlbertaBot@@UBEHABV?$Point@H$07@BWAPI@@@Z 10054010 f   Grid.obj
 0001:00053050       ?at@Grid@UAlbertaBot@@UBEHABV?$Point@H$00@BWAPI@@@Z 10054050 f   Grid.obj
 0001:00053090       ?at@Grid@UAlbertaBot@@UBEHPAVUnitInterface@BWAPI@@@Z 10054090 f   Grid.obj
 0001:000530c0       ?selfTest@Grid@UAlbertaBot@@UBEXABV?$basic_string@DU?$char_traits@D@std@@V?$allocator@D@2@@std@@@Z 100540c0 f   Grid.obj
 0001:000531d0       ?draw@Grid@UAlbertaBot@@UBEXXZ 100541d0 f   Grid.obj
 0001:00053280       ??$?0V?$allocator@F@std@@$0A@@?$vector@FV?$allocator@F@std@@@std@@QAE@IABFABV?$allocator@F@1@@Z 10054280 f i Grid.obj
 0001:00053300       ??$?0V?$allocator@V?$vector@FV?$allocator@F@std@@@std@@@std@@$0A@@?$vector@V?$vector@FV?$allocator@F@std@@@std@@V?$allocator@V?$vector@FV?$allocator@F@std@@@std@@@2@@std@@QAE@IABV?$vector@FV?$allocator@F@std@@@1@ABV?$allocator@V?$vector@FV?$allocator@F@std@@@std@@@1@@Z 10054300 f i Grid.obj
 0001:00053400       ??1?$_Tidy_guard@V?$vector@V?$vector@FV?$allocator@F@std@@@std@@V?$allocator@V?$vector@FV?$allocator@F@std@@@std@@@2@@std@@@std@@QAE@XZ 10054400 f i Grid.obj
 0001:00053400       ??1?$_Tidy_guard@V?$vector@V?$vector@GV?$allocator@G@std@@@std@@V?$allocator@V?$vector@GV?$allocator@G@std@@@std@@@2@@std@@@std@@QAE@XZ 10054400 f i MapPartitions.obj
 0001:00053410       ?_Buy_nonzero@?$vector@V?$vector@FV?$allocator@F@std@@@std@@V?$allocator@V?$vector@FV?$allocator@F@std@@@std@@@2@@std@@AAEXI@Z 10054410 f i Grid.obj
 0001:000534b0       ?_Buy_nonzero@?$vector@FV?$allocator@F@std@@@std@@AAEXI@Z 100544b0 f i Grid.obj
 0001:00053540       ??1?$_Uninitialized_backout_al@V?$allocator@V?$vector@FV?$allocator@F@std@@@std@@@std@@@std@@QAE@XZ 10054540 f i Grid.obj
 0001:00053540       ??1?$_Uninitialized_backout_al@V?$allocator@V?$vector@GV?$allocator@G@std@@@std@@@std@@@std@@QAE@XZ 10054540 f i MapPartitions.obj
 0001:00053570       ?addTilesInRange@GridAttacks@UAlbertaBot@@AAEXABV?$Point@H$00@BWAPI@@H@Z 10054570 f   GridAttacks.obj
 0001:00053720       ??0GridAttacks@UAlbertaBot@@QAE@W4Selection@01@@Z 10054720 f   GridAttacks.obj
 0001:000537e0       ?update@GridAttacks@UAlbertaBot@@QAEXXZ 100547e0 f   GridAttacks.obj
 0001:00053f10       ?inRange@GridAttacks@UAlbertaBot@@QBE_NABV?$Point@H$0CA@@BWAPI@@0@Z 10054f10 f   GridAttacks.obj
 0001:00053fb0       ??$fill@V?$_Vector_iterator@V?$_Vector_val@U?$_Simple_types@F@std@@@std@@@std@@H@std@@YAXV?$_Vector_iterator@V?$_Vector_val@U?$_Simple_types@F@std@@@std@@@0@0ABH@Z 10054fb0 f i GridAttacks.obj
 0001:00054090       ?compute@GridBuildable@UAlbertaBot@@QAEXXZ 10055090 f   GridBuildable.obj
 0001:000542e0       ??0GridDistances@UAlbertaBot@@QAE@ABV?$Point@H$0CA@@BWAPI@@_N@Z 100552e0 f   GridDistances.obj
 0001:000543d0       ??0GridDistances@UAlbertaBot@@QAE@ABV?$Point@H$0CA@@BWAPI@@H_N@Z 100553d0 f   GridDistances.obj
 0001:000544b0       ?compute@GridDistances@UAlbertaBot@@AAEXABV?$Point@H$0CA@@BWAPI@@H_N@Z 100554b0 f   GridDistances.obj
 0001:00054710       ?reserve@?$vector@V?$Point@H$0CA@@BWAPI@@V?$allocator@V?$Point@H$0CA@@BWAPI@@@std@@@std@@QAEXI@Z 10055710 f i GridDistances.obj
 0001:00054770       ?initialize@GridInset@UAlbertaBot@@QAEXXZ 10055770 f   GridInset.obj
 0001:00055160       ?draw@GridInset@UAlbertaBot@@UBEXXZ 10056160 f   GridInset.obj
 0001:00055270       ?initialize@GridRoom@UAlbertaBot@@QAEXXZ 10056270 f   GridRoom.obj
 0001:00055740       ?draw@GridRoom@UAlbertaBot@@UBEXXZ 10056740 f   GridRoom.obj
 0001:00055850       ??0GridSafePath@UAlbertaBot@@QAE@ABV?$Point@H$0CA@@BWAPI@@@Z 10056850 f   GridSafePath.obj
 0001:00055a00       ?update@GridSafePathGround@UAlbertaBot@@UAEXPAVGridAttacks@2@@Z 10056a00 f   GridSafePath.obj
 0001:00055ea0       ?update@GridSafePathAir@UAlbertaBot@@UAEXPAVGridAttacks@2@@Z 10056ea0 f   GridSafePath.obj
 0001:00056300       ?completed@Task@UAlbertaBot@@UAE_NXZ 10057300 f i GridTasks.obj
 0001:00056300       ?feasible@SkillBattles@UAlbertaBot@@UBE_NXZ 10057300 f i SkillBattles.obj
 0001:00056300       ?feasible@SkillOpeningTiming@UAlbertaBot@@UBE_NXZ 10057300 f i SkillOpeningTiming.obj
 0001:00056300       ?feasible@SkillUnitTimings@UAlbertaBot@@UBE_NXZ 10057300 f i SkillUnitTimings.obj
 0001:00056300       ?good@SkillBattles@UAlbertaBot@@UBE_NXZ 10057300 f i SkillBattles.obj
 0001:00056300       ?good@SkillOpeningTiming@UAlbertaBot@@UBE_NXZ 10057300 f i SkillOpeningTiming.obj
 0001:00056300       ?good@SkillUnitTimings@UAlbertaBot@@UBE_NXZ 10057300 f i SkillUnitTimings.obj
 0001:00056310       ?enabled@GridTask@UAlbertaBot@@UBE_NXZ 10057310 f i GridTasks.obj
 0001:00056310       ?enabled@SkillBattles@UAlbertaBot@@UBE_NXZ 10057310 f i SkillBattles.obj
 0001:00056310       ?enabled@SkillOpeningTiming@UAlbertaBot@@UBE_NXZ 10057310 f i SkillOpeningTiming.obj
 0001:00056310       ?enabled@SkillUnitTimings@UAlbertaBot@@UBE_NXZ 10057310 f i SkillUnitTimings.obj
 0001:00056310       ?good@SkillLurkers@UAlbertaBot@@UBE_NXZ 10057310 f i SkillLurkers.obj
 0001:00056310       ___acrt_initialize         10057310 f i MSVCRT:ucrt_stubs.obj
 0001:00056310       ___acrt_thread_attach      10057310 f i MSVCRT:ucrt_stubs.obj
 0001:00056310       ___acrt_thread_detach      10057310 f i MSVCRT:ucrt_stubs.obj
 0001:00056310       ___acrt_uninitialize       10057310 f i MSVCRT:ucrt_stubs.obj
 0001:00056310       ___acrt_uninitialize_critical 10057310 f i MSVCRT:ucrt_stubs.obj
 0001:00056310       ___scrt_stub_for_acrt_initialize 10057310 f i MSVCRT:ucrt_stubs.obj
 0001:00056310       ___scrt_stub_for_acrt_thread_attach 10057310 f i MSVCRT:ucrt_stubs.obj
 0001:00056310       ___scrt_stub_for_acrt_thread_detach 10057310 f i MSVCRT:ucrt_stubs.obj
 0001:00056310       ___scrt_stub_for_acrt_uninitialize 10057310 f i MSVCRT:ucrt_stubs.obj
 0001:00056310       ___scrt_stub_for_acrt_uninitialize_critical 10057310 f i MSVCRT:ucrt_stubs.obj
 0001:00056310       ___vcrt_initialize         10057310 f i MSVCRT:ucrt_stubs.obj
 0001:00056310       ___vcrt_thread_attach      10057310 f i MSVCRT:ucrt_stubs.obj
 0001:00056310       ___vcrt_thread_detach      10057310 f i MSVCRT:ucrt_stubs.obj
 0001:00056310       ___vcrt_uninitialize       10057310 f i MSVCRT:ucrt_stubs.obj
 0001:00056310       ___vcrt_uninitialize_critical 10057310 f i MSVCRT:ucrt_stubs.obj
 0001:00056320       ?initialize@GroundHitsFixedTask@UAlbertaBot@@UAEXXZ 10057320 f   GridTasks.obj
 0001:00056340       ?update@GroundHitsFixedTask@UAlbertaBot@@UAEXXZ 10057340 f   GridTasks.obj
 0001:00056360       ?initialize@AirHitsFixedTask@UAlbertaBot@@UAEXXZ 10057360 f   GridTasks.obj
 0001:00056380       ?update@AirHitsFixedTask@UAlbertaBot@@UAEXXZ 10057380 f   GridTasks.obj
 0001:000563a0       ?initialize@GroundHitsMobileTask@UAlbertaBot@@UAEXXZ 100573a0 f   GridTasks.obj
 0001:000563c0       ?update@GroundHitsMobileTask@UAlbertaBot@@UAEXXZ 100573c0 f   GridTasks.obj
 0001:000563e0       ?initialize@AirHitsMobileTask@UAlbertaBot@@UAEXXZ 100573e0 f   GridTasks.obj
 0001:00056400       ?update@AirHitsMobileTask@UAlbertaBot@@UAEXXZ 10057400 f   GridTasks.obj
 0001:00056420       ?update@GroundSafePathTask@UAlbertaBot@@UAEXXZ 10057420 f   GridTasks.obj
 0001:00056510       ?draw@AirSafePathTask@UAlbertaBot@@UBEXXZ 10057510 f   GridTasks.obj
 0001:00056510       ?draw@GroundSafePathTask@UAlbertaBot@@UBEXXZ 10057510 f   GridTasks.obj
 0001:00056530       ?update@AirSafePathTask@UAlbertaBot@@UAEXXZ 10057530 f   GridTasks.obj
 0001:00056620       ?initialize@GridTileRoom@UAlbertaBot@@QAEXXZ 10057620 f   GridTileRoom.obj
 0001:00056810       ?draw@GridTileRoom@UAlbertaBot@@UBEXXZ 10057810 f   GridTileRoom.obj
 0001:000568b0       ?at@GridWalk@UAlbertaBot@@UBEHABV?$Point@H$0CA@@BWAPI@@@Z 100578b0 f   GridWalk.obj
 0001:000568e0       ?at@GridWalk@UAlbertaBot@@UBEHABV?$Point@H$00@BWAPI@@@Z 100578e0 f   GridWalk.obj
 0001:00056920       ?at@GridWalk@UAlbertaBot@@UBEHPAVUnitInterface@BWAPI@@@Z 10057920 f   GridWalk.obj
 0001:00056950       ?mergeInto@Zone@UAlbertaBot@@AAEXPAV12@@Z 10057950 f   GridZone.obj
 0001:00056bf0       ?sanityCheck@GridZone@UAlbertaBot@@AAEXXZ 10057bf0 f   GridZone.obj
 0001:000570a0       ??1?$map@HIU?$less@H@std@@V?$allocator@U?$pair@$$CBHI@std@@@2@@std@@QAE@XZ 100580a0 f i GridZone.obj
 0001:000570a0       ??1?$map@PAVUnitInterface@BWAPI@@HU?$less@PAVUnitInterface@BWAPI@@@std@@V?$allocator@U?$pair@QAVUnitInterface@BWAPI@@H@std@@@4@@std@@QAE@XZ 100580a0 f i WorkerData.obj
 0001:000570a0       ??1?$map@W4LurkerTactic@UAlbertaBot@@HU?$less@W4LurkerTactic@UAlbertaBot@@@std@@V?$allocator@U?$pair@$$CBW4LurkerTactic@UAlbertaBot@@H@std@@@4@@std@@QAE@XZ 100580a0 f i SkillLurkers.obj
 0001:000570b0       ?initialize@GridZone@UAlbertaBot@@QAEXXZ 100580b0 f   GridZone.obj
 0001:00057ae0       ?ptr@GridZone@UAlbertaBot@@QAEPAVZone@2@H@Z 10058ae0 f   GridZone.obj
 0001:00057b50       ??$insert@$0A@$0A@@?$_Tree@V?$_Tset_traits@PAVZone@UAlbertaBot@@U?$less@PAVZone@UAlbertaBot@@@std@@V?$allocator@PAVZone@UAlbertaBot@@@4@$0A@@std@@@std@@QAE?AU?$pair@V?$_Tree_const_iterator@V?$_Tree_val@U?$_Tree_simple_types@PAVZone@UAlbertaBot@@@std@@@std@@@std@@_N@1@ABQAVZone@UAlbertaBot@@@Z 10058b50 f i GridZone.obj
 0001:00057c20       ??A?$map@HIU?$less@H@std@@V?$allocator@U?$pair@$$CBHI@std@@@2@@std@@QAEAAI$$QAH@Z 10058c20 f i GridZone.obj
 0001:00057d00       ?clear@?$_Tree@V?$_Tset_traits@PAVZone@UAlbertaBot@@U?$less@PAVZone@UAlbertaBot@@@std@@V?$allocator@PAVZone@UAlbertaBot@@@4@$0A@@std@@@std@@QAEXXZ 10058d00 f i GridZone.obj
 0001:00057d50       ??$_Erase_tree@V?$allocator@U?$_Tree_node@PAVUnitInterface@BWAPI@@PAX@std@@@std@@@?$_Tree_val@U?$_Tree_simple_types@PAVUnitInterface@BWAPI@@@std@@@std@@QAEXAAV?$allocator@U?$_Tree_node@PAVUnitInterface@BWAPI@@PAX@std@@@1@PAU?$_Tree_node@PAVUnitInterface@BWAPI@@PAX@1@@Z 10058d50 f i WorkerManager.obj
 0001:00057d50       ??$_Erase_tree@V?$allocator@U?$_Tree_node@PAVZone@UAlbertaBot@@PAX@std@@@std@@@?$_Tree_val@U?$_Tree_simple_types@PAVZone@UAlbertaBot@@@std@@@std@@QAEXAAV?$allocator@U?$_Tree_node@PAVZone@UAlbertaBot@@PAX@std@@@1@PAU?$_Tree_node@PAVZone@UAlbertaBot@@PAX@1@@Z 10058d50 f i GridZone.obj
 0001:00057d50       ??$_Erase_tree@V?$allocator@U?$_Tree_node@PBVZone@UAlbertaBot@@PAX@std@@@std@@@?$_Tree_val@U?$_Tree_simple_types@PBVZone@UAlbertaBot@@@std@@@std@@QAEXAAV?$allocator@U?$_Tree_node@PBVZone@UAlbertaBot@@PAX@std@@@1@PAU?$_Tree_node@PBVZone@UAlbertaBot@@PAX@1@@Z 10058d50 f i InformationManager.obj
 0001:00057d50       ??$_Erase_tree@V?$allocator@U?$_Tree_node@VUnitType@BWAPI@@PAX@std@@@std@@@?$_Tree_val@U?$_Tree_simple_types@VUnitType@BWAPI@@@std@@@std@@QAEXAAV?$allocator@U?$_Tree_node@VUnitType@BWAPI@@PAX@std@@@1@PAU?$_Tree_node@VUnitType@BWAPI@@PAX@1@@Z 10058d50 f i MacroAct.obj
 0001:00057d50       ??$_Erase_tree@V?$allocator@U?$_Tree_node@W4OpeningPlan@UAlbertaBot@@PAX@std@@@std@@@?$_Tree_val@U?$_Tree_simple_types@W4OpeningPlan@UAlbertaBot@@@std@@@std@@QAEXAAV?$allocator@U?$_Tree_node@W4OpeningPlan@UAlbertaBot@@PAX@std@@@1@PAU?$_Tree_node@W4OpeningPlan@UAlbertaBot@@PAX@1@@Z 10058d50 f i OpponentModel.obj
 0001:00057d90       ??1?$_Alloc_construct_ptr@V?$allocator@U?$_Tree_node@PAVUnitInterface@BWAPI@@PAX@std@@@std@@@std@@QAE@XZ 10058d90 f i WorkerData.obj
 0001:00057d90       ??1?$_Alloc_construct_ptr@V?$allocator@U?$_Tree_node@PAVZone@UAlbertaBot@@PAX@std@@@std@@@std@@QAE@XZ 10058d90 f i GridZone.obj
 0001:00057d90       ??1?$_Alloc_construct_ptr@V?$allocator@U?$_Tree_node@PBVZone@UAlbertaBot@@PAX@std@@@std@@@std@@QAE@XZ 10058d90 f i InformationManager.obj
 0001:00057d90       ??1?$_Alloc_construct_ptr@V?$allocator@U?$_Tree_node@VTechType@BWAPI@@PAX@std@@@std@@@std@@QAE@XZ 10058d90 f i SkillOpeningTiming.obj
 0001:00057d90       ??1?$_Alloc_construct_ptr@V?$allocator@U?$_Tree_node@VUnitType@BWAPI@@PAX@std@@@std@@@std@@QAE@XZ 10058d90 f i MacroAct.obj
 0001:00057d90       ??1?$_Alloc_construct_ptr@V?$allocator@U?$_Tree_node@W4OpeningPlan@UAlbertaBot@@PAX@std@@@std@@@std@@QAE@XZ 10058d90 f i OpponentModel.obj
 0001:00057db0       ?_Extract@?$_Tree_val@U?$_Tree_simple_types@PAVZone@UAlbertaBot@@@std@@@std@@QAEPAU?$_Tree_node@PAVZone@UAlbertaBot@@PAX@2@V?$_Tree_unchecked_const_iterator@V?$_Tree_val@U?$_Tree_simple_types@PAVZone@UAlbertaBot@@@std@@@std@@U_Iterator_base0@2@@2@@Z 10058db0 f i GridZone.obj
 0001:00057db0       ?_Extract@?$_Tree_val@U?$_Tree_simple_types@U?$pair@$$CBV?$basic_string@DU?$char_traits@D@std@@V?$allocator@D@2@@std@@PAVTask@UAlbertaBot@@@std@@@std@@@std@@QAEPAU?$_Tree_node@U?$pair@$$CBV?$basic_string@DU?$char_traits@D@std@@V?$allocator@D@2@@std@@PAVTask@UAlbertaBot@@@std@@PAX@2@V?$_Tree_unchecked_const_iterator@V?$_Tree_val@U?$_Tree_simple_types@U?$pair@$$CBV?$basic_string@DU?$char_traits@D@std@@V?$allocator@D@2@@std@@PAVTask@UAlbertaBot@@@std@@@std@@@std@@U_Iterator_base0@2@@2@@Z 10058db0 f i Tasks.obj
 0001:00057db0       ?_Extract@?$_Tree_val@U?$_Tree_simple_types@U?$pair@$$CBV?$basic_string@DU?$char_traits@D@std@@V?$allocator@D@2@@std@@VSquad@UAlbertaBot@@@std@@@std@@@std@@QAEPAU?$_Tree_node@U?$pair@$$CBV?$basic_string@DU?$char_traits@D@std@@V?$allocator@D@2@@std@@VSquad@UAlbertaBot@@@std@@PAX@2@V?$_Tree_unchecked_const_iterator@V?$_Tree_val@U?$_Tree_simple_types@U?$pair@$$CBV?$basic_string@DU?$char_traits@D@std@@V?$allocator@D@2@@std@@VSquad@UAlbertaBot@@@std@@@std@@@std@@U_Iterator_base0@2@@2@@Z 10058db0 f i SquadData.obj
 0001:00057db0       ?_Extract@?$_Tree_val@U?$_Tree_simple_types@U?$pair@QAVUnitInterface@BWAPI@@H@std@@@std@@@std@@QAEPAU?$_Tree_node@U?$pair@QAVUnitInterface@BWAPI@@H@std@@PAX@2@V?$_Tree_unchecked_const_iterator@V?$_Tree_val@U?$_Tree_simple_types@U?$pair@QAVUnitInterface@BWAPI@@H@std@@@std@@@std@@U_Iterator_base0@2@@2@@Z 10058db0 f i WorkerData.obj
 0001:00057db0       ?_Extract@?$_Tree_val@U?$_Tree_simple_types@U?$pair@QAVUnitInterface@BWAPI@@PAV12@@std@@@std@@@std@@QAEPAU?$_Tree_node@U?$pair@QAVUnitInterface@BWAPI@@PAV12@@std@@PAX@2@V?$_Tree_unchecked_const_iterator@V?$_Tree_val@U?$_Tree_simple_types@U?$pair@QAVUnitInterface@BWAPI@@PAV12@@std@@@std@@@std@@U_Iterator_base0@2@@2@@Z 10058db0 f i MicroMutas.obj
 0001:00057db0       ?_Extract@?$_Tree_val@U?$_Tree_simple_types@U?$pair@QAVUnitInterface@BWAPI@@UUnitInfo@UAlbertaBot@@@std@@@std@@@std@@QAEPAU?$_Tree_node@U?$pair@QAVUnitInterface@BWAPI@@UUnitInfo@UAlbertaBot@@@std@@PAX@2@V?$_Tree_unchecked_const_iterator@V?$_Tree_val@U?$_Tree_simple_types@U?$pair@QAVUnitInterface@BWAPI@@UUnitInfo@UAlbertaBot@@@std@@@std@@@std@@U_Iterator_base0@2@@2@@Z 10058db0 f i UnitData.obj
 0001:00057db0       ?_Extract@?$_Tree_val@U?$_Tree_simple_types@U?$pair@QAVUnitInterface@BWAPI@@V?$Point@H$0CA@@2@@std@@@std@@@std@@QAEPAU?$_Tree_node@U?$pair@QAVUnitInterface@BWAPI@@V?$Point@H$0CA@@2@@std@@PAX@2@V?$_Tree_unchecked_const_iterator@V?$_Tree_val@U?$_Tree_simple_types@U?$pair@QAVUnitInterface@BWAPI@@V?$Point@H$0CA@@2@@std@@@std@@@std@@U_Iterator_base0@2@@2@@Z 10058db0 f i MicroOverlords.obj
 0001:00057db0       ?_Extract@?$_Tree_val@U?$_Tree_simple_types@U?$pair@QAVUnitInterface@BWAPI@@VCasterState@UAlbertaBot@@@std@@@std@@@std@@QAEPAU?$_Tree_node@U?$pair@QAVUnitInterface@BWAPI@@VCasterState@UAlbertaBot@@@std@@PAX@2@V?$_Tree_unchecked_const_iterator@V?$_Tree_val@U?$_Tree_simple_types@U?$pair@QAVUnitInterface@BWAPI@@VCasterState@UAlbertaBot@@@std@@@std@@@std@@U_Iterator_base0@2@@2@@Z 10058db0 f i MicroManager.obj
 0001:00057db0       ?_Extract@?$_Tree_val@U?$_Tree_simple_types@U?$pair@QAVUnitInterface@BWAPI@@VMicroState@UAlbertaBot@@@std@@@std@@@std@@QAEPAU?$_Tree_node@U?$pair@QAVUnitInterface@BWAPI@@VMicroState@UAlbertaBot@@@std@@PAX@2@V?$_Tree_unchecked_const_iterator@V?$_Tree_val@U?$_Tree_simple_types@U?$pair@QAVUnitInterface@BWAPI@@VMicroState@UAlbertaBot@@@std@@@std@@@std@@U_Iterator_base0@2@@2@@Z 10058db0 f i Micro.obj
 0001:00057db0       ?_Extract@?$_Tree_val@U?$_Tree_simple_types@U?$pair@QAVUnitInterface@BWAPI@@VWorkerPost@WorkerData@UAlbertaBot@@@std@@@std@@@std@@QAEPAU?$_Tree_node@U?$pair@QAVUnitInterface@BWAPI@@VWorkerPost@WorkerData@UAlbertaBot@@@std@@PAX@2@V?$_Tree_unchecked_const_iterator@V?$_Tree_val@U?$_Tree_simple_types@U?$pair@QAVUnitInterface@BWAPI@@VWorkerPost@WorkerData@UAlbertaBot@@@std@@@std@@@std@@U_Iterator_base0@2@@2@@Z 10058db0 f i WorkerData.obj
 0001:00057db0       ?_Extract@?$_Tree_val@U?$_Tree_simple_types@U?$pair@QAVUnitInterface@BWAPI@@W4WorkerJob@WorkerData@UAlbertaBot@@@std@@@std@@@std@@QAEPAU?$_Tree_node@U?$pair@QAVUnitInterface@BWAPI@@W4WorkerJob@WorkerData@UAlbertaBot@@@std@@PAX@2@V?$_Tree_unchecked_const_iterator@V?$_Tree_val@U?$_Tree_simple_types@U?$pair@QAVUnitInterface@BWAPI@@W4WorkerJob@WorkerData@UAlbertaBot@@@std@@@std@@@std@@U_Iterator_base0@2@@2@@Z 10058db0 f i WorkerData.obj
 0001:00058210       ??0InformationManager@UAlbertaBot@@AAE@XZ 10059210 f   InformationManager.obj
 0001:000583d0       ??1?$map@PAVPlayerInterface@BWAPI@@VUnitData@UAlbertaBot@@U?$less@PAVPlayerInterface@BWAPI@@@std@@V?$allocator@U?$pair@QAVPlayerInterface@BWAPI@@VUnitData@UAlbertaBot@@@std@@@6@@std@@QAE@XZ 100593d0 f i InformationManager.obj
 0001:000583f0       ??1?$map@PAVPlayerInterface@BWAPI@@V?$set@PBVZone@UAlbertaBot@@U?$less@PBVZone@UAlbertaBot@@@std@@V?$allocator@PBVZone@UAlbertaBot@@@4@@std@@U?$less@PAVPlayerInterface@BWAPI@@@4@V?$allocator@U?$pair@QAVPlayerInterface@BWAPI@@V?$set@PBVZone@UAlbertaBot@@U?$less@PBVZone@UAlbertaBot@@@std@@V?$allocator@PBVZone@UAlbertaBot@@@4@@std@@@std@@@4@@std@@QAE@XZ 100593f0 f i InformationManager.obj
 0001:00058410       ??1?$map@PAVUnitInterface@BWAPI@@VUnitset@2@U?$less@PAVUnitInterface@BWAPI@@@std@@V?$allocator@U?$pair@QAVUnitInterface@BWAPI@@VUnitset@2@@std@@@5@@std@@QAE@XZ 10059410 f i InformationManager.obj
 0001:00058420       ?initializeResources@InformationManager@UAlbertaBot@@AAEXXZ 10059420 f   InformationManager.obj
 0001:00058530       ?update@InformationManager@UAlbertaBot@@QAEXXZ 10059530 f   InformationManager.obj
 0001:000587f0       ?updateUnitInfo@InformationManager@UAlbertaBot@@AAEXXZ 100597f0 f   InformationManager.obj
 0001:00058a60       ?updateBaseLocationInfo@InformationManager@UAlbertaBot@@AAEXXZ 10059a60 f   InformationManager.obj
 0001:00058cc0       ?updateOccupiedRegions@InformationManager@UAlbertaBot@@AAEXPBVZone@2@PAVPlayerInterface@BWAPI@@@Z 10059cc0 f   InformationManager.obj
 0001:00058da0       ?updateGoneFromLastPosition@InformationManager@UAlbertaBot@@AAEXXZ 10059da0 f   InformationManager.obj
 0001:000590f0       ?updateTheirTargets@InformationManager@UAlbertaBot@@AAEXXZ 1005a0f0 f   InformationManager.obj
 0001:00059300       ?updateResources@InformationManager@UAlbertaBot@@AAEXXZ 1005a300 f   InformationManager.obj
 0001:000594b0       ?drawExtendedInterface@InformationManager@UAlbertaBot@@QAEXXZ 1005a4b0 f   InformationManager.obj
 0001:00059d80       ?drawUnitInformation@InformationManager@UAlbertaBot@@QAEXHH@Z 1005ad80 f   InformationManager.obj
 0001:0005a090       ?drawResourceAmounts@InformationManager@UAlbertaBot@@QBEXXZ 1005b090 f   InformationManager.obj
 0001:0005a280       ?getNearbyForce@InformationManager@UAlbertaBot@@QAEXAAV?$vector@UUnitInfo@UAlbertaBot@@V?$allocator@UUnitInfo@UAlbertaBot@@@std@@@std@@V?$Point@H$00@BWAPI@@PAVPlayerInterface@6@H@Z 1005b280 f   InformationManager.obj
 0001:0005a4b0       ?weHaveCombatUnits@InformationManager@UAlbertaBot@@QAE_NXZ 1005b4b0 f   InformationManager.obj
 0001:0005a580       ?enemyHasStaticAntiAir@InformationManager@UAlbertaBot@@QAE_NXZ 1005b580 f   InformationManager.obj
 0001:0005a650       ?enemyHasAntiAir@InformationManager@UAlbertaBot@@QAE_NXZ 1005b650 f   InformationManager.obj
 0001:0005a7c0       ?enemyHasAirTech@InformationManager@UAlbertaBot@@QAE_NXZ 1005b7c0 f   InformationManager.obj
 0001:0005a900       ?enemyHasCloakTech@InformationManager@UAlbertaBot@@QAE_NXZ 1005b900 f   InformationManager.obj
 0001:0005aa20       ?enemyHasOverlordHunters@InformationManager@UAlbertaBot@@QAE_NXZ 1005ba20 f   InformationManager.obj
 0001:0005ab20       ?remainingBuildTime@InformationManager@UAlbertaBot@@QBEHVUnitType@BWAPI@@@Z 1005bb20 f   InformationManager.obj
 0001:0005ab90       ?enemyHasStaticDetection@InformationManager@UAlbertaBot@@QAE_NXZ 1005bb90 f   InformationManager.obj
 0001:0005ac40       ?enemyHasMobileDetection@InformationManager@UAlbertaBot@@QAE_NXZ 1005bc40 f   InformationManager.obj
 0001:0005ad10       ?enemyHasSiegeMode@InformationManager@UAlbertaBot@@QAE_NXZ 1005bd10 f   InformationManager.obj
 0001:0005ae00       ?weHaveCloakTech@InformationManager@UAlbertaBot@@QBE_NXZ 1005be00 f   InformationManager.obj
 0001:0005af30       ?nearestAirStaticDefense@InformationManager@UAlbertaBot@@QBEPAVUnitInterface@BWAPI@@V?$Point@H$00@4@@Z 1005bf30 f   InformationManager.obj
 0001:0005b060       ?Instance@InformationManager@UAlbertaBot@@SAAAV12@XZ 1005c060 f   InformationManager.obj
 0001:0005b0f0       ??$insert@U?$pair@PAVUnitInterface@BWAPI@@VResourceInfo@UAlbertaBot@@@std@@$0A@@?$map@PAVUnitInterface@BWAPI@@VResourceInfo@UAlbertaBot@@U?$less@PAVUnitInterface@BWAPI@@@std@@V?$allocator@U?$pair@QAVUnitInterface@BWAPI@@VResourceInfo@UAlbertaBot@@@std@@@6@@std@@QAE?AU?$pair@V?$_Tree_iterator@V?$_Tree_val@U?$_Tree_simple_types@U?$pair@QAVUnitInterface@BWAPI@@VResourceInfo@UAlbertaBot@@@std@@@std@@@std@@@std@@_N@1@$$QAU?$pair@PAVUnitInterface@BWAPI@@VResourceInfo@UAlbertaBot@@@1@@Z 1005c0f0 f i InformationManager.obj
 0001:0005b1e0       ??1?$_Tree@V?$_Tmap_traits@PAVUnitInterface@BWAPI@@VResourceInfo@UAlbertaBot@@U?$less@PAVUnitInterface@BWAPI@@@std@@V?$allocator@U?$pair@QAVUnitInterface@BWAPI@@VResourceInfo@UAlbertaBot@@@std@@@6@$0A@@std@@@std@@QAE@XZ 1005c1e0 f i InformationManager.obj
 0001:0005b220       ??1?$_Tree@V?$_Tmap_traits@PAVUnitInterface@BWAPI@@VUnitset@2@U?$less@PAVUnitInterface@BWAPI@@@std@@V?$allocator@U?$pair@QAVUnitInterface@BWAPI@@VUnitset@2@@std@@@5@$0A@@std@@@std@@QAE@XZ 1005c220 f i InformationManager.obj
 0001:0005b270       ??A?$map@PAVPlayerInterface@BWAPI@@V?$set@PBVZone@UAlbertaBot@@U?$less@PBVZone@UAlbertaBot@@@std@@V?$allocator@PBVZone@UAlbertaBot@@@4@@std@@U?$less@PAVPlayerInterface@BWAPI@@@4@V?$allocator@U?$pair@QAVPlayerInterface@BWAPI@@V?$set@PBVZone@UAlbertaBot@@U?$less@PBVZone@UAlbertaBot@@@std@@V?$allocator@PBVZone@UAlbertaBot@@@4@@std@@@std@@@4@@std@@QAEAAV?$set@PBVZone@UAlbertaBot@@U?$less@PBVZone@UAlbertaBot@@@std@@V?$allocator@PBVZone@UAlbertaBot@@@4@@1@ABQAVPlayerInterface@BWAPI@@@Z 1005c270 f i InformationManager.obj
 0001:0005b390       ??A?$map@PAVPlayerInterface@BWAPI@@VUnitData@UAlbertaBot@@U?$less@PAVPlayerInterface@BWAPI@@@std@@V?$allocator@U?$pair@QAVPlayerInterface@BWAPI@@VUnitData@UAlbertaBot@@@std@@@6@@std@@QAEAAVUnitData@UAlbertaBot@@ABQAVPlayerInterface@BWAPI@@@Z 1005c390 f i InformationManager.obj
 0001:0005b460       ??A?$map@PAVPlayerInterface@BWAPI@@VUnitData@UAlbertaBot@@U?$less@PAVPlayerInterface@BWAPI@@@std@@V?$allocator@U?$pair@QAVPlayerInterface@BWAPI@@VUnitData@UAlbertaBot@@@std@@@6@@std@@QAEAAVUnitData@UAlbertaBot@@$$QAPAVPlayerInterface@BWAPI@@@Z 1005c460 f i InformationManager.obj
 0001:0005b530       ??$_Erase_tree@V?$allocator@U?$_Tree_node@U?$pair@QAVUnitInterface@BWAPI@@VUnitset@2@@std@@PAX@std@@@std@@@?$_Tree_val@U?$_Tree_simple_types@U?$pair@QAVUnitInterface@BWAPI@@VUnitset@2@@std@@@std@@@std@@QAEXAAV?$allocator@U?$_Tree_node@U?$pair@QAVUnitInterface@BWAPI@@VUnitset@2@@std@@PAX@std@@@1@PAU?$_Tree_node@U?$pair@QAVUnitInterface@BWAPI@@VUnitset@2@@std@@PAX@1@@Z 1005c530 f i InformationManager.obj
 0001:0005b580       ??$_Erase_tree@V?$allocator@U?$_Tree_node@U?$pair@QAVUnitInterface@BWAPI@@VResourceInfo@UAlbertaBot@@@std@@PAX@std@@@std@@@?$_Tree_val@U?$_Tree_simple_types@U?$pair@QAVUnitInterface@BWAPI@@VResourceInfo@UAlbertaBot@@@std@@@std@@@std@@QAEXAAV?$allocator@U?$_Tree_node@U?$pair@QAVUnitInterface@BWAPI@@VResourceInfo@UAlbertaBot@@@std@@PAX@std@@@1@PAU?$_Tree_node@U?$pair@QAVUnitInterface@BWAPI@@VResourceInfo@UAlbertaBot@@@std@@PAX@1@@Z 1005c580 f i InformationManager.obj
 0001:0005b5c0       ??$_Erase_tree@V?$allocator@U?$_Tree_node@U?$pair@QAVPlayerInterface@BWAPI@@V?$set@PBVZone@UAlbertaBot@@U?$less@PBVZone@UAlbertaBot@@@std@@V?$allocator@PBVZone@UAlbertaBot@@@4@@std@@@std@@PAX@std@@@std@@@?$_Tree_val@U?$_Tree_simple_types@U?$pair@QAVPlayerInterface@BWAPI@@V?$set@PBVZone@UAlbertaBot@@U?$less@PBVZone@UAlbertaBot@@@std@@V?$allocator@PBVZone@UAlbertaBot@@@4@@std@@@std@@@std@@@std@@QAEXAAV?$allocator@U?$_Tree_node@U?$pair@QAVPlayerInterface@BWAPI@@V?$set@PBVZone@UAlbertaBot@@U?$less@PBVZone@UAlbertaBot@@@std@@V?$allocator@PBVZone@UAlbertaBot@@@4@@std@@@std@@PAX@std@@@1@PAU?$_Tree_node@U?$pair@QAVPlayerInterface@BWAPI@@V?$set@PBVZone@UAlbertaBot@@U?$less@PBVZone@UAlbertaBot@@@std@@V?$allocator@PBVZone@UAlbertaBot@@@4@@std@@@std@@PAX@1@@Z 1005c5c0 f i InformationManager.obj
 0001:0005b620       ??$_Erase_tree@V?$allocator@U?$_Tree_node@U?$pair@QAVPlayerInterface@BWAPI@@VUnitData@UAlbertaBot@@@std@@PAX@std@@@std@@@?$_Tree_val@U?$_Tree_simple_types@U?$pair@QAVPlayerInterface@BWAPI@@VUnitData@UAlbertaBot@@@std@@@std@@@std@@QAEXAAV?$allocator@U?$_Tree_node@U?$pair@QAVPlayerInterface@BWAPI@@VUnitData@UAlbertaBot@@@std@@PAX@std@@@1@PAU?$_Tree_node@U?$pair@QAVPlayerInterface@BWAPI@@VUnitData@UAlbertaBot@@@std@@PAX@1@@Z 1005c620 f i InformationManager.obj
 0001:0005b690       ??$_Emplace_reallocate@ABUUnitInfo@UAlbertaBot@@@?$vector@UUnitInfo@UAlbertaBot@@V?$allocator@UUnitInfo@UAlbertaBot@@@std@@@std@@AAEPAUUnitInfo@UAlbertaBot@@QAU23@ABU23@@Z 1005c690 f i InformationManager.obj
 0001:0005b860       ?_Assign_grow@?$_Hash_vec@V?$allocator@V?$_List_unchecked_const_iterator@V?$_List_val@U?$_List_simple_types@PAVBulletInterface@BWAPI@@@std@@@std@@U_Iterator_base0@2@@std@@@std@@@std@@QAEXIV?$_List_unchecked_const_iterator@V?$_List_val@U?$_List_simple_types@PAVBulletInterface@BWAPI@@@std@@@std@@U_Iterator_base0@2@@2@@Z 1005c860 f i InformationManager.obj
 0001:0005b950       ??1?$_Alloc_construct_ptr@V?$allocator@U?$_Tree_node@U?$pair@QAVUnitInterface@BWAPI@@VUnitset@2@@std@@PAX@std@@@std@@@std@@QAE@XZ 1005c950 f i InformationManager.obj
 0001:0005b950       ??1?$_Tree_temp_node_alloc@V?$allocator@U?$_Tree_node@U?$pair@QAVUnitInterface@BWAPI@@VUnitset@2@@std@@PAX@std@@@std@@@std@@QAE@XZ 1005c950 f i InformationManager.obj
 0001:0005b970       ??1?$_Alloc_construct_ptr@V?$allocator@U?$_Tree_node@U?$pair@$$CBV?$Point@H$0CA@@BWAPI@@VGridDistances@UAlbertaBot@@@std@@PAX@std@@@std@@@std@@QAE@XZ 1005c970 f i MapTools.obj
 0001:0005b970       ??1?$_Alloc_construct_ptr@V?$allocator@U?$_Tree_node@U?$pair@QAVPlayerInterface@BWAPI@@VUnitData@UAlbertaBot@@@std@@PAX@std@@@std@@@std@@QAE@XZ 1005c970 f i InformationManager.obj
 0001:0005b970       ??1?$_Tree_temp_node_alloc@V?$allocator@U?$_Tree_node@U?$pair@$$CBV?$Point@H$0CA@@BWAPI@@VGridDistances@UAlbertaBot@@@std@@PAX@std@@@std@@@std@@QAE@XZ 1005c970 f i MapTools.obj
 0001:0005b970       ??1?$_Tree_temp_node_alloc@V?$allocator@U?$_Tree_node@U?$pair@QAVPlayerInterface@BWAPI@@VUnitData@UAlbertaBot@@@std@@PAX@std@@@std@@@std@@QAE@XZ 1005c970 f i InformationManager.obj
 0001:0005b990       ??$emplace@ABQAVBulletInterface@BWAPI@@@?$_Hash@V?$_Uset_traits@PAVBulletInterface@BWAPI@@V?$_Uhash_compare@PAVBulletInterface@BWAPI@@U?$hash@PAX@std@@U?$equal_to@PAVBulletInterface@BWAPI@@@4@@std@@V?$allocator@PAVBulletInterface@BWAPI@@@4@$0A@@std@@@std@@QAE?AU?$pair@V?$_List_const_iterator@V?$_List_val@U?$_List_simple_types@PAVBulletInterface@BWAPI@@@std@@@std@@@std@@_N@1@ABQAVBulletInterface@BWAPI@@@Z 1005c990 f i InformationManager.obj
 0001:0005bc10       ??$fill@PAV?$_List_unchecked_const_iterator@V?$_List_val@U?$_List_simple_types@PAVBulletInterface@BWAPI@@@std@@@std@@U_Iterator_base0@2@@std@@V12@@std@@YAXQAV?$_List_unchecked_const_iterator@V?$_List_val@U?$_List_simple_types@PAVBulletInterface@BWAPI@@@std@@@std@@U_Iterator_base0@2@@0@0ABV10@@Z 1005cc10 f i InformationManager.obj
 0001:0005bc80       ??1?$map@PAVUnitInterface@BWAPI@@UUnitInfo@UAlbertaBot@@U?$less@PAVUnitInterface@BWAPI@@@std@@V?$allocator@U?$pair@QAVUnitInterface@BWAPI@@UUnitInfo@UAlbertaBot@@@std@@@6@@std@@QAE@XZ 1005cc80 f i InformationManager.obj
 0001:0005bca0       ??1?$_Alloc_construct_ptr@V?$allocator@U?$_Tree_node@U?$pair@QAVUnitInterface@BWAPI@@VResourceInfo@UAlbertaBot@@@std@@PAX@std@@@std@@@std@@QAE@XZ 1005cca0 f i InformationManager.obj
 0001:0005bcc0       ?_Forced_rehash@?$_Hash@V?$_Uset_traits@PAVBulletInterface@BWAPI@@V?$_Uhash_compare@PAVBulletInterface@BWAPI@@U?$hash@PAX@std@@U?$equal_to@PAVBulletInterface@BWAPI@@@4@@std@@V?$allocator@PAVBulletInterface@BWAPI@@@4@$0A@@std@@@std@@IAEXI@Z 1005ccc0 f i InformationManager.obj
 0001:0005be30       ??$_Erase_tree@V?$allocator@U?$_Tree_node@U?$pair@QAVUnitInterface@BWAPI@@UUnitInfo@UAlbertaBot@@@std@@PAX@std@@@std@@@?$_Tree_val@U?$_Tree_simple_types@U?$pair@QAVUnitInterface@BWAPI@@UUnitInfo@UAlbertaBot@@@std@@@std@@@std@@QAEXAAV?$allocator@U?$_Tree_node@U?$pair@QAVUnitInterface@BWAPI@@UUnitInfo@UAlbertaBot@@@std@@PAX@std@@@1@PAU?$_Tree_node@U?$pair@QAVUnitInterface@BWAPI@@UUnitInfo@UAlbertaBot@@@std@@PAX@1@@Z 1005ce30 f i InformationManager.obj
 0001:0005be70       ?ReadBool@JSONTools@UAlbertaBot@@YAXPBDABV?$GenericValue@U?$UTF8@D@rapidjson@@V?$MemoryPoolAllocator@VCrtAllocator@rapidjson@@@2@@rapidjson@@AA_N@Z 1005ce70 f   JSONTools.obj
 0001:0005bee0       ?ReadString@JSONTools@UAlbertaBot@@YAXPBDABV?$GenericValue@U?$UTF8@D@rapidjson@@V?$MemoryPoolAllocator@VCrtAllocator@rapidjson@@@2@@rapidjson@@AAV?$basic_string@DU?$char_traits@D@std@@V?$allocator@D@2@@std@@@Z 1005cee0 f   JSONTools.obj
 0001:0005bf70       ?GetString@?$GenericValue@U?$UTF8@D@rapidjson@@V?$MemoryPoolAllocator@VCrtAllocator@rapidjson@@@2@@rapidjson@@QBEPBDXZ 1005cf70 f i JSONTools.obj
 0001:0005bf80       ?HasMember@?$GenericValue@U?$UTF8@D@rapidjson@@V?$MemoryPoolAllocator@VCrtAllocator@rapidjson@@@2@@rapidjson@@QBE_NPBD@Z 1005cf80 f i JSONTools.obj
 0001:0005bfb0       ??$?A$$CBD@?$GenericValue@U?$UTF8@D@rapidjson@@V?$MemoryPoolAllocator@VCrtAllocator@rapidjson@@@2@@rapidjson@@QAEAAV01@PBD@Z 1005cfb0 f i JSONTools.obj
 0001:0005c0a0       ?FindMember@?$GenericValue@U?$UTF8@D@rapidjson@@V?$MemoryPoolAllocator@VCrtAllocator@rapidjson@@@2@@rapidjson@@QAE?AV?$GenericMemberIterator@$0A@U?$UTF8@D@rapidjson@@V?$MemoryPoolAllocator@VCrtAllocator@rapidjson@@@2@@2@PBD@Z 1005d0a0 f i JSONTools.obj
 0001:0005c110       ??$FindMember@V?$MemoryPoolAllocator@VCrtAllocator@rapidjson@@@rapidjson@@@?$GenericValue@U?$UTF8@D@rapidjson@@V?$MemoryPoolAllocator@VCrtAllocator@rapidjson@@@2@@rapidjson@@QAE?AV?$GenericMemberIterator@$0A@U?$UTF8@D@rapidjson@@V?$MemoryPoolAllocator@VCrtAllocator@rapidjson@@@2@@1@ABV01@@Z 1005d110 f i JSONTools.obj
 0001:0005c210       ___local_stdio_printf_options 1005d210 f i Logger.obj
 0001:0005c220       __vsnprintf_s_l            1005d220 f i Logger.obj
 0001:0005c260       ?LogAppendToFile@Logger@UAlbertaBot@@YAXABV?$basic_string@DU?$char_traits@D@std@@V?$allocator@D@2@@std@@0@Z 1005d260 f   Logger.obj
 0001:0005c360       ??0?$basic_ofstream@DU?$char_traits@D@std@@@std@@QAE@XZ 1005d360 f i Logger.obj
 0001:0005c440       ?name@locale@std@@QBE?AV?$basic_string@DU?$char_traits@D@std@@V?$allocator@D@2@@2@XZ 1005d440 f i MacroAct.obj
 0001:0005c5a0       ??0UpgradeType@BWAPI@@QAE@H@Z 1005d5a0 f i MacroAct.obj
 0001:0005c5c0       ??0TechType@BWAPI@@QAE@H@Z 1005d5c0 f i MacroAct.obj
 0001:0005c5e0       ??_E_Node_base@std@@UAEPAXI@Z 1005d5e0 f i * CIL library *:* CIL module *
 0001:0005c5e0       ??_E_Node_endif@std@@UAEPAXI@Z 1005d5e0 f i * CIL library *:* CIL module *
 0001:0005c5e0       ??_G_Node_base@std@@UAEPAXI@Z 1005d5e0 f i MacroAct.obj
 0001:0005c5e0       ??_G_Node_endif@std@@UAEPAXI@Z 1005d5e0 f i MacroAct.obj
 0001:0005c610       ??_E_Root_node@std@@UAEPAXI@Z 1005d610 f i * CIL library *:* CIL module *
 0001:0005c610       ??_G_Root_node@std@@UAEPAXI@Z 1005d610 f i MacroAct.obj
 0001:0005c640       ??_E_Node_back@std@@UAEPAXI@Z 1005d640 f i * CIL library *:* CIL module *
 0001:0005c640       ??_E_Node_capture@std@@UAEPAXI@Z 1005d640 f i * CIL library *:* CIL module *
 0001:0005c640       ??_E_Node_end_group@std@@UAEPAXI@Z 1005d640 f i * CIL library *:* CIL module *
 0001:0005c640       ??_E_Node_end_rep@std@@UAEPAXI@Z 1005d640 f i * CIL library *:* CIL module *
 0001:0005c640       ??_G_Node_back@std@@UAEPAXI@Z 1005d640 f i MacroAct.obj
 0001:0005c640       ??_G_Node_capture@std@@UAEPAXI@Z 1005d640 f i MacroAct.obj
 0001:0005c640       ??_G_Node_end_group@std@@UAEPAXI@Z 1005d640 f i MacroAct.obj
 0001:0005c640       ??_G_Node_end_rep@std@@UAEPAXI@Z 1005d640 f i MacroAct.obj
 0001:0005c670       ??_E_Node_assert@std@@UAEPAXI@Z 1005d670 f i * CIL library *:* CIL module *
 0001:0005c670       ??_G_Node_assert@std@@UAEPAXI@Z 1005d670 f i MacroAct.obj
 0001:0005c6c0       ??_E_Node_if@std@@UAEPAXI@Z 1005d6c0 f i * CIL library *:* CIL module *
 0001:0005c6c0       ??_G_Node_if@std@@UAEPAXI@Z 1005d6c0 f i MacroAct.obj
 0001:0005c740       ??_E_Node_rep@std@@UAEPAXI@Z 1005d740 f i * CIL library *:* CIL module *
 0001:0005c740       ??_G_Node_rep@std@@UAEPAXI@Z 1005d740 f i MacroAct.obj
 0001:0005c770       ?_Calculate_loop_simplicity@std@@YAXPAV_Node_base@1@0PAV_Node_rep@1@@Z 1005d770 f i MacroAct.obj
 0001:0005c850       ?getMacroLocationFromString@MacroAct@UAlbertaBot@@ABE?AW4MacroLocation@2@ABV?$basic_string@DU?$char_traits@D@std@@V?$allocator@D@2@@std@@@Z 1005d850 f   MacroAct.obj
 0001:0005cad0       ?getUnitTypeFromString@MacroAct@UAlbertaBot@@ABE?AVUnitType@BWAPI@@ABV?$basic_string@DU?$char_traits@D@std@@V?$allocator@D@2@@std@@@Z 1005dad0 f   MacroAct.obj
 0001:0005cb50       ??0MacroAct@UAlbertaBot@@QAE@ABV?$basic_string@DU?$char_traits@D@std@@V?$allocator@D@2@@std@@@Z 1005db50 f   MacroAct.obj
 0001:0005e380       ??1?$match_results@V?$_String_const_iterator@V?$_String_val@U?$_Simple_types@D@std@@@std@@@std@@V?$allocator@V?$sub_match@V?$_String_const_iterator@V?$_String_val@U?$_Simple_types@D@std@@@std@@@std@@@std@@@2@@std@@QAE@XZ 1005f380 f i MacroAct.obj
 0001:0005e390       ??0MacroAct@UAlbertaBot@@QAE@W4MacroCommandType@1@@Z 1005f390 f   MacroAct.obj
 0001:0005e410       ??0MacroAct@UAlbertaBot@@QAE@W4MacroCommandType@1@H@Z 1005f410 f   MacroAct.obj
 0001:0005e490       ??0MacroAct@UAlbertaBot@@QAE@W4MacroCommandType@1@VUnitType@BWAPI@@@Z 1005f490 f   MacroAct.obj
 0001:0005e510       ?getUnitType@MacroAct@UAlbertaBot@@QBE?AVUnitType@BWAPI@@XZ 1005f510 f   MacroAct.obj
 0001:0005e540       ?getMacroLocation@MacroAct@UAlbertaBot@@QBE?AW4MacroLocation@2@XZ 1005f540 f   MacroAct.obj
 0001:0005e5a0       ?mineralPrice@MacroAct@UAlbertaBot@@QBEHXZ 1005f5a0 f   MacroAct.obj
 0001:0005e680       ?gasPrice@MacroAct@UAlbertaBot@@QBEHXZ 1005f680 f   MacroAct.obj
 0001:0005e730       ?whatBuilds@MacroAct@UAlbertaBot@@QBE?AVUnitType@BWAPI@@XZ 1005f730 f   MacroAct.obj
 0001:0005e7f0       ?getName@MacroAct@UAlbertaBot@@QBE?AV?$basic_string@DU?$char_traits@D@std@@V?$allocator@D@2@@std@@XZ 1005f7f0 f   MacroAct.obj
 0001:0005ea10       ?isProducer@MacroAct@UAlbertaBot@@QBE_NPAVUnitInterface@BWAPI@@@Z 1005fa10 f   MacroAct.obj
 0001:0005ec60       ?getCandidateProducers@MacroAct@UAlbertaBot@@QBEXAAV?$vector@PAVUnitInterface@BWAPI@@V?$allocator@PAVUnitInterface@BWAPI@@@std@@@std@@@Z 1005fc60 f   MacroAct.obj
 0001:0005ed60       ?hasTech@MacroAct@UAlbertaBot@@QBE_NXZ 1005fd60 f   MacroAct.obj
 0001:0005efd0       ??1?$set@PAVUnitInterface@BWAPI@@U?$less@PAVUnitInterface@BWAPI@@@std@@V?$allocator@PAVUnitInterface@BWAPI@@@4@@std@@QAE@XZ 1005ffd0 f i WorkerManager.obj
 0001:0005efd0       ??1?$set@VUnitType@BWAPI@@U?$less@VUnitType@BWAPI@@@std@@V?$allocator@VUnitType@BWAPI@@@4@@std@@QAE@XZ 1005ffd0 f i MacroAct.obj
 0001:0005eff0       ?canProduce@MacroAct@UAlbertaBot@@QBE_NPAVUnitInterface@BWAPI@@@Z 1005fff0 f   MacroAct.obj
 0001:0005f1e0       ?produce@MacroAct@UAlbertaBot@@QBEXPAVUnitInterface@BWAPI@@@Z 100601e0 f   MacroAct.obj
 0001:0005f430       ??$use_facet@V?$ctype@D@std@@@std@@YAABV?$ctype@D@0@ABVlocale@0@@Z 10060430 f i MacroAct.obj
 0001:0005f550       ??$?HDU?$char_traits@D@std@@V?$allocator@D@1@@std@@YA?AV?$basic_string@DU?$char_traits@D@std@@V?$allocator@D@2@@0@ABV10@QBD@Z 10060550 f i MacroAct.obj
 0001:0005f5b0       ??1?$vector@V?$sub_match@V?$_String_const_iterator@V?$_String_val@U?$_Simple_types@D@std@@@std@@@std@@@std@@V?$allocator@V?$sub_match@V?$_String_const_iterator@V?$_String_val@U?$_Simple_types@D@std@@@std@@@std@@@std@@@2@@std@@QAE@XZ 100605b0 f i MacroAct.obj
 0001:0005f630       ??1?$_Tree@V?$_Tmap_traits@V?$basic_string@DU?$char_traits@D@std@@V?$allocator@D@2@@std@@VActionType@BOSS@@U?$less@V?$basic_string@DU?$char_traits@D@std@@V?$allocator@D@2@@std@@@2@V?$allocator@U?$pair@$$CBV?$basic_string@DU?$char_traits@D@std@@V?$allocator@D@2@@std@@VActionType@BOSS@@@std@@@2@$0A@@std@@@std@@QAE@XZ 10060630 f i BOSS:ActionType.obj
 0001:0005f630       ??1?$_Tree@V?$_Tmap_traits@V?$basic_string@DU?$char_traits@D@std@@V?$allocator@D@2@@std@@VUnitType@BWAPI@@U?$less@V?$basic_string@DU?$char_traits@D@std@@V?$allocator@D@2@@std@@@2@V?$allocator@U?$pair@$$CBV?$basic_string@DU?$char_traits@D@std@@V?$allocator@D@2@@std@@VUnitType@BWAPI@@@std@@@2@$0A@@std@@@std@@QAE@XZ 10060630 f i MacroAct.obj
 0001:0005f680       ??A?$map@V?$basic_string@DU?$char_traits@D@std@@V?$allocator@D@2@@std@@VUnitType@BWAPI@@U?$less@V?$basic_string@DU?$char_traits@D@std@@V?$allocator@D@2@@std@@@2@V?$allocator@U?$pair@$$CBV?$basic_string@DU?$char_traits@D@std@@V?$allocator@D@2@@std@@VUnitType@BWAPI@@@std@@@2@@std@@QAEAAVUnitType@BWAPI@@ABV?$basic_string@DU?$char_traits@D@std@@V?$allocator@D@2@@1@@Z 10060680 f i MacroAct.obj
 0001:0005f780       ??A?$match_results@V?$_String_const_iterator@V?$_String_val@U?$_Simple_types@D@std@@@std@@@std@@V?$allocator@V?$sub_match@V?$_String_const_iterator@V?$_String_val@U?$_Simple_types@D@std@@@std@@@std@@@std@@@2@@std@@QBEABV?$sub_match@V?$_String_const_iterator@V?$_String_val@U?$_Simple_types@D@std@@@std@@@std@@@1@I@Z 10060780 f i MacroAct.obj
 0001:0005f7c0       ??1?$basic_regex@DV?$regex_traits@D@std@@@std@@QAE@XZ 100607c0 f i MacroAct.obj
 0001:0005f820       ?str@?$sub_match@V?$_String_const_iterator@V?$_String_val@U?$_Simple_types@D@std@@@std@@@std@@@std@@QBE?AV?$basic_string@DU?$char_traits@D@std@@V?$allocator@D@2@@2@XZ 10060820 f i MacroAct.obj
 0001:0005f890       ?do_hash@?$collate@D@std@@MBEJPBD0@Z 10060890 f i MacroAct.obj
 0001:0005f8d0       ?do_transform@?$collate@D@std@@MBE?AV?$basic_string@DU?$char_traits@D@std@@V?$allocator@D@2@@2@PBD0@Z 100608d0 f i MacroAct.obj
 0001:0005f9d0       ?do_compare@?$collate@D@std@@MBEHPBD000@Z 100609d0 f i MacroAct.obj
 0001:0005fa10       ??1?$regex_traits@D@std@@QAE@XZ 10060a10 f i MacroAct.obj
 0001:0005fa30       ??_E?$collate@D@std@@MAEPAXI@Z 10060a30 f i * CIL library *:* CIL module *
 0001:0005fa30       ??_G?$collate@D@std@@MAEPAXI@Z 10060a30 f i MacroAct.obj
 0001:0005fa70       ??$_Regex_match1@V?$_String_const_iterator@V?$_String_val@U?$_Simple_types@D@std@@@std@@@std@@V?$allocator@V?$sub_match@V?$_String_const_iterator@V?$_String_val@U?$_Simple_types@D@std@@@std@@@std@@@std@@@2@DV?$regex_traits@D@2@V12@@std@@YA_NV?$_String_const_iterator@V?$_String_val@U?$_Simple_types@D@std@@@std@@@0@0PAV?$match_results@V?$_String_const_iterator@V?$_String_val@U?$_Simple_types@D@std@@@std@@@std@@V?$allocator@V?$sub_match@V?$_String_const_iterator@V?$_String_val@U?$_Simple_types@D@std@@@std@@@std@@@std@@@2@@0@ABV?$basic_regex@DV?$regex_traits@D@std@@@0@W4match_flag_type@regex_constants@0@_N@Z 10060a70 f i MacroAct.obj
 0001:0005fc20       ??$_Reset@PBD@?$basic_regex@DV?$regex_traits@D@std@@@std@@AAEXPBD0W4syntax_option_type@regex_constants@1@@Z 10060c20 f i MacroAct.obj
 0001:0005fdf0       ?_Tidy@?$basic_regex@DV?$regex_traits@D@std@@@std@@AAEXXZ 10060df0 f i MacroAct.obj
 0001:0005fe40       ?append@?$basic_string@DU?$char_traits@D@std@@V?$allocator@D@2@@std@@QAEAAV12@ID@Z 10060e40 f i MacroAct.obj
 0001:0005ffa0       ??1?$_Matcher@V?$_String_const_iterator@V?$_String_val@U?$_Simple_types@D@std@@@std@@@std@@DV?$regex_traits@D@2@V12@@std@@QAE@XZ 10060fa0 f i MacroAct.obj
 0001:00060020       ??1?$_Parser@PBDDV?$regex_traits@D@std@@@std@@QAE@XZ 10061020 f i MacroAct.obj
 0001:00060030       ??1?$_Tgt_state_t@V?$_String_const_iterator@V?$_String_val@U?$_Simple_types@D@std@@@std@@@std@@@std@@QAE@XZ 10061030 f i MacroAct.obj
 0001:00060050       ??1?$_Bt_state_t@V?$_String_const_iterator@V?$_String_val@U?$_Simple_types@D@std@@@std@@@std@@@std@@QAE@XZ 10061050 f i MacroAct.obj
 0001:00060060       ??$_Match@V?$allocator@V?$sub_match@V?$_String_const_iterator@V?$_String_val@U?$_Simple_types@D@std@@@std@@@std@@@std@@@std@@@?$_Matcher@V?$_String_const_iterator@V?$_String_val@U?$_Simple_types@D@std@@@std@@@std@@DV?$regex_traits@D@2@V12@@std@@QAE_NPAV?$match_results@V?$_String_const_iterator@V?$_String_val@U?$_Simple_types@D@std@@@std@@@std@@V?$allocator@V?$sub_match@V?$_String_const_iterator@V?$_String_val@U?$_Simple_types@D@std@@@std@@@std@@@std@@@2@@1@_N@Z 10061060 f i MacroAct.obj
 0001:00060200       ??$_Find_lower_bound@V?$basic_string@DU?$char_traits@D@std@@V?$allocator@D@2@@std@@@?$_Tree@V?$_Tmap_traits@V?$basic_string@DU?$char_traits@D@std@@V?$allocator@D@2@@std@@VUnitType@BWAPI@@U?$less@V?$basic_string@DU?$char_traits@D@std@@V?$allocator@D@2@@std@@@2@V?$allocator@U?$pair@$$CBV?$basic_string@DU?$char_traits@D@std@@V?$allocator@D@2@@std@@VUnitType@BWAPI@@@std@@@2@$0A@@std@@@std@@IBE?AU?$_Tree_find_result@PAU?$_Tree_node@U?$pair@$$CBV?$basic_string@DU?$char_traits@D@std@@V?$allocator@D@2@@std@@VUnitType@BWAPI@@@std@@PAX@std@@@1@ABV?$basic_string@DU?$char_traits@D@std@@V?$allocator@D@2@@1@@Z 10061200 f i MacroAct.obj
 0001:00060290       ??0?$_Tgt_state_t@V?$_String_const_iterator@V?$_String_val@U?$_Simple_types@D@std@@@std@@@std@@@std@@QAE@XZ 10061290 f i MacroAct.obj
 0001:000602d0       ??1?$_Alloc_construct_ptr@V?$allocator@U?$_Tree_node@U?$pair@$$CBV?$basic_string@DU?$char_traits@D@std@@V?$allocator@D@2@@std@@PAVTask@UAlbertaBot@@@std@@PAX@std@@@std@@@std@@QAE@XZ 100612d0 f i Tasks.obj
 0001:000602d0       ??1?$_Alloc_construct_ptr@V?$allocator@U?$_Tree_node@U?$pair@$$CBV?$basic_string@DU?$char_traits@D@std@@V?$allocator@D@2@@std@@VActionType@BOSS@@@std@@PAX@std@@@std@@@std@@QAE@XZ 100612d0 f i BOSS:ActionType.obj
 0001:000602d0       ??1?$_Alloc_construct_ptr@V?$allocator@U?$_Tree_node@U?$pair@$$CBV?$basic_string@DU?$char_traits@D@std@@V?$allocator@D@2@@std@@VUnitType@BWAPI@@@std@@PAX@std@@@std@@@std@@QAE@XZ 100612d0 f i MacroAct.obj
 0001:000602d0       ??1?$_Tree_temp_node_alloc@V?$allocator@U?$_Tree_node@U?$pair@$$CBV?$basic_string@DU?$char_traits@D@std@@V?$allocator@D@2@@std@@PAVTask@UAlbertaBot@@@std@@PAX@std@@@std@@@std@@QAE@XZ 100612d0 f i Tasks.obj
 0001:000602d0       ??1?$_Tree_temp_node_alloc@V?$allocator@U?$_Tree_node@U?$pair@$$CBV?$basic_string@DU?$char_traits@D@std@@V?$allocator@D@2@@std@@VActionType@BOSS@@@std@@PAX@std@@@std@@@std@@QAE@XZ 100612d0 f i BOSS:ActionType.obj
 0001:000602d0       ??1?$_Tree_temp_node_alloc@V?$allocator@U?$_Tree_node@U?$pair@$$CBV?$basic_string@DU?$char_traits@D@std@@V?$allocator@D@2@@std@@VUnitType@BWAPI@@@std@@PAX@std@@@std@@@std@@QAE@XZ 100612d0 f i MacroAct.obj
 0001:000602f0       ??$use_facet@V?$collate@D@std@@@std@@YAABV?$collate@D@0@ABVlocale@0@@Z 100612f0 f i MacroAct.obj
 0001:00060490       ?_Match_pat@?$_Matcher@V?$_String_const_iterator@V?$_String_val@U?$_Simple_types@D@std@@@std@@@std@@DV?$regex_traits@D@2@V12@@std@@AAE_NPAV_Node_base@2@@Z 10061490 f i MacroAct.obj
 0001:000609a0       ?_Error@?$_Parser@PBDDV?$regex_traits@D@std@@@std@@AAEXW4error_type@regex_constants@2@@Z 100619a0 f i MacroAct.obj
 0001:000609b0       ?_Trans@?$_Parser@PBDDV?$regex_traits@D@std@@@std@@AAEXXZ 100619b0 f i MacroAct.obj
 0001:00060bf0       ?_Disjunction@?$_Parser@PBDDV?$regex_traits@D@std@@@std@@AAEXXZ 10061bf0 f i MacroAct.obj
 0001:00060ee0       ?_End_group@?$_Builder@PBDDV?$regex_traits@D@std@@@std@@QAEXPAV_Node_base@2@@Z 10061ee0 f i MacroAct.obj
 0001:00060f50       ??1?$_Tidy_guard@V?$_Builder@PBDDV?$regex_traits@D@std@@@std@@@std@@QAE@XZ 10061f50 f i MacroAct.obj
 0001:00060f80       ?_Resize@?$match_results@V?$_String_const_iterator@V?$_String_val@U?$_Simple_types@D@std@@@std@@@std@@V?$allocator@V?$sub_match@V?$_String_const_iterator@V?$_String_val@U?$_Simple_types@D@std@@@std@@@std@@@std@@@2@@std@@QAEXI@Z 10061f80 f i MacroAct.obj
 0001:00061010       ?resize@?$vector@U_Loop_vals_t@std@@V?$allocator@U_Loop_vals_t@std@@@2@@std@@QAEXI@Z 10062010 f i MacroAct.obj
 0001:00061080       ?resize@?$vector@_NV?$allocator@_N@std@@@std@@QAEXI_N@Z 10062080 f i MacroAct.obj
 0001:000612d0       ??$_Compare@V?$_String_const_iterator@V?$_String_val@U?$_Simple_types@D@std@@@std@@@std@@PBDV?$regex_traits@D@2@@std@@YA?AV?$_String_const_iterator@V?$_String_val@U?$_Simple_types@D@std@@@std@@@0@V10@0PBD1ABV?$regex_traits@D@0@W4syntax_option_type@regex_constants@0@@Z 100622d0 f i MacroAct.obj
 0001:000613e0       ??$_Compare@V?$_String_const_iterator@V?$_String_val@U?$_Simple_types@D@std@@@std@@@std@@V12@V?$regex_traits@D@2@@std@@YA?AV?$_String_const_iterator@V?$_String_val@U?$_Simple_types@D@std@@@std@@@0@V10@000ABV?$regex_traits@D@0@W4syntax_option_type@regex_constants@0@@Z 100623e0 f i MacroAct.obj
 0001:00061510       ?_Do_if@?$_Matcher@V?$_String_const_iterator@V?$_String_val@U?$_Simple_types@D@std@@@std@@@std@@DV?$regex_traits@D@2@V12@@std@@AAE_NPAV_Node_if@2@@Z 10062510 f i MacroAct.obj
 0001:00061730       ?_Do_rep@?$_Matcher@V?$_String_const_iterator@V?$_String_val@U?$_Simple_types@D@std@@@std@@@std@@DV?$regex_traits@D@2@V12@@std@@AAE_NPAV_Node_rep@2@_NH@Z 10062730 f i MacroAct.obj
 0001:00061990       ?_Do_class@?$_Matcher@V?$_String_const_iterator@V?$_String_val@U?$_Simple_types@D@std@@@std@@@std@@DV?$regex_traits@D@2@V12@@std@@AAE_NPAV_Node_base@2@@Z 10062990 f i MacroAct.obj
 0001:00061ac0       ?_Better_match@?$_Matcher@V?$_String_const_iterator@V?$_String_val@U?$_Simple_types@D@std@@@std@@@std@@DV?$regex_traits@D@2@V12@@std@@AAE_NXZ 10062ac0 f i MacroAct.obj
 0001:00061b60       ?_Alternative@?$_Parser@PBDDV?$regex_traits@D@std@@@std@@AAE_NXZ 10062b60 f i MacroAct.obj
 0001:00062130       ?_Link_node@?$_Builder@PBDDV?$regex_traits@D@std@@@std@@AAEPAV_Node_base@2@PAV32@@Z 10063130 f i MacroAct.obj
 0001:00062170       ??0?$_Tgt_state_t@V?$_String_const_iterator@V?$_String_val@U?$_Simple_types@D@std@@@std@@@std@@@std@@QAE@ABV01@@Z 10063170 f i MacroAct.obj
 0001:00062230       ??$_Resize_reallocate@U_Value_init_tag@std@@@?$vector@U_Grp_t@?$_Tgt_state_t@V?$_String_const_iterator@V?$_String_val@U?$_Simple_types@D@std@@@std@@@std@@@std@@V?$allocator@U_Grp_t@?$_Tgt_state_t@V?$_String_const_iterator@V?$_String_val@U?$_Simple_types@D@std@@@std@@@std@@@std@@@3@@std@@AAEXIABU_Value_init_tag@1@@Z 10063230 f i MacroAct.obj
 0001:00062370       ??$_Resize_reallocate@U_Value_init_tag@std@@@?$vector@U_Loop_vals_t@std@@V?$allocator@U_Loop_vals_t@std@@@2@@std@@AAEXIABU_Value_init_tag@1@@Z 10063370 f i MacroAct.obj
 0001:000624b0       ??$_Assign_counted_range@PAU_Grp_t@?$_Tgt_state_t@V?$_String_const_iterator@V?$_String_val@U?$_Simple_types@D@std@@@std@@@std@@@std@@@?$vector@U_Grp_t@?$_Tgt_state_t@V?$_String_const_iterator@V?$_String_val@U?$_Simple_types@D@std@@@std@@@std@@@std@@V?$allocator@U_Grp_t@?$_Tgt_state_t@V?$_String_const_iterator@V?$_String_val@U?$_Simple_types@D@std@@@std@@@std@@@std@@@3@@std@@AAEXPAU_Grp_t@?$_Tgt_state_t@V?$_String_const_iterator@V?$_String_val@U?$_Simple_types@D@std@@@std@@@std@@@1@I@Z 100634b0 f i MacroAct.obj
 0001:000625f0       ?_Do_rep0@?$_Matcher@V?$_String_const_iterator@V?$_String_val@U?$_Simple_types@D@std@@@std@@@std@@DV?$regex_traits@D@2@V12@@std@@AAE_NPAV_Node_rep@2@_N@Z 100635f0 f i MacroAct.obj
 0001:000628c0       ?_CharacterClass@?$_Parser@PBDDV?$regex_traits@D@std@@@std@@AAEXXZ 100638c0 f i MacroAct.obj
 0001:000629f0       ?_Wrapped_disjunction@?$_Parser@PBDDV?$regex_traits@D@std@@@std@@AAE_NXZ 100639f0 f i MacroAct.obj
 0001:00062c00       ?_Quantifier@?$_Parser@PBDDV?$regex_traits@D@std@@@std@@AAEXXZ 10063c00 f i MacroAct.obj
 0001:00062e20       ?_Add_char@?$_Builder@PBDDV?$regex_traits@D@std@@@std@@QAEXD@Z 10063e20 f i MacroAct.obj
 0001:00062f10       ??Y?$_Vb_iterator@U?$_Wrap_alloc@V?$allocator@I@std@@@std@@@std@@QAEAAV01@H@Z 10063f10 f i MacroAct.obj
 0001:00062f70       ?_Insert_x@?$vector@_NV?$allocator@_N@std@@@std@@QAEIV?$_Vb_const_iterator@U?$_Wrap_alloc@V?$allocator@I@std@@@std@@@2@I@Z 10063f70 f i MacroAct.obj
 0001:000630d0       ??_E?$_Node_class@DV?$regex_traits@D@std@@@std@@UAEPAXI@Z 100640d0 f i * CIL library *:* CIL module *
 0001:000630d0       ??_G?$_Node_class@DV?$regex_traits@D@std@@@std@@UAEPAXI@Z 100640d0 f i MacroAct.obj
 0001:00063190       ??$_Resize_reallocate@U_Value_init_tag@std@@@?$vector@V?$sub_match@V?$_String_const_iterator@V?$_String_val@U?$_Simple_types@D@std@@@std@@@std@@@std@@V?$allocator@V?$sub_match@V?$_String_const_iterator@V?$_String_val@U?$_Simple_types@D@std@@@std@@@std@@@std@@@2@@std@@AAEXIABU_Value_init_tag@1@@Z 10064190 f i MacroAct.obj
 0001:00063310       ?_CharacterClassEscape@?$_Parser@PBDDV?$regex_traits@D@std@@@std@@AAE_N_N@Z 10064310 f i MacroAct.obj
 0001:000633f0       ?_ClassRanges@?$_Parser@PBDDV?$regex_traits@D@std@@@std@@AAEXXZ 100643f0 f i MacroAct.obj
 0001:00063740       ?_CharacterEscape@?$_Parser@PBDDV?$regex_traits@D@std@@@std@@AAE_NXZ 10064740 f i MacroAct.obj
 0001:00063ad0       ?_Do_noncapture_group@?$_Parser@PBDDV?$regex_traits@D@std@@@std@@AAEXXZ 10064ad0 f i MacroAct.obj
 0001:00063b70       ?_Do_assert_group@?$_Parser@PBDDV?$regex_traits@D@std@@@std@@AAEX_N@Z 10064b70 f i MacroAct.obj
 0001:00063ca0       ?_Add_class@?$_Builder@PBDDV?$regex_traits@D@std@@@std@@QAEXXZ 10064ca0 f i MacroAct.obj
 0001:00063d00       ?_Add_rep@?$_Builder@PBDDV?$regex_traits@D@std@@@std@@QAEXHH_N@Z 10064d00 f i MacroAct.obj
 0001:00063f60       ?_Insert2@?$_Buf@D@std@@QAEXD@Z 10064f60 f i MacroAct.obj
 0001:00063fd0       ??$_Copy_vbool@V?$_Vb_iterator@U?$_Wrap_alloc@V?$allocator@I@std@@@std@@@std@@V12@@std@@YA?AV?$_Vb_iterator@U?$_Wrap_alloc@V?$allocator@I@std@@@std@@@0@V10@00@Z 10064fd0 f i MacroAct.obj
 0001:000643b0       ??$lookup_classname@PBD@?$_Regex_traits@D@std@@QBEFPBD0_N@Z 100653b0 f i MacroAct.obj
 0001:00064480       ?_Do_digits@?$_Parser@PBDDV?$regex_traits@D@std@@@std@@AAEHHHW4error_type@regex_constants@2@@Z 10065480 f i MacroAct.obj
 0001:00064590       ?_ClassAtom@?$_Parser@PBDDV?$regex_traits@D@std@@@std@@AAE?AW4_Prs_ret@2@XZ 10065590 f i MacroAct.obj
 0001:000648b0       ?_Do_ffn@?$_Parser@PBDDV?$regex_traits@D@std@@@std@@AAE_ND@Z 100658b0 f i MacroAct.obj
 0001:00064920       ?_Add_named_class@?$_Builder@PBDDV?$regex_traits@D@std@@@std@@QAEXF_N@Z 10065920 f i MacroAct.obj
 0001:000649d0       ??1?$vector@DV?$allocator@D@std@@@std@@QAE@XZ 100659d0 f i MacroAct.obj
 0001:000649e0       ?_Buy_raw@?$vector@U_Grp_t@?$_Tgt_state_t@V?$_String_const_iterator@V?$_String_val@U?$_Simple_types@D@std@@@std@@@std@@@std@@V?$allocator@U_Grp_t@?$_Tgt_state_t@V?$_String_const_iterator@V?$_String_val@U?$_Simple_types@D@std@@@std@@@std@@@std@@@3@@std@@AAEXI@Z 100659e0 f i MacroAct.obj
 0001:00064a70       ??_E?$_Node_str@D@std@@UAEPAXI@Z 10065a70 f i * CIL library *:* CIL module *
 0001:00064a70       ??_G?$_Node_str@D@std@@UAEPAXI@Z 10065a70 f i MacroAct.obj
 0001:00064aa0       ??$_Resize_reallocate@I@?$vector@IV?$allocator@I@std@@@std@@AAEXIABI@Z 10065aa0 f i MacroAct.obj
 0001:00064bd0       ?_Do_ex_class@?$_Parser@PBDDV?$regex_traits@D@std@@@std@@AAEXW4_Meta_type@2@@Z 10065bd0 f i MacroAct.obj
 0001:00064dc0       ?_Tidy@?$vector@DV?$allocator@D@std@@@std@@AAEXXZ 10065dc0 f i MacroAct.obj
 0001:00064e20       ?_Add_equiv@?$_Builder@PBDDV?$regex_traits@D@std@@@std@@QAEXPBD0H@Z 10065e20 f i MacroAct.obj
 0001:000651c0       ?_Buy_nonzero@?$vector@DV?$allocator@D@std@@@std@@AAEXI@Z 100661c0 f i MacroAct.obj
 0001:00065250       ?_Char_to_elts@?$_Builder@PBDDV?$regex_traits@D@std@@@std@@AAEXPBD0HPAPAU?$_Sequence@D@2@@Z 10066250 f i MacroAct.obj
 0001:000652c0       ??$_Insert2@PBD@?$_Buf@D@std@@QAEXPBD0@Z 100662c0 f i MacroAct.obj
 0001:00065340       ?allCommandTypes@MacroCommand@UAlbertaBot@@SA?BV?$list@W4MacroCommandType@UAlbertaBot@@V?$allocator@W4MacroCommandType@UAlbertaBot@@@std@@@std@@XZ 10066340 f   MacroCommand.obj
 0001:00065500       ?getName@MacroCommand@UAlbertaBot@@SA?BV?$basic_string@DU?$char_traits@D@std@@V?$allocator@D@2@@std@@W4MacroCommandType@2@@Z 10066500 f   MacroCommand.obj
 0001:00065c00       ??1?$_List_node_insert_op2@V?$allocator@U?$_List_node@W4MacroCommandType@UAlbertaBot@@PAX@std@@@std@@@std@@QAE@XZ 10066c00 f i MacroCommand.obj
 0001:00065c40       ??$exchange@II@std@@YAIAAI$$QAI@Z 10066c40 f i MacroCommand.obj
 0001:00065c60       ?Instance@MapGrid@UAlbertaBot@@SAAAV12@XZ 10066c60 f   MapGrid.obj
 0001:00065d30       ??0MapGrid@UAlbertaBot@@AAE@HHH@Z 10066d30 f   MapGrid.obj
 0001:00065fe0       ?getLeastExplored@MapGrid@UAlbertaBot@@QAE?AV?$Point@H$00@BWAPI@@_NH@Z 10066fe0 f   MapGrid.obj
 0001:00066380       ?getLeastExploredNear@MapGrid@UAlbertaBot@@QAE?AV?$Point@H$00@BWAPI@@ABV34@_N1@Z 10067380 f   MapGrid.obj
 0001:00066830       ?getLeastExploredNearBase@MapGrid@UAlbertaBot@@QAE?AV?$Point@H$00@BWAPI@@PAVBase@2@_N1@Z 10067830 f   MapGrid.obj
 0001:00066d50       ?update@MapGrid@UAlbertaBot@@QAEXXZ 10067d50 f   MapGrid.obj
 0001:00067140       ?getUnits@MapGrid@UAlbertaBot@@QAEXAAVUnitset@BWAPI@@V?$Point@H$00@4@H_N2@Z 10068140 f   MapGrid.obj
 0001:000672e0       ?_Tidy@?$vector@VGridCell@UAlbertaBot@@V?$allocator@VGridCell@UAlbertaBot@@@std@@@std@@AAEXXZ 100682e0 f i MapGrid.obj
 0001:00067380       ??1?$_Tidy_guard@V?$vector@VGridCell@UAlbertaBot@@V?$allocator@VGridCell@UAlbertaBot@@@std@@@std@@@std@@QAE@XZ 10068380 f i MapGrid.obj
 0001:00067390       ??1?$_Uninitialized_backout_al@V?$allocator@VGridCell@UAlbertaBot@@@std@@@std@@QAE@XZ 10068390 f i MapGrid.obj
 0001:000673c0       ?findUnwalkability@MapPartitions@UAlbertaBot@@AAEXXZ 100683c0 f   MapPartitions.obj
 0001:00067640       ?markOnePartition@MapPartitions@UAlbertaBot@@AAEXABV?$Point@H$07@BWAPI@@@Z 10068640 f   MapPartitions.obj
 0001:000678c0       ?initialize@MapPartitions@UAlbertaBot@@QAEXXZ 100688c0 f   MapPartitions.obj
 0001:00067aa0       ??$?0V?$allocator@V?$vector@GV?$allocator@G@std@@@std@@@std@@$0A@@?$vector@V?$vector@GV?$allocator@G@std@@@std@@V?$allocator@V?$vector@GV?$allocator@G@std@@@std@@@2@@std@@QAE@IABV?$vector@GV?$allocator@G@std@@@1@ABV?$allocator@V?$vector@GV?$allocator@G@std@@@std@@@1@@Z 10068aa0 f i MapPartitions.obj
 0001:00067bb0       ??$_Construct_n@ABG@?$vector@GV?$allocator@G@std@@@std@@AAEXIABG@Z 10068bb0 f i MapPartitions.obj
 0001:00067c30       ??0?$vector@GV?$allocator@G@std@@@std@@QAE@ABV01@@Z 10068c30 f i MapPartitions.obj
 0001:00067c90       ?setBWAPIMapData@MapTools@UAlbertaBot@@AAEXXZ 10068c90 f   MapTools.obj
 0001:00068410       ?getGroundTileDistance@MapTools@UAlbertaBot@@QAEHV?$Point@H$0CA@@BWAPI@@0@Z 10069410 f   MapTools.obj
 0001:00068740       ??1?$pair@V?$Point@H$0CA@@BWAPI@@VGridDistances@UAlbertaBot@@@std@@QAE@XZ 10069740 f i MapTools.obj
 0001:00068760       ?isBuildable@MapTools@UAlbertaBot@@QBE_NV?$Point@H$0CA@@BWAPI@@VUnitType@4@@Z 10069760 f   MapTools.obj
 0001:00068870       ?nextExpansion@MapTools@UAlbertaBot@@QBEPAVBase@2@_N00@Z 10069870 f   MapTools.obj
 0001:00069830       ??A?$map@V?$Point@H$0CA@@BWAPI@@VGridDistances@UAlbertaBot@@U?$less@V?$Point@H$0CA@@BWAPI@@@std@@V?$allocator@U?$pair@$$CBV?$Point@H$0CA@@BWAPI@@VGridDistances@UAlbertaBot@@@std@@@6@@std@@QAEAAVGridDistances@UAlbertaBot@@ABV?$Point@H$0CA@@BWAPI@@@Z 1006a830 f i MapTools.obj
 0001:00069930       ??$_Find_lower_bound@V?$Point@H$0CA@@BWAPI@@@?$_Tree@V?$_Tmap_traits@V?$Point@H$0CA@@BWAPI@@VGridDistances@UAlbertaBot@@U?$less@V?$Point@H$0CA@@BWAPI@@@std@@V?$allocator@U?$pair@$$CBV?$Point@H$0CA@@BWAPI@@VGridDistances@UAlbertaBot@@@std@@@6@$0A@@std@@@std@@IBE?AU?$_Tree_find_result@PAU?$_Tree_node@U?$pair@$$CBV?$Point@H$0CA@@BWAPI@@VGridDistances@UAlbertaBot@@@std@@PAX@std@@@1@ABV?$Point@H$0CA@@BWAPI@@@Z 1006a930 f i MapTools.obj
 0001:00069930       ??$_Find_lower_bound@V?$Point@H$0CA@@BWAPI@@@?$_Tree@V?$_Tset_traits@V?$Point@H$0CA@@BWAPI@@U?$less@V?$Point@H$0CA@@BWAPI@@@std@@V?$allocator@V?$Point@H$0CA@@BWAPI@@@4@$0A@@std@@@std@@IBE?AU?$_Tree_find_result@PAU?$_Tree_node@V?$Point@H$0CA@@BWAPI@@PAX@std@@@1@ABV?$Point@H$0CA@@BWAPI@@@Z 1006a930 f i MicroOverlords.obj
 0001:00069990       ??1MicroAirToAir@UAlbertaBot@@UAE@XZ 1006a990 f i MicroAirToAir.obj
 0001:00069990       ??1MicroDefilers@UAlbertaBot@@UAE@XZ 1006a990 f i MicroDefilers.obj
 0001:00069990       ??1MicroDetectors@UAlbertaBot@@UAE@XZ 1006a990 f i MicroDetectors.obj
 0001:00069990       ??1MicroHighTemplar@UAlbertaBot@@UAE@XZ 1006a990 f i MicroHighTemplar.obj
 0001:00069990       ??1MicroIrradiated@UAlbertaBot@@UAE@XZ 1006a990 f i MicroIrradiated.obj
 0001:00069990       ??1MicroLurkers@UAlbertaBot@@UAE@XZ 1006a990 f i MicroLurkers.obj
 0001:00069990       ??1MicroManager@UAlbertaBot@@UAE@XZ 1006a990 f i MicroAirToAir.obj
 0001:00069990       ??1MicroMedics@UAlbertaBot@@UAE@XZ 1006a990 f i MicroMedics.obj
 0001:00069990       ??1MicroMelee@UAlbertaBot@@UAE@XZ 1006a990 f i MicroMelee.obj
 0001:00069990       ??1MicroQueens@UAlbertaBot@@UAE@XZ 1006a990 f i MicroQueens.obj
 0001:00069990       ??1MicroRanged@UAlbertaBot@@UAE@XZ 1006a990 f i MicroRanged.obj
 0001:00069990       ??1MicroScourge@UAlbertaBot@@UAE@XZ 1006a990 f i MicroScourge.obj
 0001:00069990       ??1MicroTanks@UAlbertaBot@@UAE@XZ 1006a990 f i MicroTanks.obj
 0001:000699c0       ??_EMicroAirToAir@UAlbertaBot@@UAEPAXI@Z 1006a9c0 f i * CIL library *:* CIL module *
 0001:000699c0       ??_EMicroDefilers@UAlbertaBot@@UAEPAXI@Z 1006a9c0 f i * CIL library *:* CIL module *
 0001:000699c0       ??_EMicroHighTemplar@UAlbertaBot@@UAEPAXI@Z 1006a9c0 f i * CIL library *:* CIL module *
 0001:000699c0       ??_EMicroIrradiated@UAlbertaBot@@UAEPAXI@Z 1006a9c0 f i * CIL library *:* CIL module *
 0001:000699c0       ??_EMicroManager@UAlbertaBot@@UAEPAXI@Z 1006a9c0 f i * CIL library *:* CIL module *
 0001:000699c0       ??_EMicroMedics@UAlbertaBot@@UAEPAXI@Z 1006a9c0 f i * CIL library *:* CIL module *
 0001:000699c0       ??_EMicroMelee@UAlbertaBot@@UAEPAXI@Z 1006a9c0 f i * CIL library *:* CIL module *
 0001:000699c0       ??_EMicroQueens@UAlbertaBot@@UAEPAXI@Z 1006a9c0 f i * CIL library *:* CIL module *
 0001:000699c0       ??_EMicroRanged@UAlbertaBot@@UAEPAXI@Z 1006a9c0 f i * CIL library *:* CIL module *
 0001:000699c0       ??_EMicroScourge@UAlbertaBot@@UAEPAXI@Z 1006a9c0 f i * CIL library *:* CIL module *
 0001:000699c0       ??_EMicroTanks@UAlbertaBot@@UAEPAXI@Z 1006a9c0 f i * CIL library *:* CIL module *
 0001:000699c0       ??_GMicroAirToAir@UAlbertaBot@@UAEPAXI@Z 1006a9c0 f i MicroAirToAir.obj
 0001:000699c0       ??_GMicroDefilers@UAlbertaBot@@UAEPAXI@Z 1006a9c0 f i MicroDefilers.obj
 0001:000699c0       ??_GMicroHighTemplar@UAlbertaBot@@UAEPAXI@Z 1006a9c0 f i MicroHighTemplar.obj
 0001:000699c0       ??_GMicroIrradiated@UAlbertaBot@@UAEPAXI@Z 1006a9c0 f i MicroIrradiated.obj
 0001:000699c0       ??_GMicroManager@UAlbertaBot@@UAEPAXI@Z 1006a9c0 f i MicroAirToAir.obj
 0001:000699c0       ??_GMicroMedics@UAlbertaBot@@UAEPAXI@Z 1006a9c0 f i MicroMedics.obj
 0001:000699c0       ??_GMicroMelee@UAlbertaBot@@UAEPAXI@Z 1006a9c0 f i MicroMelee.obj
 0001:000699c0       ??_GMicroQueens@UAlbertaBot@@UAEPAXI@Z 1006a9c0 f i MicroQueens.obj
 0001:000699c0       ??_GMicroRanged@UAlbertaBot@@UAEPAXI@Z 1006a9c0 f i MicroRanged.obj
 0001:000699c0       ??_GMicroScourge@UAlbertaBot@@UAEPAXI@Z 1006a9c0 f i MicroScourge.obj
 0001:000699c0       ??_GMicroTanks@UAlbertaBot@@UAEPAXI@Z 1006a9c0 f i MicroTanks.obj
 0001:00069a10       ??0MicroAirToAir@UAlbertaBot@@QAE@XZ 1006aa10 f   MicroAirToAir.obj
 0001:00069aa0       ?executeMicro@MicroAirToAir@UAlbertaBot@@UAEXABVUnitset@BWAPI@@ABVUnitCluster@2@@Z 1006aaa0 f   MicroAirToAir.obj
 0001:00069c50       ?getTarget@MicroAirToAir@UAlbertaBot@@QAEPAVUnitInterface@BWAPI@@PAV34@ABVUnitset@4@@Z 1006ac50 f   MicroAirToAir.obj
 0001:00069f80       ??$_Erase_tree@V?$allocator@U?$_Tree_node@U?$pair@QAVUnitInterface@BWAPI@@ULurkerRecord@SkillLurkers@UAlbertaBot@@@std@@PAX@std@@@std@@@?$_Tree_val@U?$_Tree_simple_types@U?$pair@QAVUnitInterface@BWAPI@@ULurkerRecord@SkillLurkers@UAlbertaBot@@@std@@@std@@@std@@QAEXAAV?$allocator@U?$_Tree_node@U?$pair@QAVUnitInterface@BWAPI@@ULurkerRecord@SkillLurkers@UAlbertaBot@@@std@@PAX@std@@@1@PAU?$_Tree_node@U?$pair@QAVUnitInterface@BWAPI@@ULurkerRecord@SkillLurkers@UAlbertaBot@@@std@@PAX@1@@Z 1006af80 f i SkillLurkers.obj
 0001:00069f80       ??$_Erase_tree@V?$allocator@U?$_Tree_node@U?$pair@QAVUnitInterface@BWAPI@@VCasterState@UAlbertaBot@@@std@@PAX@std@@@std@@@?$_Tree_val@U?$_Tree_simple_types@U?$pair@QAVUnitInterface@BWAPI@@VCasterState@UAlbertaBot@@@std@@@std@@@std@@QAEXAAV?$allocator@U?$_Tree_node@U?$pair@QAVUnitInterface@BWAPI@@VCasterState@UAlbertaBot@@@std@@PAX@std@@@1@PAU?$_Tree_node@U?$pair@QAVUnitInterface@BWAPI@@VCasterState@UAlbertaBot@@@std@@PAX@1@@Z 1006af80 f i MicroAirToAir.obj
 0001:00069f80       ??$_Erase_tree@V?$allocator@U?$_Tree_node@U?$pair@QAVUnitInterface@BWAPI@@VWorkerPost@WorkerData@UAlbertaBot@@@std@@PAX@std@@@std@@@?$_Tree_val@U?$_Tree_simple_types@U?$pair@QAVUnitInterface@BWAPI@@VWorkerPost@WorkerData@UAlbertaBot@@@std@@@std@@@std@@QAEXAAV?$allocator@U?$_Tree_node@U?$pair@QAVUnitInterface@BWAPI@@VWorkerPost@WorkerData@UAlbertaBot@@@std@@PAX@std@@@1@PAU?$_Tree_node@U?$pair@QAVUnitInterface@BWAPI@@VWorkerPost@WorkerData@UAlbertaBot@@@std@@PAX@1@@Z 1006af80 f i WorkerData.obj
 0001:00069f80       ??$_Erase_tree_and_orphan@V?$allocator@U?$_Tree_node@U?$pair@QAVUnitInterface@BWAPI@@VCasterState@UAlbertaBot@@@std@@PAX@std@@@std@@@?$_Tree_val@U?$_Tree_simple_types@U?$pair@QAVUnitInterface@BWAPI@@VCasterState@UAlbertaBot@@@std@@@std@@@std@@QAEXAAV?$allocator@U?$_Tree_node@U?$pair@QAVUnitInterface@BWAPI@@VCasterState@UAlbertaBot@@@std@@PAX@std@@@1@PAU?$_Tree_node@U?$pair@QAVUnitInterface@BWAPI@@VCasterState@UAlbertaBot@@@std@@PAX@1@@Z 1006af80 f i SquadData.obj
 0001:00069fc0       ?getDefilers@MicroDefilers@UAlbertaBot@@ABE?AVUnitset@BWAPI@@ABVUnitCluster@2@@Z 1006afc0 f   MicroDefilers.obj
 0001:0006a0d0       ?aboutToDie@MicroDefilers@UAlbertaBot@@ABE_NQAVUnitInterface@BWAPI@@@Z 1006b0d0 f   MicroDefilers.obj
 0001:0006a160       ?swarmScore@MicroDefilers@UAlbertaBot@@ABEHPAVUnitInterface@BWAPI@@@Z 1006b160 f   MicroDefilers.obj
 0001:0006a270       ?maybeSwarm@MicroDefilers@UAlbertaBot@@AAE_NPAVUnitInterface@BWAPI@@@Z 1006b270 f   MicroDefilers.obj
 0001:0006ac70       ?plagueScore@MicroDefilers@UAlbertaBot@@ABEHPAVUnitInterface@BWAPI@@@Z 1006bc70 f   MicroDefilers.obj
 0001:0006ae50       ?maybePlague@MicroDefilers@UAlbertaBot@@AAE_NPAVUnitInterface@BWAPI@@@Z 1006be50 f   MicroDefilers.obj
 0001:0006b310       ??0MicroDefilers@UAlbertaBot@@QAE@XZ 1006c310 f   MicroDefilers.obj
 0001:0006b3a0       ?_Orphan_range@?$vector@V?$map@VUnitType@BWAPI@@HU?$less@VUnitType@BWAPI@@@std@@V?$allocator@U?$pair@$$CBVUnitType@BWAPI@@H@std@@@4@@std@@V?$allocator@V?$map@VUnitType@BWAPI@@HU?$less@VUnitType@BWAPI@@@std@@V?$allocator@U?$pair@$$CBVUnitType@BWAPI@@H@std@@@4@@std@@@2@@std@@ABEXPAV?$map@VUnitType@BWAPI@@HU?$less@VUnitType@BWAPI@@@std@@V?$allocator@U?$pair@$$CBVUnitType@BWAPI@@H@std@@@4@@2@0@Z 1006c3a0 f   SkillUnitTimings.obj
 0001:0006b3a0       ?executeMicro@MicroDefilers@UAlbertaBot@@UAEXABVUnitset@BWAPI@@ABVUnitCluster@2@@Z 1006c3a0 f   MicroDefilers.obj
 0001:0006b3a0       ?executeMicro@MicroDetectors@UAlbertaBot@@UAEXABVUnitset@BWAPI@@ABVUnitCluster@2@@Z 1006c3a0 f   MicroDetectors.obj
 0001:0006b3a0       ?executeMicro@MicroHighTemplar@UAlbertaBot@@UAEXABVUnitset@BWAPI@@ABVUnitCluster@2@@Z 1006c3a0 f   MicroHighTemplar.obj
 0001:0006b3a0       ?executeMicro@MicroIrradiated@UAlbertaBot@@UAEXABVUnitset@BWAPI@@ABVUnitCluster@2@@Z 1006c3a0 f   MicroIrradiated.obj
 0001:0006b3a0       ?executeMicro@MicroMedics@UAlbertaBot@@UAEXABVUnitset@BWAPI@@ABVUnitCluster@2@@Z 1006c3a0 f   MicroMedics.obj
 0001:0006b3a0       ?executeMicro@MicroOverlords@UAlbertaBot@@UAEXABVUnitset@BWAPI@@ABVUnitCluster@2@@Z 1006c3a0 f   MicroOverlords.obj
 0001:0006b3a0       ?executeMicro@MicroQueens@UAlbertaBot@@UAEXABVUnitset@BWAPI@@ABVUnitCluster@2@@Z 1006c3a0 f   MicroQueens.obj
 0001:0006b3a0       ?executeMicro@MicroTransports@UAlbertaBot@@UAEXABVUnitset@BWAPI@@ABVUnitCluster@2@@Z 1006c3a0 f   MicroTransports.obj
 0001:0006b3a0       ?getData@Skill@UAlbertaBot@@UAEXAAVGameRecord@2@ABV?$basic_string@DU?$char_traits@D@std@@V?$allocator@D@2@@std@@@Z 1006c3a0 f   Skill.obj
 0001:0006b3b0       ?updateMovement@MicroDefilers@UAlbertaBot@@QAEXABVUnitCluster@2@PAVUnitInterface@BWAPI@@@Z 1006c3b0 f   MicroDefilers.obj
 0001:0006b920       ?_Target_type@?$_Func_impl_no_alloc@V<lambda_a2cf48cc0ad720342f05725db62c6909>@@_NPAVUnitInterface@BWAPI@@@std@@EBEABVtype_info@@XZ 1006c920 f i MicroDefilers.obj
 0001:0006b930       ?_Do_call@?$_Func_impl_no_alloc@V<lambda_a2cf48cc0ad720342f05725db62c6909>@@_NPAVUnitInterface@BWAPI@@@std@@EAE_N$$QAPAVUnitInterface@BWAPI@@@Z 1006c930 f i MicroDefilers.obj
 0001:0006b950       ?_Copy@?$_Func_impl_no_alloc@V<lambda_a2cf48cc0ad720342f05725db62c6909>@@_NPAVUnitInterface@BWAPI@@@std@@EBEPAV?$_Func_base@_NPAVUnitInterface@BWAPI@@@2@PAX@Z 1006c950 f i MicroDefilers.obj
 0001:0006b950       ?_Move@?$_Func_impl_no_alloc@V<lambda_a2cf48cc0ad720342f05725db62c6909>@@_NPAVUnitInterface@BWAPI@@@std@@EAEPAV?$_Func_base@_NPAVUnitInterface@BWAPI@@@2@PAX@Z 1006c950 f i MicroDefilers.obj
 0001:0006b970       ?_Target_type@?$_Func_impl_no_alloc@V<lambda_5f0711d792da3a2e3345062a6240f8fe>@@_NPAVUnitInterface@BWAPI@@@std@@EBEABVtype_info@@XZ 1006c970 f i MicroDefilers.obj
 0001:0006b980       ?_Do_call@?$_Func_impl_no_alloc@V<lambda_3cdec769ff18744395981dd48fcfc232>@@_NPAVUnitInterface@BWAPI@@@std@@EAE_N$$QAPAVUnitInterface@BWAPI@@@Z 1006c980 f i Micro.obj
 0001:0006b980       ?_Do_call@?$_Func_impl_no_alloc@V<lambda_5f0711d792da3a2e3345062a6240f8fe>@@_NPAVUnitInterface@BWAPI@@@std@@EAE_N$$QAPAVUnitInterface@BWAPI@@@Z 1006c980 f i MicroDefilers.obj
 0001:0006b9b0       ?_Copy@?$_Func_impl_no_alloc@V<lambda_5f0711d792da3a2e3345062a6240f8fe>@@_NPAVUnitInterface@BWAPI@@@std@@EBEPAV?$_Func_base@_NPAVUnitInterface@BWAPI@@@2@PAX@Z 1006c9b0 f i MicroDefilers.obj
 0001:0006b9b0       ?_Move@?$_Func_impl_no_alloc@V<lambda_5f0711d792da3a2e3345062a6240f8fe>@@_NPAVUnitInterface@BWAPI@@@std@@EAEPAV?$_Func_base@_NPAVUnitInterface@BWAPI@@@2@PAX@Z 1006c9b0 f i MicroDefilers.obj
 0001:0006b9d0       ?_Target_type@?$_Func_impl_no_alloc@V<lambda_c39fdb09d160b656fde65dff274b627b>@@_NPAVUnitInterface@BWAPI@@@std@@EBEABVtype_info@@XZ 1006c9d0 f i MicroDefilers.obj
 0001:0006b9e0       ?_Do_call@?$_Func_impl_no_alloc@V<lambda_c39fdb09d160b656fde65dff274b627b>@@_NPAVUnitInterface@BWAPI@@@std@@EAE_N$$QAPAVUnitInterface@BWAPI@@@Z 1006c9e0 f i MicroDefilers.obj
 0001:0006ba30       ?_Copy@?$_Func_impl_no_alloc@V<lambda_c39fdb09d160b656fde65dff274b627b>@@_NPAVUnitInterface@BWAPI@@@std@@EBEPAV?$_Func_base@_NPAVUnitInterface@BWAPI@@@2@PAX@Z 1006ca30 f i MicroDefilers.obj
 0001:0006bac0       ??_EMicroDetectors@UAlbertaBot@@UAEPAXI@Z 1006cac0 f i * CIL library *:* CIL module *
 0001:0006bac0       ??_EMicroLurkers@UAlbertaBot@@UAEPAXI@Z 1006cac0 f i * CIL library *:* CIL module *
 0001:0006bac0       ??_GMicroDetectors@UAlbertaBot@@UAEPAXI@Z 1006cac0 f i MicroDetectors.obj
 0001:0006bac0       ??_GMicroLurkers@UAlbertaBot@@UAEPAXI@Z 1006cac0 f i MicroLurkers.obj
 0001:0006bb10       ??0MicroDetectors@UAlbertaBot@@QAE@XZ 1006cb10 f   MicroDetectors.obj
 0001:0006bbb0       ?go@MicroDetectors@UAlbertaBot@@QAEXABVUnitset@BWAPI@@@Z 1006cbb0 f   MicroDetectors.obj
 0001:0006c3d0       ??0MicroHighTemplar@UAlbertaBot@@QAE@XZ 1006d3d0 f   MicroHighTemplar.obj
 0001:0006c460       ?update@MicroHighTemplar@UAlbertaBot@@QAEXXZ 1006d460 f   MicroHighTemplar.obj
 0001:0006c710       ?nearestEnemy@MicroIrradiated@UAlbertaBot@@ABEPAVUnitInterface@BWAPI@@PAV34@@Z 1006d710 f   MicroIrradiated.obj
 0001:0006c7f0       ?runToEnemy@MicroIrradiated@UAlbertaBot@@AAEXPAVUnitInterface@BWAPI@@0@Z 1006d7f0 f   MicroIrradiated.obj
 0001:0006c880       ??0MicroIrradiated@UAlbertaBot@@QAE@XZ 1006d880 f   MicroIrradiated.obj
 0001:0006c910       ?update@MicroIrradiated@UAlbertaBot@@QAEXXZ 1006d910 f   MicroIrradiated.obj
 0001:0006cce0       ??$?VV?$UnaryFilter@PAVUnitInterface@BWAPI@@V?$function@$$A6A_NPAVUnitInterface@BWAPI@@@Z@std@@@BWAPI@@@?$UnaryFilter@PAVUnitInterface@BWAPI@@V?$function@$$A6A_NPAVUnitInterface@BWAPI@@@Z@std@@@BWAPI@@QBE?AV01@ABV01@@Z 1006dce0 f i MicroIrradiated.obj
 0001:0006cdd0       ?_Target_type@?$_Func_impl_no_alloc@V<lambda_cfd6fce307c286eb3135c7782fdef1bb>@@_NPAVUnitInterface@BWAPI@@@std@@EBEABVtype_info@@XZ 1006ddd0 f i MicroIrradiated.obj
 0001:0006cde0       ?_Do_call@?$_Func_impl_no_alloc@V<lambda_cfd6fce307c286eb3135c7782fdef1bb>@@_NPAVUnitInterface@BWAPI@@@std@@EAE_N$$QAPAVUnitInterface@BWAPI@@@Z 1006dde0 f i MicroIrradiated.obj
 0001:0006ce40       ?_Copy@?$_Func_impl_no_alloc@V<lambda_cfd6fce307c286eb3135c7782fdef1bb>@@_NPAVUnitInterface@BWAPI@@@std@@EBEPAV?$_Func_base@_NPAVUnitInterface@BWAPI@@@2@PAX@Z 1006de40 f i MicroIrradiated.obj
 0001:0006ced0       ?dangerousEnemyInRange@MicroLurkers@UAlbertaBot@@ABE_NPAVUnitInterface@BWAPI@@@Z 1006ded0 f   MicroLurkers.obj
 0001:0006d0c0       ?seekToBurrow@MicroLurkers@UAlbertaBot@@AAEXABVUnitset@BWAPI@@PAVUnitInterface@4@@Z 1006e0c0 f   MicroLurkers.obj
 0001:0006d190       ??0MicroLurkers@UAlbertaBot@@QAE@XZ 1006e190 f   MicroLurkers.obj
 0001:0006d230       ?executeMicro@MicroLurkers@UAlbertaBot@@UAEXABVUnitset@BWAPI@@ABVUnitCluster@2@@Z 1006e230 f   MicroLurkers.obj
 0001:0006d810       ?getTarget@MicroLurkers@UAlbertaBot@@QAEPAVUnitInterface@BWAPI@@PAV34@ABVUnitset@4@@Z 1006e810 f   MicroLurkers.obj
 0001:0006d9b0       ?getAttackPriority@MicroLurkers@UAlbertaBot@@QBEHPAVUnitInterface@BWAPI@@@Z 1006e9b0 f   MicroLurkers.obj
 0001:0006dba0       ?execute@MicroManager@UAlbertaBot@@QAEXABVUnitCluster@2@@Z 1006eba0 f   MicroManager.obj
 0001:0006df20       ?getBackstopAttackPriority@MicroManager@UAlbertaBot@@IBEHPAVUnitInterface@BWAPI@@@Z 1006ef20 f   MicroManager.obj
 0001:0006e110       ?destroyNeutralTargets@MicroManager@UAlbertaBot@@IAEXABVUnitset@BWAPI@@@Z 1006f110 f   MicroManager.obj
 0001:0006e350       ?regroup@MicroManager@UAlbertaBot@@QBEXABV?$Point@H$00@BWAPI@@ABVUnitCluster@2@@Z 1006f350 f   MicroManager.obj
 0001:0006ef80       ?unitNearChokepoint@MicroManager@UAlbertaBot@@IBE_NPAVUnitInterface@BWAPI@@@Z 1006ff80 f   MicroManager.obj
 0001:0006efe0       ?spell@MicroManager@UAlbertaBot@@IBE_NPAVUnitInterface@BWAPI@@VTechType@4@V?$Point@H$00@4@@Z 1006ffe0 f   MicroManager.obj
 0001:0006f1e0       ?spell@MicroManager@UAlbertaBot@@IBE_NPAVUnitInterface@BWAPI@@VTechType@4@0@Z 100701e0 f   MicroManager.obj
 0001:0006f330       ?updateCasters@MicroManager@UAlbertaBot@@IAEXABVUnitset@BWAPI@@@Z 10070330 f   MicroManager.obj
 0001:0006f560       ?infestable@MicroManager@UAlbertaBot@@IBE_NPAVUnitInterface@BWAPI@@@Z 10070560 f   MicroManager.obj
 0001:0006f6c0       ?anyUnderThreat@MicroManager@UAlbertaBot@@QBE_NABVUnitset@BWAPI@@@Z 100706c0 f   MicroManager.obj
 0001:0006fa20       ?at@?$map@PAVUnitInterface@BWAPI@@VCasterState@UAlbertaBot@@U?$less@PAVUnitInterface@BWAPI@@@std@@V?$allocator@U?$pair@QAVUnitInterface@BWAPI@@VCasterState@UAlbertaBot@@@std@@@6@@std@@QAEAAVCasterState@UAlbertaBot@@ABQAVUnitInterface@BWAPI@@@Z 10070a20 f i MicroManager.obj
 0001:0006fa70       ?_Target_type@?$_Func_impl_no_alloc@V<lambda_e0d4f0a6843bbf70301b4930bfad8260>@@_NPAVUnitInterface@BWAPI@@@std@@EBEABVtype_info@@XZ 10070a70 f i MicroManager.obj
 0001:0006fa80       ?_Copy@?$_Func_impl_no_alloc@V<lambda_e0d4f0a6843bbf70301b4930bfad8260>@@_NPAVUnitInterface@BWAPI@@@std@@EBEPAV?$_Func_base@_NPAVUnitInterface@BWAPI@@@2@PAX@Z 10070a80 f i MicroManager.obj
 0001:0006fa80       ?_Move@?$_Func_impl_no_alloc@V<lambda_e0d4f0a6843bbf70301b4930bfad8260>@@_NPAVUnitInterface@BWAPI@@@std@@EAEPAV?$_Func_base@_NPAVUnitInterface@BWAPI@@@2@PAX@Z 10070a80 f i MicroManager.obj
 0001:0006faa0       ??0Order@BWAPI@@QAE@H@Z    10070aa0 f i Micro.obj
 0001:0006fac0       ?monitor@MicroState@UAlbertaBot@@AAEXPAVUnitInterface@BWAPI@@@Z 10070ac0 f   Micro.obj
 0001:0006fc60       ?positionsNearlyEqual@MicroState@UAlbertaBot@@ABE_NPAVUnitInterface@BWAPI@@ABV?$Point@H$00@4@1@Z 10070c60 f   Micro.obj
 0001:0006fd10       ?nextDestination@MicroState@UAlbertaBot@@ABE?AV?$Point@H$00@BWAPI@@PAVUnitInterface@4@@Z 10070d10 f   Micro.obj
 0001:00070240       ?flee@MicroState@UAlbertaBot@@ABE?AV?$Point@H$00@BWAPI@@PAVUnitInterface@4@@Z 10071240 f   Micro.obj
 0001:000704e0       ??0MicroState@UAlbertaBot@@QAE@XZ 100714e0 f   Micro.obj
 0001:00070570       ?setOrder@MicroState@UAlbertaBot@@QAEXPAVUnitInterface@BWAPI@@VOrder@4@@Z 10071570 f   Micro.obj
 0001:00070630       ?setOrder@MicroState@UAlbertaBot@@QAEXPAVUnitInterface@BWAPI@@VOrder@4@0@Z 10071630 f   Micro.obj
 0001:000706f0       ?setOrder@MicroState@UAlbertaBot@@QAEXPAVUnitInterface@BWAPI@@VOrder@4@V?$Point@H$00@4@@Z 100716f0 f   Micro.obj
 0001:000707c0       ?update@MicroState@UAlbertaBot@@QAEXPAVUnitInterface@BWAPI@@@Z 100717c0 f   Micro.obj
 0001:00070ab0       ?nextGroundDestination@Micro@UAlbertaBot@@ABE?AV?$Point@H$00@BWAPI@@PAVUnitInterface@4@ABV34@PBVGridDistances@2@@Z 10071ab0 f   Micro.obj
 0001:00070e70       ?inWeaponsDanger@Micro@UAlbertaBot@@QBEPAVUnitInterface@BWAPI@@PAV34@H@Z 10071e70 f   Micro.obj
 0001:00071620       ?canFleeTo@Micro@UAlbertaBot@@QBE_NPAVUnitInterface@BWAPI@@ABV?$Point@H$00@4@@Z 10072620 f   Micro.obj
 0001:000718e0       ?kiteBack@Micro@UAlbertaBot@@QAE_NPAVUnitInterface@BWAPI@@0@Z 100728e0 f   Micro.obj
 0001:00071a70       ?fleeEnemy@Micro@UAlbertaBot@@QAEXPAVUnitInterface@BWAPI@@0H@Z 10072a70 f   Micro.obj
 0001:00071b10       ?fleeDT@Micro@UAlbertaBot@@QAE_NPAVUnitInterface@BWAPI@@@Z 10072b10 f   Micro.obj
 0001:00071d90       ?Stop@Micro@UAlbertaBot@@QAEXPAVUnitInterface@BWAPI@@@Z 10072d90 f   Micro.obj
 0001:00071f30       ?CatchAndAttackUnit@Micro@UAlbertaBot@@QAEXPAVUnitInterface@BWAPI@@0@Z 10072f30 f   Micro.obj
 0001:000721f0       ?AttackUnit@Micro@UAlbertaBot@@QAEXPAVUnitInterface@BWAPI@@0@Z 100731f0 f   Micro.obj
 0001:000723f0       ?AttackMove@Micro@UAlbertaBot@@QAEXPAVUnitInterface@BWAPI@@ABV?$Point@H$00@4@@Z 100733f0 f   Micro.obj
 0001:000725d0       ?Move@Micro@UAlbertaBot@@QAEXPAVUnitInterface@BWAPI@@ABV?$Point@H$00@4@PBVGridDistances@2@@Z 100735d0 f   Micro.obj
 0001:00072750       ?MoveNear@Micro@UAlbertaBot@@QAEXPAVUnitInterface@BWAPI@@ABV?$Point@H$00@4@PBVGridDistances@2@@Z 10073750 f   Micro.obj
 0001:00072820       ?MoveSafely@Micro@UAlbertaBot@@QAE_NPAVUnitInterface@BWAPI@@ABV?$Point@H$00@4@PBVGridDistances@2@@Z 10073820 f   Micro.obj
 0001:00072bb0       ?RightClick@Micro@UAlbertaBot@@QAEXPAVUnitInterface@BWAPI@@0@Z 10073bb0 f   Micro.obj
 0001:00072e00       ?Repair@Micro@UAlbertaBot@@QAEXPAVUnitInterface@BWAPI@@0@Z 10073e00 f   Micro.obj
 0001:00073000       ?MoveToBase@Micro@UAlbertaBot@@QAE_NPAVUnitInterface@BWAPI@@PAVBase@2@ABV?$Point@H$00@4@_N@Z 10074000 f   Micro.obj
 0001:000731f0       ?ReturnCargo@Micro@UAlbertaBot@@QAEXPAVUnitInterface@BWAPI@@@Z 100741f0 f   Micro.obj
 0001:000733f0       ?Make@Micro@UAlbertaBot@@QAE_NPAVUnitInterface@BWAPI@@VUnitType@4@@Z 100743f0 f   Micro.obj
 0001:000736b0       ?Cancel@Micro@UAlbertaBot@@QAE_NPAVUnitInterface@BWAPI@@@Z 100746b0 f   Micro.obj
 0001:000737f0       ?Burrow@Micro@UAlbertaBot@@QAE_NPAVUnitInterface@BWAPI@@@Z 100747f0 f   Micro.obj
 0001:00073950       ?Unburrow@Micro@UAlbertaBot@@QAE_NPAVUnitInterface@BWAPI@@@Z 10074950 f   Micro.obj
 0001:00073a80       ?Siege@Micro@UAlbertaBot@@QAE_NPAVUnitInterface@BWAPI@@@Z 10074a80 f   Micro.obj
 0001:00073bb0       ?Unsiege@Micro@UAlbertaBot@@QAE_NPAVUnitInterface@BWAPI@@@Z 10074bb0 f   Micro.obj
 0001:00073ce0       ?Scan@Micro@UAlbertaBot@@QAE_NABV?$Point@H$00@BWAPI@@@Z 10074ce0 f   Micro.obj
 0001:00073e50       ?Stim@Micro@UAlbertaBot@@QAE_NPAVUnitInterface@BWAPI@@@Z 10074e50 f   Micro.obj
 0001:00073f60       ?MergeArchon@Micro@UAlbertaBot@@QAE_NPAVUnitInterface@BWAPI@@0@Z 10074f60 f   Micro.obj
 0001:000740f0       ?UseTech@Micro@UAlbertaBot@@QAE_NPAVUnitInterface@BWAPI@@VTechType@4@0@Z 100750f0 f   Micro.obj
 0001:000742c0       ?KiteTarget@Micro@UAlbertaBot@@QAEXPAVUnitInterface@BWAPI@@0@Z 100752c0 f   Micro.obj
 0001:00074500       ?MutaDanceTarget@Micro@UAlbertaBot@@QAEXPAVUnitInterface@BWAPI@@0@Z 10075500 f   Micro.obj
 0001:000746a0       ??A?$map@PAVUnitInterface@BWAPI@@VMicroState@UAlbertaBot@@U?$less@PAVUnitInterface@BWAPI@@@std@@V?$allocator@U?$pair@QAVUnitInterface@BWAPI@@VMicroState@UAlbertaBot@@@std@@@6@@std@@QAEAAVMicroState@UAlbertaBot@@ABQAVUnitInterface@BWAPI@@@Z 100756a0 f i Micro.obj
 0001:00074760       ??1?$_Alloc_construct_ptr@V?$allocator@U?$_Tree_node@U?$pair@$$CBW4Type@TimerManager@UAlbertaBot@@UTimer@3@@std@@PAX@std@@@std@@@std@@QAE@XZ 10075760 f i TimerManager.obj
 0001:00074760       ??1?$_Alloc_construct_ptr@V?$allocator@U?$_Tree_node@U?$pair@QAVUnitInterface@BWAPI@@VMicroState@UAlbertaBot@@@std@@PAX@std@@@std@@@std@@QAE@XZ 10075760 f i Micro.obj
 0001:00074760       ??1?$_Tree_temp_node_alloc@V?$allocator@U?$_Tree_node@U?$pair@$$CBW4Type@TimerManager@UAlbertaBot@@UTimer@3@@std@@PAX@std@@@std@@@std@@QAE@XZ 10075760 f i TimerManager.obj
 0001:00074780       ?_Target_type@?$_Func_impl_no_alloc@V<lambda_3cdec769ff18744395981dd48fcfc232>@@_NPAVUnitInterface@BWAPI@@@std@@EBEABVtype_info@@XZ 10075780 f i Micro.obj
 0001:00074790       ?_Copy@?$_Func_impl_no_alloc@V<lambda_3cdec769ff18744395981dd48fcfc232>@@_NPAVUnitInterface@BWAPI@@@std@@EBEPAV?$_Func_base@_NPAVUnitInterface@BWAPI@@@2@PAX@Z 10075790 f i Micro.obj
 0001:00074790       ?_Move@?$_Func_impl_no_alloc@V<lambda_3cdec769ff18744395981dd48fcfc232>@@_NPAVUnitInterface@BWAPI@@@std@@EAEPAV?$_Func_base@_NPAVUnitInterface@BWAPI@@@2@PAX@Z 10075790 f i Micro.obj
 0001:000747b0       ??0MicroMedics@UAlbertaBot@@QAE@XZ 100757b0 f   MicroMedics.obj
 0001:00074840       ?update@MicroMedics@UAlbertaBot@@QAEXABVUnitCluster@2@PAVUnitInterface@BWAPI@@@Z 10075840 f   MicroMedics.obj
 0001:00074ab0       ??0MicroMelee@UAlbertaBot@@QAE@XZ 10075ab0 f   MicroMelee.obj
 0001:00074b40       ?executeMicro@MicroMelee@UAlbertaBot@@UAEXABVUnitset@BWAPI@@ABVUnitCluster@2@@Z 10075b40 f   MicroMelee.obj
 0001:00074bc0       ?assignTargets@MicroMelee@UAlbertaBot@@QAEXABVUnitset@BWAPI@@0@Z 10075bc0 f   MicroMelee.obj
 0001:00075010       ?getTarget@MicroMelee@UAlbertaBot@@QAEPAVUnitInterface@BWAPI@@PAV34@ABVUnitset@4@_N@Z 10076010 f   MicroMelee.obj
 0001:000753d0       ?getAttackPriority@MicroMelee@UAlbertaBot@@QBEHPAVUnitInterface@BWAPI@@0@Z 100763d0 f   MicroMelee.obj
 0001:000755e0       ??$distance@V?$_Tree_unchecked_const_iterator@V?$_Tree_val@U?$_Tree_simple_types@U?$pair@QAVUnitInterface@BWAPI@@PAV12@@std@@@std@@@std@@U_Iterator_base0@2@@std@@@std@@YAHV?$_Tree_unchecked_const_iterator@V?$_Tree_val@U?$_Tree_simple_types@U?$pair@QAVUnitInterface@BWAPI@@PAV12@@std@@@std@@@std@@U_Iterator_base0@2@@0@0@Z 100765e0 f i MicroMutas.obj
 0001:00075640       ?nearestSpore@MicroOverlords@UAlbertaBot@@ABEPAVUnitInterface@BWAPI@@PAV34@@Z 10076640 f   MicroOverlords.obj
 0001:000756e0       ?assignOverlordsToSpores@MicroOverlords@UAlbertaBot@@AAEXABVUnitset@BWAPI@@@Z 100766e0 f   MicroOverlords.obj
 0001:00075770       ?assignOverlords@MicroOverlords@UAlbertaBot@@AAEXXZ 10076770 f   MicroOverlords.obj
 0001:000762f0       ??0MicroOverlords@UAlbertaBot@@QAE@XZ 100772f0 f   MicroOverlords.obj
 0001:000763c0       ??_EMicroOverlords@UAlbertaBot@@UAEPAXI@Z 100773c0 f i * CIL library *:* CIL module *
 0001:000763c0       ??_GMicroOverlords@UAlbertaBot@@UAEPAXI@Z 100773c0 f i MicroOverlords.obj
 0001:00076430       ??1MicroOverlords@UAlbertaBot@@UAE@XZ 10077430 f i MicroOverlords.obj
 0001:00076480       ??1?$map@PAVUnitInterface@BWAPI@@V?$Point@H$0CA@@2@U?$less@PAVUnitInterface@BWAPI@@@std@@V?$allocator@U?$pair@QAVUnitInterface@BWAPI@@V?$Point@H$0CA@@2@@std@@@5@@std@@QAE@XZ 10077480 f i MicroOverlords.obj
 0001:000764a0       ?update@MicroOverlords@UAlbertaBot@@QAEXXZ 100774a0 f   MicroOverlords.obj
 0001:00076880       ??A?$map@PAVUnitInterface@BWAPI@@V?$Point@H$0CA@@2@U?$less@PAVUnitInterface@BWAPI@@@std@@V?$allocator@U?$pair@QAVUnitInterface@BWAPI@@V?$Point@H$0CA@@2@@std@@@5@@std@@QAEAAV?$Point@H$0CA@@BWAPI@@ABQAVUnitInterface@3@@Z 10077880 f i MicroOverlords.obj
 0001:00076940       ??$_Erase_tree@V?$allocator@U?$_Tree_node@U?$pair@QAVUnitInterface@BWAPI@@V?$Point@H$0CA@@2@@std@@PAX@std@@@std@@@?$_Tree_val@U?$_Tree_simple_types@U?$pair@QAVUnitInterface@BWAPI@@V?$Point@H$0CA@@2@@std@@@std@@@std@@QAEXAAV?$allocator@U?$_Tree_node@U?$pair@QAVUnitInterface@BWAPI@@V?$Point@H$0CA@@2@@std@@PAX@std@@@1@PAU?$_Tree_node@U?$pair@QAVUnitInterface@BWAPI@@V?$Point@H$0CA@@2@@std@@PAX@1@@Z 10077940 f i MicroOverlords.obj
 0001:00076940       ??$_Erase_tree_and_orphan@V?$allocator@U?$_Tree_node@U?$pair@QAVUnitInterface@BWAPI@@V?$Point@H$0CA@@2@@std@@PAX@std@@@std@@@?$_Tree_val@U?$_Tree_simple_types@U?$pair@QAVUnitInterface@BWAPI@@V?$Point@H$0CA@@2@@std@@@std@@@std@@QAEXAAV?$allocator@U?$_Tree_node@U?$pair@QAVUnitInterface@BWAPI@@V?$Point@H$0CA@@2@@std@@PAX@std@@@1@PAU?$_Tree_node@U?$pair@QAVUnitInterface@BWAPI@@V?$Point@H$0CA@@2@@std@@PAX@1@@Z 10077940 f i SquadData.obj
 0001:00076980       ?_Erase_unchecked@?$_Tree@V?$_Tmap_traits@PAVUnitInterface@BWAPI@@V?$Point@H$0CA@@2@U?$less@PAVUnitInterface@BWAPI@@@std@@V?$allocator@U?$pair@QAVUnitInterface@BWAPI@@V?$Point@H$0CA@@2@@std@@@5@$0A@@std@@@std@@AAEPAU?$_Tree_node@U?$pair@QAVUnitInterface@BWAPI@@V?$Point@H$0CA@@2@@std@@PAX@2@V?$_Tree_unchecked_const_iterator@V?$_Tree_val@U?$_Tree_simple_types@U?$pair@QAVUnitInterface@BWAPI@@V?$Point@H$0CA@@2@@std@@@std@@@std@@U_Iterator_base0@2@@2@@Z 10077980 f i MicroOverlords.obj
 0001:000769f0       ?maybeParasite@MicroQueens@UAlbertaBot@@AAE_NPAVUnitInterface@BWAPI@@H@Z 100779f0 f   MicroQueens.obj
 0001:00076fc0       ?ensnareScore@MicroQueens@UAlbertaBot@@ABEHPAVUnitInterface@BWAPI@@@Z 10077fc0 f   MicroQueens.obj
 0001:00077150       ?maybeEnsnare@MicroQueens@UAlbertaBot@@AAE_NPAVUnitInterface@BWAPI@@@Z 10078150 f   MicroQueens.obj
 0001:00077780       ?broodlingScore@MicroQueens@UAlbertaBot@@ABEHPAVUnitInterface@BWAPI@@0@Z 10078780 f   MicroQueens.obj
 0001:00077b90       ?maybeBroodling@MicroQueens@UAlbertaBot@@AAE_NPAVUnitInterface@BWAPI@@@Z 10078b90 f   MicroQueens.obj
 0001:000782d0       ?updateMovement@MicroQueens@UAlbertaBot@@AAEXPAVUnitInterface@BWAPI@@@Z 100792d0 f   MicroQueens.obj
 0001:00078a50       ?updateAction@MicroQueens@UAlbertaBot@@AAEX_N@Z 10079a50 f   MicroQueens.obj
 0001:00078dc0       ??0MicroQueens@UAlbertaBot@@QAE@XZ 10079dc0 f   MicroQueens.obj
 0001:00078e50       ?_Target_type@?$_Func_impl_no_alloc@V<lambda_78f85996966d427a337d8e82ed1b3dbd>@@_NPAVUnitInterface@BWAPI@@@std@@EBEABVtype_info@@XZ 10079e50 f i MicroQueens.obj
 0001:00078e60       ?_Do_call@?$_Func_impl_no_alloc@V<lambda_78f85996966d427a337d8e82ed1b3dbd>@@_NPAVUnitInterface@BWAPI@@@std@@EAE_N$$QAPAVUnitInterface@BWAPI@@@Z 10079e60 f i MicroQueens.obj
 0001:00078ea0       ?_Copy@?$_Func_impl_no_alloc@V<lambda_78f85996966d427a337d8e82ed1b3dbd>@@_NPAVUnitInterface@BWAPI@@@std@@EBEPAV?$_Func_base@_NPAVUnitInterface@BWAPI@@@2@PAX@Z 10079ea0 f i MicroQueens.obj
 0001:00078ea0       ?_Move@?$_Func_impl_no_alloc@V<lambda_78f85996966d427a337d8e82ed1b3dbd>@@_NPAVUnitInterface@BWAPI@@@std@@EAEPAV?$_Func_base@_NPAVUnitInterface@BWAPI@@@2@PAX@Z 10079ea0 f i MicroQueens.obj
 0001:00078ec0       ??0MicroRanged@UAlbertaBot@@QAE@XZ 10079ec0 f   MicroRanged.obj
 0001:00078f50       ?executeMicro@MicroRanged@UAlbertaBot@@UAEXABVUnitset@BWAPI@@ABVUnitCluster@2@@Z 10079f50 f   MicroRanged.obj
 0001:00078fd0       ?assignTargets@MicroRanged@UAlbertaBot@@QAEXABVUnitset@BWAPI@@0@Z 10079fd0 f   MicroRanged.obj
 0001:00079420       ?getTarget@MicroRanged@UAlbertaBot@@QAEPAVUnitInterface@BWAPI@@PAV34@ABVUnitset@4@_N@Z 1007a420 f   MicroRanged.obj
 0001:000799d0       ?getAttackPriority@MicroRanged@UAlbertaBot@@QAEHPAVUnitInterface@BWAPI@@0@Z 1007a9d0 f   MicroRanged.obj
 0001:00079e90       ??0MicroScourge@UAlbertaBot@@QAE@XZ 1007ae90 f   MicroScourge.obj
 0001:00079f20       ?executeMicro@MicroScourge@UAlbertaBot@@UAEXABVUnitset@BWAPI@@ABVUnitCluster@2@@Z 1007af20 f   MicroScourge.obj
 0001:00079fa0       ?assignTargets@MicroScourge@UAlbertaBot@@QAEXABVUnitset@BWAPI@@0@Z 1007afa0 f   MicroScourge.obj
 0001:0007a320       ?getAttackPriority@MicroScourge@UAlbertaBot@@SAHVUnitType@BWAPI@@@Z 1007b320 f   MicroScourge.obj
 0001:0007a420       ?allMeleeAndSameHeight@MicroTanks@UAlbertaBot@@ABE_NABVUnitset@BWAPI@@PAVUnitInterface@4@@Z 1007b420 f   MicroTanks.obj
 0001:0007a4d0       ??0MicroTanks@UAlbertaBot@@QAE@XZ 1007b4d0 f   MicroTanks.obj
 0001:0007a560       ?executeMicro@MicroTanks@UAlbertaBot@@UAEXABVUnitset@BWAPI@@ABVUnitCluster@2@@Z 1007b560 f   MicroTanks.obj
 0001:0007aaf0       ?getAttackPriority@MicroTanks@UAlbertaBot@@QAEHPAVUnitInterface@BWAPI@@0@Z 1007baf0 f   MicroTanks.obj
 0001:0007adc0       ??0MicroTransports@UAlbertaBot@@QAE@XZ 1007bdc0 f   MicroTransports.obj
 0001:0007ae90       ??_EMicroTransports@UAlbertaBot@@UAEPAXI@Z 1007be90 f i * CIL library *:* CIL module *
 0001:0007ae90       ??_GMicroTransports@UAlbertaBot@@UAEPAXI@Z 1007be90 f i MicroTransports.obj
 0001:0007aef0       ??1MicroTransports@UAlbertaBot@@UAE@XZ 1007bef0 f i MicroTransports.obj
 0001:0007af30       ?calculateWaypoints@MicroTransports@UAlbertaBot@@AAEXXZ 1007bf30 f   MicroTransports.obj
 0001:0007b0c0       ?drawTransportInformation@MicroTransports@UAlbertaBot@@AAEXXZ 1007c0c0 f   MicroTransports.obj
 0001:0007b280       ?update@MicroTransports@UAlbertaBot@@QAEXXZ 1007c280 f   MicroTransports.obj
 0001:0007b450       ?maybeUnloadTroops@MicroTransports@UAlbertaBot@@AAEXXZ 1007c450 f   MicroTransports.obj
 0001:0007b5c0       ?followPerimeter@MicroTransports@UAlbertaBot@@AAEXXZ 1007c5c0 f   MicroTransports.obj
 0001:0007b980       ??0?$basic_ifstream@DU?$char_traits@D@std@@@std@@QAE@XZ 1007c980 f i OpeningTiming.obj
 0001:0007ba60       ??0OpeningTimingRecord@UAlbertaBot@@QAE@XZ 1007ca60 f   OpeningTimingRecord.obj
 0001:0007bbe0       ?predictEnemyPlan@OpponentModel@UAlbertaBot@@ABE?AW4OpeningPlan@2@XZ 1007cbe0 f   OpponentModel.obj
 0001:0007bdc0       ??1?$set@W4OpeningPlan@UAlbertaBot@@U?$less@W4OpeningPlan@UAlbertaBot@@@std@@V?$allocator@W4OpeningPlan@UAlbertaBot@@@4@@std@@QAE@XZ 1007cdc0 f i OpponentModel.obj
 0001:0007bdd0       ?considerOpenings@OpponentModel@UAlbertaBot@@AAEXXZ 1007cdd0 f   OpponentModel.obj
 0001:0007c300       ?singleStrategyEnemyOpenings@OpponentModel@UAlbertaBot@@AAEXXZ 1007d300 f   OpponentModel.obj
 0001:0007c560       ?multipleStrategyEnemyOpenings@OpponentModel@UAlbertaBot@@AAEXXZ 1007d560 f   OpponentModel.obj
 0001:0007c890       ?getExploreOpening@OpponentModel@UAlbertaBot@@AAE?AV?$basic_string@DU?$char_traits@D@std@@V?$allocator@D@2@@std@@ABUOpponentSummary@12@@Z 1007d890 f   OpponentModel.obj
 0001:0007c9e0       ?getOpeningForEnemyPlan@OpponentModel@UAlbertaBot@@AAE?AV?$basic_string@DU?$char_traits@D@std@@V?$allocator@D@2@@std@@W4OpeningPlan@2@@Z 1007d9e0 f   OpponentModel.obj
 0001:0007cac0       ??0OpponentModel@UAlbertaBot@@QAE@XZ 1007dac0 f   OpponentModel.obj
 0001:0007cd80       ??1GameRecordNow@UAlbertaBot@@QAE@XZ 1007dd80 f i OpponentModel.obj
 0001:0007cda0       ??1OpponentSummary@OpponentModel@UAlbertaBot@@QAE@XZ 1007dda0 f i OpponentModel.obj
 0001:0007cdb0       ?read@OpponentModel@UAlbertaBot@@QAEXXZ 1007ddb0 f   OpponentModel.obj
 0001:0007d280       ?write@OpponentModel@UAlbertaBot@@QAEXXZ 1007e280 f   OpponentModel.obj
 0001:0007d430       ?predictEnemyAirUnitTiming@OpponentModel@UAlbertaBot@@QBEHXZ 1007e430 f   OpponentModel.obj
 0001:0007d620       ?Instance@OpponentModel@UAlbertaBot@@SAAAV12@XZ 1007e620 f   OpponentModel.obj
 0001:0007d620       ?oppModel@The@UAlbertaBot@@QAEAAVOpponentModel@2@XZ 1007e620 f   The.obj
 0001:0007d6b0       ??$insert@$0A@$0A@@?$_Tree@V?$_Tset_traits@W4OpeningPlan@UAlbertaBot@@U?$less@W4OpeningPlan@UAlbertaBot@@@std@@V?$allocator@W4OpeningPlan@UAlbertaBot@@@4@$0A@@std@@@std@@QAE?AU?$pair@V?$_Tree_const_iterator@V?$_Tree_val@U?$_Tree_simple_types@W4OpeningPlan@UAlbertaBot@@@std@@@std@@@std@@_N@1@ABW4OpeningPlan@UAlbertaBot@@@Z 1007e6b0 f i OpponentModel.obj
 0001:0007d7a0       ??1?$vector@U?$pair@V?$basic_string@DU?$char_traits@D@std@@V?$allocator@D@2@@std@@N@std@@V?$allocator@U?$pair@V?$basic_string@DU?$char_traits@D@std@@V?$allocator@D@2@@std@@N@std@@@2@@std@@QAE@XZ 1007e7a0 f i OpponentModel.obj
 0001:0007d820       ??1?$_Tree@V?$_Tset_traits@W4OpeningPlan@UAlbertaBot@@U?$less@W4OpeningPlan@UAlbertaBot@@@std@@V?$allocator@W4OpeningPlan@UAlbertaBot@@@4@$0A@@std@@@std@@QAE@XZ 1007e820 f i OpponentModel.obj
 0001:0007d860       ??1?$_Tree@V?$_Tmap_traits@V?$basic_string@DU?$char_traits@D@std@@V?$allocator@D@2@@std@@UOpeningInfoType@OpponentModel@UAlbertaBot@@U?$less@V?$basic_string@DU?$char_traits@D@std@@V?$allocator@D@2@@std@@@2@V?$allocator@U?$pair@$$CBV?$basic_string@DU?$char_traits@D@std@@V?$allocator@D@2@@std@@UOpeningInfoType@OpponentModel@UAlbertaBot@@@std@@@2@$0A@@std@@@std@@QAE@XZ 1007e860 f i OpponentModel.obj
 0001:0007d8b0       ??A?$map@V?$basic_string@DU?$char_traits@D@std@@V?$allocator@D@2@@std@@UOpeningInfoType@OpponentModel@UAlbertaBot@@U?$less@V?$basic_string@DU?$char_traits@D@std@@V?$allocator@D@2@@std@@@2@V?$allocator@U?$pair@$$CBV?$basic_string@DU?$char_traits@D@std@@V?$allocator@D@2@@std@@UOpeningInfoType@OpponentModel@UAlbertaBot@@@std@@@2@@std@@QAEAAUOpeningInfoType@OpponentModel@UAlbertaBot@@ABV?$basic_string@DU?$char_traits@D@std@@V?$allocator@D@2@@1@@Z 1007e8b0 f i OpponentModel.obj
 0001:0007d9c0       ??$_Sort_unchecked@PAHU?$less@X@std@@@std@@YAXPAH0HU?$less@X@0@@Z 1007e9c0 f i OpponentModel.obj
 0001:0007db60       ??$_Emplace_reallocate@U?$pair@V?$basic_string@DU?$char_traits@D@std@@V?$allocator@D@2@@std@@N@std@@@?$vector@U?$pair@V?$basic_string@DU?$char_traits@D@std@@V?$allocator@D@2@@std@@N@std@@V?$allocator@U?$pair@V?$basic_string@DU?$char_traits@D@std@@V?$allocator@D@2@@std@@N@std@@@2@@std@@AAEPAU?$pair@V?$basic_string@DU?$char_traits@D@std@@V?$allocator@D@2@@std@@N@1@QAU21@$$QAU21@@Z 1007eb60 f i OpponentModel.obj
 0001:0007dd10       ??$_Erase_tree@V?$allocator@U?$_Tree_node@U?$pair@$$CBV?$basic_string@DU?$char_traits@D@std@@V?$allocator@D@2@@std@@UOpeningInfoType@OpponentModel@UAlbertaBot@@@std@@PAX@std@@@std@@@?$_Tree_val@U?$_Tree_simple_types@U?$pair@$$CBV?$basic_string@DU?$char_traits@D@std@@V?$allocator@D@2@@std@@UOpeningInfoType@OpponentModel@UAlbertaBot@@@std@@@std@@@std@@QAEXAAV?$allocator@U?$_Tree_node@U?$pair@$$CBV?$basic_string@DU?$char_traits@D@std@@V?$allocator@D@2@@std@@UOpeningInfoType@OpponentModel@UAlbertaBot@@@std@@PAX@std@@@1@PAU?$_Tree_node@U?$pair@$$CBV?$basic_string@DU?$char_traits@D@std@@V?$allocator@D@2@@std@@UOpeningInfoType@OpponentModel@UAlbertaBot@@@std@@PAX@1@@Z 1007ed10 f i OpponentModel.obj
 0001:0007dd60       ??$_Partition_by_median_guess_unchecked@PAHU?$less@X@std@@@std@@YA?AU?$pair@PAHPAH@0@PAH0U?$less@X@0@@Z 1007ed60 f i OpponentModel.obj
 0001:0007dee0       ??$_Uninitialized_move@PAU?$pair@V?$basic_string@DU?$char_traits@D@std@@V?$allocator@D@2@@std@@N@std@@V?$allocator@U?$pair@V?$basic_string@DU?$char_traits@D@std@@V?$allocator@D@2@@std@@N@std@@@2@@std@@YAPAU?$pair@V?$basic_string@DU?$char_traits@D@std@@V?$allocator@D@2@@std@@N@0@QAU10@0PAU10@AAV?$allocator@U?$pair@V?$basic_string@DU?$char_traits@D@std@@V?$allocator@D@2@@std@@N@std@@@0@@Z 1007eee0 f i OpponentModel.obj
 0001:0007df50       ??$_Pop_heap_hole_by_index@PAHHU?$less@X@std@@@std@@YAXPAHHH$$QAHU?$less@X@0@@Z 1007ef50 f i OpponentModel.obj
 0001:0007dff0       ??$_Guess_median_unchecked@PAHU?$less@X@std@@@std@@YAXPAH00U?$less@X@0@@Z 1007eff0 f i OpponentModel.obj
 0001:0007e120       ?closestEnemyBase@OpponentPlan@UAlbertaBot@@ABEPAVBase@2@ABV?$Point@H$00@BWAPI@@@Z 1007f120 f   OpponentPlan.obj
 0001:0007e260       ?recognizeProxy@OpponentPlan@UAlbertaBot@@ABE?AW4OpeningPlan@2@XZ 1007f260 f   OpponentPlan.obj
 0001:0007e5b0       ?recognizeRush@OpponentPlan@UAlbertaBot@@ABE?AW4OpeningPlan@2@XZ 1007f5b0 f   OpponentPlan.obj
 0001:0007eaa0       ?recognizeTerranTech@OpponentPlan@UAlbertaBot@@ABE?AW4OpeningPlan@2@XZ 1007faa0 f   OpponentPlan.obj
 0001:0007ecb0       ?recognize@OpponentPlan@UAlbertaBot@@AAEXXZ 1007fcb0 f   OpponentPlan.obj
 0001:0007f220       ?add@UnitCluster@UAlbertaBot@@QAEXABUUnitInfo@2@@Z 10080220 f   OpsBoss.obj
 0001:0007f3f0       ?draw@UnitCluster@UAlbertaBot@@QBEXVColor@BWAPI@@ABV?$basic_string@DU?$char_traits@D@std@@V?$allocator@D@2@@std@@@Z 100803f0 f   OpsBoss.obj
 0001:0007f550       ?locateCluster@OpsBoss@UAlbertaBot@@AAEXABV?$vector@V?$Point@H$00@BWAPI@@V?$allocator@V?$Point@H$00@BWAPI@@@std@@@std@@AAVUnitCluster@2@@Z 10080550 f   OpsBoss.obj
 0001:0007f690       ?formCluster@OpsBoss@UAlbertaBot@@AAEXABUUnitInfo@2@ABV?$map@PAVUnitInterface@BWAPI@@UUnitInfo@UAlbertaBot@@U?$less@PAVUnitInterface@BWAPI@@@std@@V?$allocator@U?$pair@QAVUnitInterface@BWAPI@@UUnitInfo@UAlbertaBot@@@std@@@6@@std@@AAVUnitset@BWAPI@@AAVUnitCluster@2@@Z 10080690 f   OpsBoss.obj
 0001:0007f860       ?clusterUnits@OpsBoss@UAlbertaBot@@AAEXPAVPlayerInterface@BWAPI@@AAVUnitset@4@AAV?$vector@VUnitCluster@UAlbertaBot@@V?$allocator@VUnitCluster@UAlbertaBot@@@std@@@std@@@Z 10080860 f   OpsBoss.obj
 0001:0007fae0       ?updateDefenders@OpsBoss@UAlbertaBot@@AAEXXZ 10080ae0 f   OpsBoss.obj
 0001:0007fd70       ?update@OpsBoss@UAlbertaBot@@QAEXXZ 10080d70 f   OpsBoss.obj
 0001:0007ffe0       ??$_Emplace_reallocate@VUnitCluster@UAlbertaBot@@@?$vector@VUnitCluster@UAlbertaBot@@V?$allocator@VUnitCluster@UAlbertaBot@@@std@@@std@@AAEPAVUnitCluster@UAlbertaBot@@QAV23@$$QAV23@@Z 10080fe0 f i OpsBoss.obj
 0001:00080270       ??$construct@VUnitCluster@UAlbertaBot@@V12@@?$_Default_allocator_traits@V?$allocator@VUnitCluster@UAlbertaBot@@@std@@@std@@SAXAAV?$allocator@VUnitCluster@UAlbertaBot@@@1@QAVUnitCluster@UAlbertaBot@@$$QAV34@@Z 10081270 f i OpsBoss.obj
 0001:00080360       ??$_Uninitialized_copy@PAVUnitCluster@UAlbertaBot@@PAV12@V?$allocator@VUnitCluster@UAlbertaBot@@@std@@@std@@YAPAVUnitCluster@UAlbertaBot@@PAV12@00AAV?$allocator@VUnitCluster@UAlbertaBot@@@0@@Z 10081360 f i OpsBoss.obj
 0001:00080440       ??1_Reallocation_guard@?$vector@VUnitCluster@UAlbertaBot@@V?$allocator@VUnitCluster@UAlbertaBot@@@std@@@std@@QAE@XZ 10081440 f i OpsBoss.obj
 0001:000804b0       ??1?$_Uninitialized_backout_al@V?$allocator@VUnitCluster@UAlbertaBot@@@std@@@std@@QAE@XZ 100814b0 f i OpsBoss.obj
 0001:000804e0       ??0Race@BWAPI@@QAE@H@Z     100814e0 f i ParseUtils.obj
 0001:00080500       ?ParseConfigFile@ParseUtils@UAlbertaBot@@YAXABV?$basic_string@DU?$char_traits@D@std@@V?$allocator@D@2@@std@@@Z 10081500 f   ParseUtils.obj
 0001:00082c50       ??1Strategy@UAlbertaBot@@QAE@XZ 10083c50 f i ParseUtils.obj
 0001:00082c70       ?ParseTextCommand@ParseUtils@UAlbertaBot@@YAXABV?$basic_string@DU?$char_traits@D@std@@V?$allocator@D@2@@std@@@Z 10083c70 f   ParseUtils.obj
 0001:000847a0       ?_ParseStrategy@ParseUtils@UAlbertaBot@@YA_NABV?$GenericValue@U?$UTF8@D@rapidjson@@V?$MemoryPoolAllocator@VCrtAllocator@rapidjson@@@2@@rapidjson@@AAV?$basic_string@DU?$char_traits@D@std@@V?$allocator@D@2@@std@@ABV56@2PBV34@@Z 100857a0 f   ParseUtils.obj
 0001:00084e20       ?_LookUpStrategyCombo@ParseUtils@UAlbertaBot@@YA_NABV?$GenericValue@U?$UTF8@D@rapidjson@@V?$MemoryPoolAllocator@VCrtAllocator@rapidjson@@@2@@rapidjson@@AAV?$basic_string@DU?$char_traits@D@std@@V?$allocator@D@2@@std@@ABV56@2PBV34@@Z 10085e20 f   ParseUtils.obj
 0001:00084f00       ?GetBoolFromString@ParseUtils@UAlbertaBot@@YA_NABV?$basic_string@DU?$char_traits@D@std@@V?$allocator@D@2@@std@@@Z 10085f00 f   ParseUtils.obj
 0001:00085020       ?GetIntByRace@ParseUtils@UAlbertaBot@@YAHPBDABV?$GenericValue@U?$UTF8@D@rapidjson@@V?$MemoryPoolAllocator@VCrtAllocator@rapidjson@@@2@@rapidjson@@@Z 10086020 f   ParseUtils.obj
 0001:000851b0       ?GetDoubleByRace@ParseUtils@UAlbertaBot@@YANPBDABV?$GenericValue@U?$UTF8@D@rapidjson@@V?$MemoryPoolAllocator@VCrtAllocator@rapidjson@@@2@@rapidjson@@@Z 100861b0 f   ParseUtils.obj
 0001:00085450       ?GetBoolByRace@ParseUtils@UAlbertaBot@@YA_NPBDABV?$GenericValue@U?$UTF8@D@rapidjson@@V?$MemoryPoolAllocator@VCrtAllocator@rapidjson@@@2@@rapidjson@@@Z 10086450 f   ParseUtils.obj
 0001:000855f0       ??$?HDU?$char_traits@D@std@@V?$allocator@D@1@@std@@YA?AV?$basic_string@DU?$char_traits@D@std@@V?$allocator@D@2@@0@$$QAV10@D@Z 100865f0 f i ParseUtils.obj
 0001:00085650       ??$?5DU?$char_traits@D@std@@V?$allocator@D@1@@std@@YAAAV?$basic_istream@DU?$char_traits@D@std@@@0@AAV10@AAV?$basic_string@DU?$char_traits@D@std@@V?$allocator@D@2@@0@@Z 10086650 f i ParseUtils.obj
 0001:00085810       ?at@?$vector@V?$basic_string@DU?$char_traits@D@std@@V?$allocator@D@2@@std@@V?$allocator@V?$basic_string@DU?$char_traits@D@std@@V?$allocator@D@2@@std@@@2@@std@@QAEAAV?$basic_string@DU?$char_traits@D@std@@V?$allocator@D@2@@2@I@Z 10086810 f i ParseUtils.obj
 0001:00085850       ??1?$GenericDocument@U?$UTF8@D@rapidjson@@V?$MemoryPoolAllocator@VCrtAllocator@rapidjson@@@2@VCrtAllocator@2@@rapidjson@@QAE@XZ 10086850 f i ParseUtils.obj
 0001:000858c0       ??1?$GenericReader@U?$UTF8@D@rapidjson@@U12@VCrtAllocator@2@@rapidjson@@QAE@XZ 100868c0 f i ParseUtils.obj
 0001:000858c0       ??1?$Stack@VCrtAllocator@rapidjson@@@internal@rapidjson@@QAE@XZ 100868c0 f i ParseUtils.obj
 0001:000858e0       ??0?$basic_string@DU?$char_traits@D@std@@V?$allocator@D@2@@std@@QAE@U_String_constructor_concat_tag@1@AAV01@1@Z 100868e0 f i ParseUtils.obj
 0001:00085a70       ??$_Emplace_reallocate@V?$basic_string@DU?$char_traits@D@std@@V?$allocator@D@2@@std@@@?$vector@V?$basic_string@DU?$char_traits@D@std@@V?$allocator@D@2@@std@@V?$allocator@V?$basic_string@DU?$char_traits@D@std@@V?$allocator@D@2@@std@@@2@@std@@AAEPAV?$basic_string@DU?$char_traits@D@std@@V?$allocator@D@2@@1@QAV21@$$QAV21@@Z 10086a70 f i ParseUtils.obj
 0001:00085c10       ??$Parse@$0A@U?$UTF8@D@rapidjson@@@?$GenericDocument@U?$UTF8@D@rapidjson@@V?$MemoryPoolAllocator@VCrtAllocator@rapidjson@@@2@VCrtAllocator@2@@rapidjson@@QAEAAV01@PBD@Z 10086c10 f i ParseUtils.obj
 0001:00085c40       ??$ParseStream@$0A@U?$UTF8@D@rapidjson@@U?$GenericStringStream@U?$UTF8@D@rapidjson@@@2@@?$GenericDocument@U?$UTF8@D@rapidjson@@V?$MemoryPoolAllocator@VCrtAllocator@rapidjson@@@2@VCrtAllocator@2@@rapidjson@@QAEAAV01@AAU?$GenericStringStream@U?$UTF8@D@rapidjson@@@1@@Z 10086c40 f i ParseUtils.obj
 0001:00085de0       ??1ClearStackOnExit@?$GenericDocument@U?$UTF8@D@rapidjson@@V?$MemoryPoolAllocator@VCrtAllocator@rapidjson@@@2@VCrtAllocator@2@@rapidjson@@QAE@XZ 10086de0 f i ParseUtils.obj
 0001:00085e10       ??$ParseValue@$0A@U?$GenericStringStream@U?$UTF8@D@rapidjson@@@rapidjson@@V?$GenericDocument@U?$UTF8@D@rapidjson@@V?$MemoryPoolAllocator@VCrtAllocator@rapidjson@@@2@VCrtAllocator@2@@2@@?$GenericReader@U?$UTF8@D@rapidjson@@U12@VCrtAllocator@2@@rapidjson@@AAEXAAU?$GenericStringStream@U?$UTF8@D@rapidjson@@@1@AAV?$GenericDocument@U?$UTF8@D@rapidjson@@V?$MemoryPoolAllocator@VCrtAllocator@rapidjson@@@2@VCrtAllocator@2@@1@@Z 10086e10 f i ParseUtils.obj
 0001:00086090       ??1ClearStackOnExit@?$GenericReader@U?$UTF8@D@rapidjson@@U12@VCrtAllocator@2@@rapidjson@@QAE@XZ 10087090 f i ParseUtils.obj
 0001:000860a0       ??$ParseObject@$0A@U?$GenericStringStream@U?$UTF8@D@rapidjson@@@rapidjson@@V?$GenericDocument@U?$UTF8@D@rapidjson@@V?$MemoryPoolAllocator@VCrtAllocator@rapidjson@@@2@VCrtAllocator@2@@2@@?$GenericReader@U?$UTF8@D@rapidjson@@U12@VCrtAllocator@2@@rapidjson@@AAEXAAU?$GenericStringStream@U?$UTF8@D@rapidjson@@@1@AAV?$GenericDocument@U?$UTF8@D@rapidjson@@V?$MemoryPoolAllocator@VCrtAllocator@rapidjson@@@2@VCrtAllocator@2@@1@@Z 100870a0 f i ParseUtils.obj
 0001:00086330       ??$ParseArray@$0A@U?$GenericStringStream@U?$UTF8@D@rapidjson@@@rapidjson@@V?$GenericDocument@U?$UTF8@D@rapidjson@@V?$MemoryPoolAllocator@VCrtAllocator@rapidjson@@@2@VCrtAllocator@2@@2@@?$GenericReader@U?$UTF8@D@rapidjson@@U12@VCrtAllocator@2@@rapidjson@@AAEXAAU?$GenericStringStream@U?$UTF8@D@rapidjson@@@1@AAV?$GenericDocument@U?$UTF8@D@rapidjson@@V?$MemoryPoolAllocator@VCrtAllocator@rapidjson@@@2@VCrtAllocator@2@@1@@Z 10087330 f i ParseUtils.obj
 0001:00086490       ??$ParseNumber@$0A@U?$GenericStringStream@U?$UTF8@D@rapidjson@@@rapidjson@@V?$GenericDocument@U?$UTF8@D@rapidjson@@V?$MemoryPoolAllocator@VCrtAllocator@rapidjson@@@2@VCrtAllocator@2@@2@@?$GenericReader@U?$UTF8@D@rapidjson@@U12@VCrtAllocator@2@@rapidjson@@AAEXAAU?$GenericStringStream@U?$UTF8@D@rapidjson@@@1@AAV?$GenericDocument@U?$UTF8@D@rapidjson@@V?$MemoryPoolAllocator@VCrtAllocator@rapidjson@@@2@VCrtAllocator@2@@1@@Z 10087490 f i ParseUtils.obj
 0001:00086c10       ??1?$StreamLocalCopy@U?$GenericStringStream@U?$UTF8@D@rapidjson@@@rapidjson@@$00@internal@rapidjson@@QAE@XZ 10087c10 f i ParseUtils.obj
 0001:00086c20       ??$ParseStringToStream@$0A@U?$UTF8@D@rapidjson@@U12@U?$GenericStringStream@U?$UTF8@D@rapidjson@@@2@V?$StackStream@D@?$GenericReader@U?$UTF8@D@rapidjson@@U12@VCrtAllocator@2@@2@@?$GenericReader@U?$UTF8@D@rapidjson@@U12@VCrtAllocator@2@@rapidjson@@AAEXAAU?$GenericStringStream@U?$UTF8@D@rapidjson@@@1@AAV?$StackStream@D@01@@Z 10087c20 f i ParseUtils.obj
 0001:00086e40       ?Key@?$GenericDocument@U?$UTF8@D@rapidjson@@V?$MemoryPoolAllocator@VCrtAllocator@rapidjson@@@2@VCrtAllocator@2@@rapidjson@@AAE_NPBDI_N@Z 10087e40 f i ParseUtils.obj
 0001:00086e40       ?String@?$GenericDocument@U?$UTF8@D@rapidjson@@V?$MemoryPoolAllocator@VCrtAllocator@rapidjson@@@2@VCrtAllocator@2@@rapidjson@@AAE_NPBDI_N@Z 10087e40 f i ParseUtils.obj
 0001:00086ec0       ??$ParseHex4@U?$GenericStringStream@U?$UTF8@D@rapidjson@@@rapidjson@@@?$GenericReader@U?$UTF8@D@rapidjson@@U12@VCrtAllocator@2@@rapidjson@@AAEIAAU?$GenericStringStream@U?$UTF8@D@rapidjson@@@1@@Z 10087ec0 f i ParseUtils.obj
 0001:00086f40       ??$Push@V?$GenericValue@U?$UTF8@D@rapidjson@@V?$MemoryPoolAllocator@VCrtAllocator@rapidjson@@@2@@rapidjson@@@?$Stack@VCrtAllocator@rapidjson@@@internal@rapidjson@@QAEPAV?$GenericValue@U?$UTF8@D@rapidjson@@V?$MemoryPoolAllocator@VCrtAllocator@rapidjson@@@2@@2@I@Z 10087f40 f i ParseUtils.obj
 0001:00086fd0       ?Put@?$StackStream@D@?$GenericReader@U?$UTF8@D@rapidjson@@U12@VCrtAllocator@2@@rapidjson@@QAEXD@Z 10087fd0 f i ParseUtils.obj
 0001:00087070       ?Malloc@?$MemoryPoolAllocator@VCrtAllocator@rapidjson@@@rapidjson@@QAEPAXI@Z 10088070 f i ParseUtils.obj
 0001:00087100       ?reset@PlayerSnapshot@UAlbertaBot@@IAEXPAVPlayerInterface@BWAPI@@@Z 10088100 f   PlayerSnapshot.obj
 0001:00087180       ?inferUnseenRequirements@PlayerSnapshot@UAlbertaBot@@IAEXABV12@VUnitType@BWAPI@@@Z 10088180 f   PlayerSnapshot.obj
 0001:00087400       ??0PlayerSnapshot@UAlbertaBot@@QAE@PAVPlayerInterface@BWAPI@@@Z 10088400 f   PlayerSnapshot.obj
 0001:000874e0       ?takeSelf@PlayerSnapshot@UAlbertaBot@@QAEXXZ 100884e0 f   PlayerSnapshot.obj
 0001:00087590       ?takeSelfAll@PlayerSnapshot@UAlbertaBot@@QAEXXZ 10088590 f   PlayerSnapshot.obj
 0001:00087720       ?takeEnemy@PlayerSnapshot@UAlbertaBot@@QAEXXZ 10088720 f   PlayerSnapshot.obj
 0001:00087820       ?takeEnemyEver@PlayerSnapshot@UAlbertaBot@@QAEXABV12@@Z 10088820 f   PlayerSnapshot.obj
 0001:000879a0       ?count@PlayerSnapshot@UAlbertaBot@@QBEHVUnitType@BWAPI@@@Z 100889a0 f   PlayerSnapshot.obj
 0001:000879f0       ?getSupply@PlayerSnapshot@UAlbertaBot@@QBEHXZ 100889f0 f   PlayerSnapshot.obj
 0001:00087a80       ?alreadyAchieved@ProductionGoal@UAlbertaBot@@ABE_NXZ 10088a80 f   ProductionGoal.obj
 0001:00087c20       ?done@ProductionGoal@UAlbertaBot@@QAE_NXZ 10088c20 f   ProductionGoal.obj
 0001:00087d80       ?setBuildOrder@ProductionManager@UAlbertaBot@@QAEXABVBuildOrder@2@@Z 10088d80 f   ProductionManager.obj
 0001:00087e20       ?onUnitDestroy@ProductionManager@UAlbertaBot@@QAEXPAVUnitInterface@BWAPI@@@Z 10088e20 f   ProductionManager.obj
 0001:000888a0       ?dropJammedItemsFromQueue@ProductionManager@UAlbertaBot@@AAEXXZ 100898a0 f   ProductionManager.obj
 0001:00088ac0       ?manageBuildOrderQueue@ProductionManager@UAlbertaBot@@AAEXXZ 10089ac0 f   ProductionManager.obj
 0001:00089230       ?maybeReorderQueue@ProductionManager@UAlbertaBot@@AAEXXZ 1008a230 f   ProductionManager.obj
 0001:00089670       ?getProducer@ProductionManager@UAlbertaBot@@ABEPAVUnitInterface@BWAPI@@VMacroAct@2@@Z 1008a670 f   ProductionManager.obj
 0001:00089bc0       ?compareByDronesNeeded@@YA_NPAVBase@UAlbertaBot@@0@Z 1008abc0 f   ProductionManager.obj
 0001:00089cd0       ?getBestLarva@ProductionManager@UAlbertaBot@@ABEPAVUnitInterface@BWAPI@@ABVMacroAct@2@ABV?$vector@PAVUnitInterface@BWAPI@@V?$allocator@PAVUnitInterface@BWAPI@@@std@@@std@@@Z 1008acd0 f   ProductionManager.obj
 0001:0008a460       ?getClosestUnitToPosition@ProductionManager@UAlbertaBot@@ABEPAVUnitInterface@BWAPI@@ABV?$vector@PAVUnitInterface@BWAPI@@V?$allocator@PAVUnitInterface@BWAPI@@@std@@@std@@V?$Point@H$00@4@@Z 1008b460 f   ProductionManager.obj
 0001:0008a500       ?getClosestLarvaToPosition@ProductionManager@UAlbertaBot@@ABEPAVUnitInterface@BWAPI@@V?$Point@H$00@4@@Z 1008b500 f   ProductionManager.obj
 0001:0008a690       ?getBestMorphCandidate@ProductionManager@UAlbertaBot@@ABEPAVUnitInterface@BWAPI@@ABV?$vector@PAVUnitInterface@BWAPI@@V?$allocator@PAVUnitInterface@BWAPI@@@std@@@std@@@Z 1008b690 f   ProductionManager.obj
 0001:0008a9a0       ?moveToSafety@ProductionManager@UAlbertaBot@@ABEXPAVUnitInterface@BWAPI@@0@Z 1008b9a0 f   ProductionManager.obj
 0001:0008ac10       ?getBestHatcheryForLair@ProductionManager@UAlbertaBot@@ABEPAVUnitInterface@BWAPI@@ABV?$vector@PAVUnitInterface@BWAPI@@V?$allocator@PAVUnitInterface@BWAPI@@@std@@@std@@@Z 1008bc10 f   ProductionManager.obj
 0001:0008af70       ?create@ProductionManager@UAlbertaBot@@AAEXPAVUnitInterface@BWAPI@@ABUBuildOrderItem@2@@Z 1008bf70 f   ProductionManager.obj
 0001:0008b010       ?predictWorkerMovement@ProductionManager@UAlbertaBot@@AAEXAAVBuilding@2@@Z 1008c010 f   ProductionManager.obj
 0001:0008b390       ?executeCommand@ProductionManager@UAlbertaBot@@AAEXABVMacroAct@2@@Z 1008c390 f   ProductionManager.obj
 0001:0008b970       ?updateGoals@ProductionManager@UAlbertaBot@@AAEXXZ 1008c970 f   ProductionManager.obj
 0001:0008bb10       ?drawProductionInformation@ProductionManager@UAlbertaBot@@QAEXHH@Z 1008cb10 f   ProductionManager.obj
 0001:0008bf40       ?Instance@ProductionManager@UAlbertaBot@@SAAAV12@XZ 1008cf40 f   ProductionManager.obj
 0001:0008c080       ?startExtractorTrick@ProductionManager@UAlbertaBot@@QAEXVUnitType@BWAPI@@@Z 1008d080 f   ProductionManager.obj
 0001:0008c190       ?doExtractorTrick@ProductionManager@UAlbertaBot@@AAEXXZ 1008d190 f   ProductionManager.obj
 0001:0008c670       ?liftBuildings@ProductionManager@UAlbertaBot@@QBEXVUnitType@BWAPI@@@Z 1008d670 f   ProductionManager.obj
 0001:0008c790       ?nextIsBuilding@ProductionManager@UAlbertaBot@@QBE_NXZ 1008d790 f   ProductionManager.obj
 0001:0008c820       ?goOutOfBook@ProductionManager@UAlbertaBot@@QAEXXZ 1008d820 f   ProductionManager.obj
 0001:0008c8c0       ?handleStuckCreepColonies@ProductionManager@UAlbertaBot@@QAEXXZ 1008d8c0 f   ProductionManager.obj
 0001:0008cbb0       ??$_Insertion_sort_unchecked@PAPAVBase@UAlbertaBot@@P6A_NPAV12@0@Z@std@@YAPAPAVBase@UAlbertaBot@@QAPAV12@0P6A_NPAV12@1@Z@Z 1008dbb0 f i ProductionManager.obj
 0001:0008cc50       ??$_Stable_sort_unchecked@PAPAVBase@UAlbertaBot@@P6A_NPAV12@0@Z@std@@YAXQAPAVBase@UAlbertaBot@@0H0HP6A_NPAV12@1@Z@Z 1008dc50 f i ProductionManager.obj
 0001:0008cd00       ??$_Sort_unchecked@PAPAVUnitInterface@BWAPI@@VCompareWhenStarted@UAlbertaBot@@@std@@YAXPAPAVUnitInterface@BWAPI@@0HVCompareWhenStarted@UAlbertaBot@@@Z 1008dd00 f i ProductionManager.obj
 0001:0008ce30       ??1?$_Optimistic_temporary_buffer@PAVBase@UAlbertaBot@@@std@@QAE@XZ 1008de30 f i ProductionManager.obj
 0001:0008ce50       ??1_Flist_node_remove_op@?$forward_list@VProductionGoal@UAlbertaBot@@V?$allocator@VProductionGoal@UAlbertaBot@@@std@@@std@@QAE@XZ 1008de50 f i ProductionManager.obj
 0001:0008ce70       ??$_Buffered_merge_sort_unchecked@PAPAVBase@UAlbertaBot@@P6A_NPAV12@0@Z@std@@YAXQAPAVBase@UAlbertaBot@@0H0P6A_NPAV12@1@Z@Z 1008de70 f i ProductionManager.obj
 0001:0008d000       ??$_Buffered_inplace_merge_unchecked@PAPAVBase@UAlbertaBot@@P6A_NPAV12@0@Z@std@@YAXPAPAVBase@UAlbertaBot@@00HHQAPAV12@HP6A_NPAV12@2@Z@Z 1008e000 f i ProductionManager.obj
 0001:0008d0e0       ??$_Insertion_sort_unchecked@PAPAVUnitInterface@BWAPI@@VCompareWhenStarted@UAlbertaBot@@@std@@YAPAPAVUnitInterface@BWAPI@@QAPAV12@0VCompareWhenStarted@UAlbertaBot@@@Z 1008e0e0 f i ProductionManager.obj
 0001:0008d290       ??$_Partition_by_median_guess_unchecked@PAPAVUnitInterface@BWAPI@@VCompareWhenStarted@UAlbertaBot@@@std@@YA?AU?$pair@PAPAVUnitInterface@BWAPI@@PAPAV12@@0@PAPAVUnitInterface@BWAPI@@0VCompareWhenStarted@UAlbertaBot@@@Z 1008e290 f i ProductionManager.obj
 0001:0008d7c0       ??1?$_Alloc_construct_ptr@V?$allocator@U?$_Flist_node@VProductionGoal@UAlbertaBot@@PAX@std@@@std@@@std@@QAE@XZ 1008e7c0 f i ProductionManager.obj
 0001:0008d7e0       ??$_Chunked_merge_unchecked@PAPAVBase@UAlbertaBot@@PAPAV12@P6A_NPAV12@0@Z@std@@YAXPAPAVBase@UAlbertaBot@@QAPAV12@0HHP6A_NPAV12@2@Z@Z 1008e7e0 f i ProductionManager.obj
 0001:0008d8b0       ??$_Buffered_inplace_merge_unchecked_impl@PAPAVBase@UAlbertaBot@@P6A_NPAV12@0@Z@std@@YAXPAPAVBase@UAlbertaBot@@00HHQAPAV12@HP6A_NPAV12@2@Z@Z 1008e8b0 f i ProductionManager.obj
 0001:0008db20       ??$_Pop_heap_hole_by_index@PAPAVUnitInterface@BWAPI@@PAV12@VCompareWhenStarted@UAlbertaBot@@@std@@YAXPAPAVUnitInterface@BWAPI@@HH$$QAPAV12@VCompareWhenStarted@UAlbertaBot@@@Z 1008eb20 f i ProductionManager.obj
 0001:0008dc90       ??$_Med3_unchecked@PAPAVUnitInterface@BWAPI@@VCompareWhenStarted@UAlbertaBot@@@std@@YAXPAPAVUnitInterface@BWAPI@@00VCompareWhenStarted@UAlbertaBot@@@Z 1008ec90 f i ProductionManager.obj
 0001:0008dde0       ??$_Buffered_inplace_merge_divide_and_conquer2@PAPAVBase@UAlbertaBot@@P6A_NPAV12@0@Z@std@@YAXPAPAVBase@UAlbertaBot@@00HHQAPAV12@HP6A_NPAV12@2@Z00HH@Z 1008ede0 f i ProductionManager.obj
 0001:0008df00       ?range@Random@UAlbertaBot@@QAENN@Z 1008ef00 f   Random.obj
 0001:0008df30       ?index@Random@UAlbertaBot@@QAEHH@Z 1008ef30 f   Random.obj
 0001:0008df50       ?flag@Random@UAlbertaBot@@QAE_NN@Z 1008ef50 f   Random.obj
 0001:0008df90       ?Instance@Random@UAlbertaBot@@SAAAV12@XZ 1008ef90 f   Random.obj
 0001:0008e050       ??$?RV?$linear_congruential_engine@I$0LMIP@$0A@$0HPPPPPPP@@std@@@?$uniform_real_distribution@N@std@@QAENAAV?$linear_congruential_engine@I$0LMIP@$0A@$0HPPPPPPP@@1@@Z 1008f050 f i Random.obj
 0001:0008e190       ??$_Eval@V?$linear_congruential_engine@I$0LMIP@$0A@$0HPPPPPPP@@std@@@?$uniform_int@H@std@@ABEHAAV?$linear_congruential_engine@I$0LMIP@$0A@$0HPPPPPPP@@1@HH@Z 1008f190 f i Random.obj
 0001:0008e300       ?_Get_bits@?$_Rng_from_urng_v2@IV?$linear_congruential_engine@I$0LMIP@$0A@$0HPPPPPPP@@std@@@std@@AAEIXZ 1008f300 f i Random.obj
 0001:0008e350       ?isMineralVisible@ResourceInfo@UAlbertaBot@@ABE_NXZ 1008f350 f   ResourceInfo.obj
 0001:0008e3c0       ?isGasVisible@ResourceInfo@UAlbertaBot@@ABE_NXZ 1008f3c0 f   ResourceInfo.obj
 0001:0008e500       ?accessibleGasUnit@ResourceInfo@UAlbertaBot@@AAEPAVUnitInterface@BWAPI@@XZ 1008f500 f   ResourceInfo.obj
 0001:0008e6e0       ?Instance@ScoutManager@UAlbertaBot@@SAAAV12@XZ 1008f6e0 f   ScoutManager.obj
 0001:0008e870       ?setScoutTargets@ScoutManager@UAlbertaBot@@AAEXXZ 1008f870 f   ScoutManager.obj
 0001:0008e9f0       ?update@ScoutManager@UAlbertaBot@@QAEXXZ 1008f9f0 f   ScoutManager.obj
 0001:0008ed90       ?drawScoutInformation@ScoutManager@UAlbertaBot@@AAEXHH@Z 1008fd90 f   ScoutManager.obj
 0001:0008f020       ?moveGroundScout@ScoutManager@UAlbertaBot@@AAEXXZ 10090020 f   ScoutManager.obj
 0001:0008f2c0       ?followGroundPath@ScoutManager@UAlbertaBot@@AAEXXZ 100902c0 f   ScoutManager.obj
 0001:0008f510       ?workerGoHome@ScoutManager@UAlbertaBot@@AAEXXZ 10090510 f   ScoutManager.obj
 0001:0008f810       ?moveAirScout@ScoutManager@UAlbertaBot@@AAEXXZ 10090810 f   ScoutManager.obj
 0001:0008f950       ?moveAirScoutAroundEnemyBase@ScoutManager@UAlbertaBot@@AAEXXZ 10090950 f   ScoutManager.obj
 0001:0008faa0       ?gasSteal@ScoutManager@UAlbertaBot@@AAE_NXZ 10090aa0 f   ScoutManager.obj
 0001:0008fe80       ?enemyWorkerToHarass@ScoutManager@UAlbertaBot@@ABEPAVUnitInterface@BWAPI@@XZ 10090e80 f   ScoutManager.obj
 0001:00090050       ?releaseScoutEarly@ScoutManager@UAlbertaBot@@ABE_NPAVUnitInterface@BWAPI@@@Z 10091050 f   ScoutManager.obj
 0001:00090700       ?putData@Skill@UAlbertaBot@@UBE?AV?$basic_string@DU?$char_traits@D@std@@V?$allocator@D@2@@std@@XZ 10091700 f i Skill.obj
 0001:00090730       ?render@BattleRecord@SkillBattles@UAlbertaBot@@QBEXAAV?$basic_stringstream@DU?$char_traits@D@std@@V?$allocator@D@2@@std@@@Z 10091730 f   SkillBattles.obj
 0001:00090800       ?putData@SkillBattles@UAlbertaBot@@UBE?AV?$basic_string@DU?$char_traits@D@std@@V?$allocator@D@2@@std@@XZ 10091800 f   SkillBattles.obj
 0001:00090a50       ?getData@SkillBattles@UAlbertaBot@@UAEXAAVGameRecord@2@ABV?$basic_string@DU?$char_traits@D@std@@V?$allocator@D@2@@std@@@Z 10091a50 f   SkillBattles.obj
 0001:00090e50       ?update@SkillBattles@UAlbertaBot@@UAEXXZ 10091e50 f   SkillBattles.obj
 0001:000910c0       ??1BattleRecord@SkillBattles@UAlbertaBot@@QAE@XZ 100920c0 f i SkillBattles.obj
 0001:000910e0       ??$_Emplace_reallocate@UBattleRecord@SkillBattles@UAlbertaBot@@@?$vector@UBattleRecord@SkillBattles@UAlbertaBot@@V?$allocator@UBattleRecord@SkillBattles@UAlbertaBot@@@std@@@std@@AAEPAUBattleRecord@SkillBattles@UAlbertaBot@@QAU234@$$QAU234@@Z 100920e0 f i SkillBattles.obj
 0001:000913b0       ??$_Destroy_range@V?$allocator@UBattleRecord@SkillBattles@UAlbertaBot@@@std@@@std@@YAXPAUBattleRecord@SkillBattles@UAlbertaBot@@QAU123@AAV?$allocator@UBattleRecord@SkillBattles@UAlbertaBot@@@0@@Z 100923b0 f i SkillBattles.obj
 0001:000913f0       ??$construct@UBattleRecord@SkillBattles@UAlbertaBot@@U123@@?$_Default_allocator_traits@V?$allocator@UBattleRecord@SkillBattles@UAlbertaBot@@@std@@@std@@SAXAAV?$allocator@UBattleRecord@SkillBattles@UAlbertaBot@@@1@QAUBattleRecord@SkillBattles@UAlbertaBot@@$$QAU345@@Z 100923f0 f i SkillBattles.obj
 0001:00091460       ??$_Uninitialized_move@PAUBattleRecord@SkillBattles@UAlbertaBot@@V?$allocator@UBattleRecord@SkillBattles@UAlbertaBot@@@std@@@std@@YAPAUBattleRecord@SkillBattles@UAlbertaBot@@QAU123@0PAU123@AAV?$allocator@UBattleRecord@SkillBattles@UAlbertaBot@@@0@@Z 10092460 f i SkillBattles.obj
 0001:000914e0       ??1_Reallocation_guard@?$vector@UBattleRecord@SkillBattles@UAlbertaBot@@V?$allocator@UBattleRecord@SkillBattles@UAlbertaBot@@@std@@@std@@QAE@XZ 100924e0 f i SkillBattles.obj
 0001:00091550       ??1?$_Uninitialized_backout_al@V?$allocator@UBattleRecord@SkillBattles@UAlbertaBot@@@std@@@std@@QAE@XZ 10092550 f i SkillBattles.obj
 0001:00091560       ?analyzeRecords@SkillGasSteal@UAlbertaBot@@AAEXXZ 10092560 f   SkillGasSteal.obj
 0001:00091850       ?putData@SkillGasSteal@UAlbertaBot@@UBE?AV?$basic_string@DU?$char_traits@D@std@@V?$allocator@D@2@@std@@XZ 10092850 f   SkillGasSteal.obj
 0001:00091950       ?getData@SkillGasSteal@UAlbertaBot@@UAEXAAVGameRecord@2@ABV?$basic_string@DU?$char_traits@D@std@@V?$allocator@D@2@@std@@@Z 10092950 f   SkillGasSteal.obj
 0001:00091bd0       ?enabled@SkillGasSteal@UAlbertaBot@@UBE_NXZ 10092bd0 f   SkillGasSteal.obj
 0001:00091bf0       ?update@SkillGasSteal@UAlbertaBot@@UAEXXZ 10092bf0 f   SkillGasSteal.obj
 0001:00091e80       ?feasible@SkillGasSteal@UAlbertaBot@@UBE_NXZ 10092e80 f   SkillGasSteal.obj
 0001:00091fa0       ?good@SkillGasSteal@UAlbertaBot@@UBE_NXZ 10092fa0 f   SkillGasSteal.obj
 0001:000925c0       ?execute@SkillGasSteal@UAlbertaBot@@UAEXXZ 100935c0 f   SkillGasSteal.obj
 0001:000925f0       ?initialize@SkillKit@UAlbertaBot@@QAEXXZ 100935f0 f   SkillKit.obj
 0001:00092c80       ?read@SkillKit@UAlbertaBot@@QAEXAAVGameRecord@2@ABV?$basic_string@DU?$char_traits@D@std@@V?$allocator@D@2@@std@@@Z 10093c80 f   SkillKit.obj
 0001:00092ea0       ??1?$map@PAVUnitInterface@BWAPI@@ULurkerRecord@SkillLurkers@UAlbertaBot@@U?$less@PAVUnitInterface@BWAPI@@@std@@V?$allocator@U?$pair@QAVUnitInterface@BWAPI@@ULurkerRecord@SkillLurkers@UAlbertaBot@@@std@@@7@@std@@QAE@XZ 10093ea0 f i SkillLurkers.obj
 0001:00092eb0       ?putData@SkillLurkers@UAlbertaBot@@UBE?AV?$basic_string@DU?$char_traits@D@std@@V?$allocator@D@2@@std@@XZ 10093eb0 f   SkillLurkers.obj
 0001:00092f70       ?getData@SkillLurkers@UAlbertaBot@@UAEXAAVGameRecord@2@ABV?$basic_string@DU?$char_traits@D@std@@V?$allocator@D@2@@std@@@Z 10093f70 f   SkillLurkers.obj
 0001:000930c0       ?enabled@SkillLurkers@UAlbertaBot@@UBE_NXZ 100940c0 f   SkillLurkers.obj
 0001:000930d0       ?update@SkillLurkers@UAlbertaBot@@UAEXXZ 100940d0 f   SkillLurkers.obj
 0001:00093100       ?feasible@SkillLurkers@UAlbertaBot@@UBE_NXZ 10094100 f   SkillLurkers.obj
 0001:00093160       ?draw@SkillLurkers@UAlbertaBot@@UBEXXZ 10094160 f   SkillLurkers.obj
 0001:000932a0       ??1?$_Tree@V?$_Tmap_traits@PAVUnitInterface@BWAPI@@ULurkerRecord@SkillLurkers@UAlbertaBot@@U?$less@PAVUnitInterface@BWAPI@@@std@@V?$allocator@U?$pair@QAVUnitInterface@BWAPI@@ULurkerRecord@SkillLurkers@UAlbertaBot@@@std@@@7@$0A@@std@@@std@@QAE@XZ 100942a0 f i SkillLurkers.obj
 0001:000932e0       ?putData@SkillOpeningTiming@UAlbertaBot@@UBE?AV?$basic_string@DU?$char_traits@D@std@@V?$allocator@D@2@@std@@XZ 100942e0 f   SkillOpeningTiming.obj
 0001:00093640       ?getData@SkillOpeningTiming@UAlbertaBot@@UAEXAAVGameRecord@2@ABV?$basic_string@DU?$char_traits@D@std@@V?$allocator@D@2@@std@@@Z 10094640 f   SkillOpeningTiming.obj
 0001:000939d0       ?update@SkillOpeningTiming@UAlbertaBot@@UAEXXZ 100949d0 f   SkillOpeningTiming.obj
 0001:00094410       ?putData@SkillUnitTimings@UAlbertaBot@@UBE?AV?$basic_string@DU?$char_traits@D@std@@V?$allocator@D@2@@std@@XZ 10095410 f   SkillUnitTimings.obj
 0001:00094560       ?update@SkillUnitTimings@UAlbertaBot@@UAEXXZ 10095560 f   SkillUnitTimings.obj
 0001:000947b0       ??$?0ABVUnitType@BWAPI@@AAH$0A@@?$pair@VUnitType@BWAPI@@H@std@@QAE@ABVUnitType@BWAPI@@AAH@Z 100957b0 f i SkillUnitTimings.obj
 0001:000947d0       ??1?$vector@V?$map@VUnitType@BWAPI@@HU?$less@VUnitType@BWAPI@@@std@@V?$allocator@U?$pair@$$CBVUnitType@BWAPI@@H@std@@@4@@std@@V?$allocator@V?$map@VUnitType@BWAPI@@HU?$less@VUnitType@BWAPI@@@std@@V?$allocator@U?$pair@$$CBVUnitType@BWAPI@@H@std@@@4@@std@@@2@@std@@QAE@XZ 100957d0 f i SkillUnitTimings.obj
 0001:00094860       ??0?$vector@V?$map@VUnitType@BWAPI@@HU?$less@VUnitType@BWAPI@@@std@@V?$allocator@U?$pair@$$CBVUnitType@BWAPI@@H@std@@@4@@std@@V?$allocator@V?$map@VUnitType@BWAPI@@HU?$less@VUnitType@BWAPI@@@std@@V?$allocator@U?$pair@$$CBVUnitType@BWAPI@@H@std@@@4@@std@@@2@@std@@QAE@XZ 10095860 f i SkillUnitTimings.obj
 0001:00094880       ??$_Destroy_range@V?$allocator@V?$map@VUnitType@BWAPI@@HU?$less@VUnitType@BWAPI@@@std@@V?$allocator@U?$pair@$$CBVUnitType@BWAPI@@H@std@@@4@@std@@@std@@@std@@YAXPAV?$map@VUnitType@BWAPI@@HU?$less@VUnitType@BWAPI@@@std@@V?$allocator@U?$pair@$$CBVUnitType@BWAPI@@H@std@@@4@@0@QAV10@AAV?$allocator@V?$map@VUnitType@BWAPI@@HU?$less@VUnitType@BWAPI@@@std@@V?$allocator@U?$pair@$$CBVUnitType@BWAPI@@H@std@@@4@@std@@@0@@Z 10095880 f i SkillUnitTimings.obj
 0001:000948c0       ??$_Allocate_at_least_helper@V?$allocator@V?$map@VUnitType@BWAPI@@HU?$less@VUnitType@BWAPI@@@std@@V?$allocator@U?$pair@$$CBVUnitType@BWAPI@@H@std@@@4@@std@@@std@@@std@@YAPAV?$map@VUnitType@BWAPI@@HU?$less@VUnitType@BWAPI@@@std@@V?$allocator@U?$pair@$$CBVUnitType@BWAPI@@H@std@@@4@@0@AAV?$allocator@V?$map@VUnitType@BWAPI@@HU?$less@VUnitType@BWAPI@@@std@@V?$allocator@U?$pair@$$CBVUnitType@BWAPI@@H@std@@@4@@std@@@0@AAI@Z 100958c0 f i SkillUnitTimings.obj
 0001:00094920       ??$_Uninitialized_copy@PAV?$map@VUnitType@BWAPI@@HU?$less@VUnitType@BWAPI@@@std@@V?$allocator@U?$pair@$$CBVUnitType@BWAPI@@H@std@@@4@@std@@PAV12@V?$allocator@V?$map@VUnitType@BWAPI@@HU?$less@VUnitType@BWAPI@@@std@@V?$allocator@U?$pair@$$CBVUnitType@BWAPI@@H@std@@@4@@std@@@2@@std@@YAPAV?$map@VUnitType@BWAPI@@HU?$less@VUnitType@BWAPI@@@std@@V?$allocator@U?$pair@$$CBVUnitType@BWAPI@@H@std@@@4@@0@PAV10@00AAV?$allocator@V?$map@VUnitType@BWAPI@@HU?$less@VUnitType@BWAPI@@@std@@V?$allocator@U?$pair@$$CBVUnitType@BWAPI@@H@std@@@4@@std@@@0@@Z 10095920 f i SkillUnitTimings.obj
 0001:000949e0       ??1_Reallocation_guard@?$vector@V?$map@VUnitType@BWAPI@@HU?$less@VUnitType@BWAPI@@@std@@V?$allocator@U?$pair@$$CBVUnitType@BWAPI@@H@std@@@4@@std@@V?$allocator@V?$map@VUnitType@BWAPI@@HU?$less@VUnitType@BWAPI@@@std@@V?$allocator@U?$pair@$$CBVUnitType@BWAPI@@H@std@@@4@@std@@@2@@std@@QAE@XZ 100959e0 f i SkillUnitTimings.obj
 0001:00094a60       ?_Change_array@?$vector@V?$map@VUnitType@BWAPI@@HU?$less@VUnitType@BWAPI@@@std@@V?$allocator@U?$pair@$$CBVUnitType@BWAPI@@H@std@@@4@@std@@V?$allocator@V?$map@VUnitType@BWAPI@@HU?$less@VUnitType@BWAPI@@@std@@V?$allocator@U?$pair@$$CBVUnitType@BWAPI@@H@std@@@4@@std@@@2@@std@@AAEXQAV?$map@VUnitType@BWAPI@@HU?$less@VUnitType@BWAPI@@@std@@V?$allocator@U?$pair@$$CBVUnitType@BWAPI@@H@std@@@4@@2@II@Z 10095a60 f i SkillUnitTimings.obj
 0001:00094b00       ?_Calculate_growth@?$vector@V?$map@VUnitType@BWAPI@@HU?$less@VUnitType@BWAPI@@@std@@V?$allocator@U?$pair@$$CBVUnitType@BWAPI@@H@std@@@4@@std@@V?$allocator@V?$map@VUnitType@BWAPI@@HU?$less@VUnitType@BWAPI@@@std@@V?$allocator@U?$pair@$$CBVUnitType@BWAPI@@H@std@@@4@@std@@@2@@std@@ABEII@Z 10095b00 f i SkillUnitTimings.obj
 0001:00094b40       ?max_size@?$vector@V?$map@VUnitType@BWAPI@@HU?$less@VUnitType@BWAPI@@@std@@V?$allocator@U?$pair@$$CBVUnitType@BWAPI@@H@std@@@4@@std@@V?$allocator@V?$map@VUnitType@BWAPI@@HU?$less@VUnitType@BWAPI@@@std@@V?$allocator@U?$pair@$$CBVUnitType@BWAPI@@H@std@@@4@@std@@@2@@std@@QBEIXZ 10095b40 f i SkillUnitTimings.obj
 0001:00094b50       ?_Release@?$_Uninitialized_backout_al@V?$allocator@V?$map@VUnitType@BWAPI@@HU?$less@VUnitType@BWAPI@@@std@@V?$allocator@U?$pair@$$CBVUnitType@BWAPI@@H@std@@@4@@std@@@std@@@std@@QAEPAV?$map@VUnitType@BWAPI@@HU?$less@VUnitType@BWAPI@@@std@@V?$allocator@U?$pair@$$CBVUnitType@BWAPI@@H@std@@@4@@2@XZ 10095b50 f i SkillUnitTimings.obj
 0001:00094b60       ??1?$_Uninitialized_backout_al@V?$allocator@V?$map@VUnitType@BWAPI@@HU?$less@VUnitType@BWAPI@@@std@@V?$allocator@U?$pair@$$CBVUnitType@BWAPI@@H@std@@@4@@std@@@std@@@std@@QAE@XZ 10095b60 f i SkillUnitTimings.obj
 0001:00094ba0       ??0?$_Uninitialized_backout_al@V?$allocator@V?$map@VUnitType@BWAPI@@HU?$less@VUnitType@BWAPI@@@std@@V?$allocator@U?$pair@$$CBVUnitType@BWAPI@@H@std@@@4@@std@@@std@@@std@@QAE@PAV?$map@VUnitType@BWAPI@@HU?$less@VUnitType@BWAPI@@@std@@V?$allocator@U?$pair@$$CBVUnitType@BWAPI@@H@std@@@4@@1@AAV?$allocator@V?$map@VUnitType@BWAPI@@HU?$less@VUnitType@BWAPI@@@std@@V?$allocator@U?$pair@$$CBVUnitType@BWAPI@@H@std@@@4@@std@@@1@@Z 10095ba0 f i SkillUnitTimings.obj
 0001:00094bc0       ??0Squad@UAlbertaBot@@QAE@XZ 10095bc0 f   Squad.obj
 0001:00094f00       ??0Squad@UAlbertaBot@@QAE@ABV?$basic_string@DU?$char_traits@D@std@@V?$allocator@D@2@@std@@I@Z 10095f00 f   Squad.obj
 0001:00095260       ??1Squad@UAlbertaBot@@QAE@XZ 10096260 f   Squad.obj
 0001:00095630       ?update@Squad@UAlbertaBot@@QAEXXZ 10096630 f   Squad.obj
 0001:00095d10       ?setClusterStatus@Squad@UAlbertaBot@@AAEXAAVUnitCluster@2@@Z 10096d10 f   Squad.obj
 0001:000963b0       ?microSpecialUnits@Squad@UAlbertaBot@@AAEXABVUnitCluster@2@@Z 100973b0 f   Squad.obj
 0001:000966c0       ?clusterCombat@Squad@UAlbertaBot@@AAEXABVUnitCluster@2@@Z 100976c0 f   Squad.obj
 0001:00096880       ?joinUp@Squad@UAlbertaBot@@AAE_NABVUnitCluster@2@@Z 10097880 f   Squad.obj
 0001:00096990       ?moveCluster@Squad@UAlbertaBot@@AAEXABVUnitCluster@2@ABV?$Point@H$00@BWAPI@@_N@Z 10097990 f   Squad.obj
 0001:00096ac0       ?setNearEnemyUnits@Squad@UAlbertaBot@@AAEXXZ 10097ac0 f   Squad.obj
 0001:00096c10       ?addUnitsToMicroManagers@Squad@UAlbertaBot@@AAEXXZ 10097c10 f   Squad.obj
 0001:00097460       ?needsToRegroup@Squad@UAlbertaBot@@AAE_NAAVUnitCluster@2@@Z 10098460 f   Squad.obj
 0001:00098800       ?calcRegroupPosition@Squad@UAlbertaBot@@ABE?AV?$Point@H$00@BWAPI@@ABVUnitCluster@2@@Z 10099800 f   Squad.obj
 0001:00098cd0       ?nearbyImmobileGroundDefense@Squad@UAlbertaBot@@ABEPAVUnitInterface@BWAPI@@ABV?$Point@H$00@4@@Z 10099cd0 f   Squad.obj
 0001:00099210       ?clear@Squad@UAlbertaBot@@QAEXXZ 1009a210 f   Squad.obj
 0001:00099270       ?unitNearEnemy@Squad@UAlbertaBot@@AAE_NPAVUnitInterface@BWAPI@@@Z 1009a270 f   Squad.obj
 0001:00099410       ?calcCenter@Squad@UAlbertaBot@@QBE?AV?$Point@H$00@BWAPI@@XZ 1009a410 f   Squad.obj
 0001:000994d0       ?unitClosestToPosition@Squad@UAlbertaBot@@ABEPAVUnitInterface@BWAPI@@ABV?$Point@H$00@4@ABVUnitset@4@@Z 1009a4d0 f   Squad.obj
 0001:000996c0       ?setOrder@Squad@UAlbertaBot@@QAEXAAVSquadOrder@2@@Z 1009a6c0 f   Squad.obj
 0001:00099750       ?releaseWorkers@Squad@UAlbertaBot@@QAEXXZ 1009a750 f   Squad.obj
 0001:000997b0       ?maybeWatch@Squad@UAlbertaBot@@AAE_NXZ 1009a7b0 f   Squad.obj
 0001:000999e0       ?loadTransport@Squad@UAlbertaBot@@AAEXXZ 1009a9e0 f   Squad.obj
 0001:00099c00       ?stimIfNeeded@Squad@UAlbertaBot@@AAEXXZ 1009ac00 f   Squad.obj
 0001:00099ed0       ?getDistance@Squad@UAlbertaBot@@QBEHABV?$Point@H$00@BWAPI@@@Z 1009aed0 f   Squad.obj
 0001:00099f70       ?drawCluster@Squad@UAlbertaBot@@ABEXABVUnitCluster@2@@Z 1009af70 f   Squad.obj
 0001:0009a150       ??A?$map@PAVUnitInterface@BWAPI@@_NU?$less@PAVUnitInterface@BWAPI@@@std@@V?$allocator@U?$pair@QAVUnitInterface@BWAPI@@_N@std@@@4@@std@@QAEAA_NABQAVUnitInterface@BWAPI@@@Z 1009b150 f i Squad.obj
 0001:0009a210       ?insert@?$basic_string@DU?$char_traits@D@std@@V?$allocator@D@2@@std@@QAEAAV12@IID@Z 1009b210 f i Squad.obj
 0001:0009a350       ?removeSquad@SquadData@UAlbertaBot@@QAEXABV?$basic_string@DU?$char_traits@D@std@@V?$allocator@D@2@@std@@@Z 1009b350 f   SquadData.obj
 0001:0009a430       ?createSquad@SquadData@UAlbertaBot@@QAEAAVSquad@2@ABV?$basic_string@DU?$char_traits@D@std@@V?$allocator@D@2@@std@@I@Z 1009b430 f   SquadData.obj
 0001:0009a5b0       ?drawSquadInformation@SquadData@UAlbertaBot@@QAEXHH@Z 1009b5b0 f   SquadData.obj
 0001:0009a8a0       ?getUnitSquad@SquadData@UAlbertaBot@@QBEPBVSquad@2@PAVUnitInterface@BWAPI@@@Z 1009b8a0 f   SquadData.obj
 0001:0009a970       ?assignUnitToSquad@SquadData@UAlbertaBot@@QAEXPAVUnitInterface@BWAPI@@AAVSquad@2@@Z 1009b970 f   SquadData.obj
 0001:0009aaa0       ?getSquad@SquadData@UAlbertaBot@@QAEAAVSquad@2@ABV?$basic_string@DU?$char_traits@D@std@@V?$allocator@D@2@@std@@@Z 1009baa0 f   SquadData.obj
 0001:0009ac50       ?erase@?$_Tree@V?$_Tmap_traits@V?$basic_string@DU?$char_traits@D@std@@V?$allocator@D@2@@std@@VSquad@UAlbertaBot@@U?$less@V?$basic_string@DU?$char_traits@D@std@@V?$allocator@D@2@@std@@@2@V?$allocator@U?$pair@$$CBV?$basic_string@DU?$char_traits@D@std@@V?$allocator@D@2@@std@@VSquad@UAlbertaBot@@@std@@@2@$0A@@std@@@std@@QAEIABV?$basic_string@DU?$char_traits@D@std@@V?$allocator@D@2@@2@@Z 1009bc50 f i SquadData.obj
 0001:0009ae50       ??1?$_Alloc_construct_ptr@V?$allocator@U?$_Tree_node@U?$pair@$$CBV?$basic_string@DU?$char_traits@D@std@@V?$allocator@D@2@@std@@VSquad@UAlbertaBot@@@std@@PAX@std@@@std@@@std@@QAE@XZ 1009be50 f i SquadData.obj
 0001:0009ae50       ??1?$_Tree_temp_node_alloc@V?$allocator@U?$_Tree_node@U?$pair@$$CBV?$basic_string@DU?$char_traits@D@std@@V?$allocator@D@2@@std@@VSquad@UAlbertaBot@@@std@@PAX@std@@@std@@@std@@QAE@XZ 1009be50 f i SquadData.obj
 0001:0009ae70       ??0Squad@UAlbertaBot@@QAE@ABV01@@Z 1009be70 f i SquadData.obj
 0001:0009b500       ??0MicroManager@UAlbertaBot@@QAE@ABV01@@Z 1009c500 f i SquadData.obj
 0001:0009b610       ??1?$_Tree_head_scoped_ptr@V?$allocator@U?$_Tree_node@U?$pair@QAVUnitInterface@BWAPI@@VCasterState@UAlbertaBot@@@std@@PAX@std@@@std@@V?$_Tree_val@U?$_Tree_simple_types@U?$pair@QAVUnitInterface@BWAPI@@VCasterState@UAlbertaBot@@@std@@@std@@@2@@std@@QAE@XZ 1009c610 f i SquadData.obj
 0001:0009b640       ??1?$_Tree_head_scoped_ptr@V?$allocator@U?$_Tree_node@U?$pair@QAVUnitInterface@BWAPI@@V?$Point@H$0CA@@2@@std@@PAX@std@@@std@@V?$_Tree_val@U?$_Tree_simple_types@U?$pair@QAVUnitInterface@BWAPI@@V?$Point@H$0CA@@2@@std@@@std@@@2@@std@@QAE@XZ 1009c640 f i SquadData.obj
 0001:0009b670       ??1?$_Tidy_guard@V?$vector@VUnitCluster@UAlbertaBot@@V?$allocator@VUnitCluster@UAlbertaBot@@@std@@@std@@@std@@QAE@XZ 1009c670 f i SquadData.obj
 0001:0009b680       ??$_Copy_nodes@$0A@@?$_Tree@V?$_Tmap_traits@PAVUnitInterface@BWAPI@@V?$Point@H$0CA@@2@U?$less@PAVUnitInterface@BWAPI@@@std@@V?$allocator@U?$pair@QAVUnitInterface@BWAPI@@V?$Point@H$0CA@@2@@std@@@5@$0A@@std@@@std@@IAEPAU?$_Tree_node@U?$pair@QAVUnitInterface@BWAPI@@V?$Point@H$0CA@@2@@std@@PAX@1@PAU21@0@Z 1009c680 f i SquadData.obj
 0001:0009b740       ??$_Copy_nodes@$0A@@?$_Tree@V?$_Tmap_traits@PAVUnitInterface@BWAPI@@VCasterState@UAlbertaBot@@U?$less@PAVUnitInterface@BWAPI@@@std@@V?$allocator@U?$pair@QAVUnitInterface@BWAPI@@VCasterState@UAlbertaBot@@@std@@@6@$0A@@std@@@std@@IAEPAU?$_Tree_node@U?$pair@QAVUnitInterface@BWAPI@@VCasterState@UAlbertaBot@@@std@@PAX@1@PAU21@0@Z 1009c740 f i SquadData.obj
 0001:0009b820       ??1?$_Erase_tree_and_orphan_guard@V?$allocator@U?$_Tree_node@U?$pair@QAVUnitInterface@BWAPI@@VCasterState@UAlbertaBot@@@std@@PAX@std@@@std@@@?$_Tree_val@U?$_Tree_simple_types@U?$pair@QAVUnitInterface@BWAPI@@VCasterState@UAlbertaBot@@@std@@@std@@@std@@QAE@XZ 1009c820 f i SquadData.obj
 0001:0009b860       ??1?$_Erase_tree_and_orphan_guard@V?$allocator@U?$_Tree_node@U?$pair@QAVUnitInterface@BWAPI@@V?$Point@H$0CA@@2@@std@@PAX@std@@@std@@@?$_Tree_val@U?$_Tree_simple_types@U?$pair@QAVUnitInterface@BWAPI@@V?$Point@H$0CA@@2@@std@@@std@@@std@@QAE@XZ 1009c860 f i SquadData.obj
 0001:0009b8a0       ??0GridDistances@UAlbertaBot@@QAE@ABV01@@Z 1009c8a0 f i SquadOrder.obj
 0001:0009b9b0       ??4SquadOrder@UAlbertaBot@@QAEAAV01@$$QAV01@@Z 1009c9b0 f   SquadOrder.obj
 0001:0009ba60       ??0SquadOrder@UAlbertaBot@@QAE@ABV?$basic_string@DU?$char_traits@D@std@@V?$allocator@D@2@@std@@@Z 1009ca60 f   SquadOrder.obj
 0001:0009bb00       ??0SquadOrder@UAlbertaBot@@QAE@W4SquadOrderTypes@1@V?$Point@H$00@BWAPI@@H_NABV?$basic_string@DU?$char_traits@D@std@@V?$allocator@D@2@@std@@@Z 1009cb00 f   SquadOrder.obj
 0001:0009bc10       ??1SquadOrder@UAlbertaBot@@QAE@XZ 1009cc10 f   SquadOrder.obj
 0001:0009bc50       ?limitZergDefenses@StaticDefense@UAlbertaBot@@AAEXXZ 1009cc50 f   StaticDefense.obj
 0001:0009be80       ?planTP@StaticDefense@UAlbertaBot@@AAEXXZ 1009ce80 f   StaticDefense.obj
 0001:0009c570       ?analyzeGroundDefensesZvT@StaticDefense@UAlbertaBot@@ABEHXZ 1009d570 f   StaticDefense.obj
 0001:0009cba0       ?analyzeGroundDefensesZvP@StaticDefense@UAlbertaBot@@ABEHXZ 1009dba0 f   StaticDefense.obj
 0001:0009cfb0       ?analyzeGroundDefensesZvZ@StaticDefense@UAlbertaBot@@ABEHXZ 1009dfb0 f   StaticDefense.obj
 0001:0009d120       ?planZ@StaticDefense@UAlbertaBot@@AAEXXZ 1009e120 f   StaticDefense.obj
 0001:0009dbf0       ?startBuilding@StaticDefense@UAlbertaBot@@AAEXVUnitType@BWAPI@@ABV?$Point@H$0CA@@4@@Z 1009ebf0 f   StaticDefense.obj
 0001:0009dd80       ?morphStrandedCreeps@StaticDefense@UAlbertaBot@@AAE_NVUnitType@BWAPI@@@Z 1009ed80 f   StaticDefense.obj
 0001:0009e130       ?startOtherGroundBuildings@StaticDefense@UAlbertaBot@@AAE_NXZ 1009f130 f   StaticDefense.obj
 0001:0009e430       ?buildGround@StaticDefense@UAlbertaBot@@AAE_NXZ 1009f430 f   StaticDefense.obj
 0001:0009e5e0       ?chooseAirBases@StaticDefense@UAlbertaBot@@AAEXXZ 1009f5e0 f   StaticDefense.obj
 0001:0009e940       ?buildAir@StaticDefense@UAlbertaBot@@AAEXXZ 1009f940 f   StaticDefense.obj
 0001:0009eac0       ?alreadyBuilding@StaticDefense@UAlbertaBot@@AAE_NVUnitType@BWAPI@@@Z 1009fac0 f   StaticDefense.obj
 0001:0009eb30       ?needPrerequisite@StaticDefense@UAlbertaBot@@AAE_NVUnitType@BWAPI@@@Z 1009fb30 f   StaticDefense.obj
 0001:0009ed60       ?drawGroundCount@StaticDefense@UAlbertaBot@@ABEXPAVBase@2@H@Z 1009fd60 f   StaticDefense.obj
 0001:0009f090       ?drawAirCount@StaticDefense@UAlbertaBot@@ABEXPAVBase@2@H@Z 100a0090 f   StaticDefense.obj
 0001:0009f3c0       ?draw@StaticDefense@UAlbertaBot@@ABEXXZ 100a03c0 f   StaticDefense.obj
 0001:0009f610       ?updateSupply@StrategyBossZerg@UAlbertaBot@@AAEXXZ 100a0610 f   StrategyBossZerg.obj
 0001:0009f790       ?checkExpansionChance@StrategyBossZerg@UAlbertaBot@@AAE_NAAVBuildOrderQueue@2@@Z 100a0790 f   StrategyBossZerg.obj
 0001:0009f950       ?updateGameState@StrategyBossZerg@UAlbertaBot@@AAEXXZ 100a0950 f   StrategyBossZerg.obj
 0001:000a0430       ?updateArmySizes@StrategyBossZerg@UAlbertaBot@@AAEXXZ 100a1430 f   StrategyBossZerg.obj
 0001:000a0670       ?nFreeEvo@StrategyBossZerg@UAlbertaBot@@ABEHXZ 100a1670 f   StrategyBossZerg.obj
 0001:000a06e0       ?devourerLimit@StrategyBossZerg@UAlbertaBot@@ABEHXZ 100a16e0 f   StrategyBossZerg.obj
 0001:000a0960       ?numInEgg@StrategyBossZerg@UAlbertaBot@@ABEHVUnitType@BWAPI@@@Z 100a1960 f   StrategyBossZerg.obj
 0001:000a09c0       ?cancelStuff@StrategyBossZerg@UAlbertaBot@@AAEXH@Z 100a19c0 f   StrategyBossZerg.obj
 0001:000a0dc0       ?cancelForSpawningPool@StrategyBossZerg@UAlbertaBot@@AAEXXZ 100a1dc0 f   StrategyBossZerg.obj
 0001:000a1030       ?nextInQueueIsUseless@StrategyBossZerg@UAlbertaBot@@ABE_NAAVBuildOrderQueue@2@@Z 100a2030 f   StrategyBossZerg.obj
 0001:000a2510       ?findUnitType@StrategyBossZerg@UAlbertaBot@@ABE?AVUnitType@BWAPI@@V34@@Z 100a3510 f   StrategyBossZerg.obj
 0001:000a27e0       ?queueSupplyIsOK@StrategyBossZerg@UAlbertaBot@@AAE_NAAVBuildOrderQueue@2@@Z 100a37e0 f   StrategyBossZerg.obj
 0001:000a2960       ?makeOverlords@StrategyBossZerg@UAlbertaBot@@AAEXAAVBuildOrderQueue@2@@Z 100a3960 f   StrategyBossZerg.obj
 0001:000a2b80       ?takeUrgentAction@StrategyBossZerg@UAlbertaBot@@AAE_NAAVBuildOrderQueue@2@@Z 100a3b80 f   StrategyBossZerg.obj
 0001:000a3e00       ?makeUrgentReaction@StrategyBossZerg@UAlbertaBot@@AAEXAAVBuildOrderQueue@2@@Z 100a4e00 f   StrategyBossZerg.obj
 0001:000a6600       ?adaptToEnemyOpeningPlan@StrategyBossZerg@UAlbertaBot@@AAE_NXZ 100a7600 f   StrategyBossZerg.obj
 0001:000a6a00       ?rebuildCriticalLosses@StrategyBossZerg@UAlbertaBot@@AAE_NXZ 100a7a00 f   StrategyBossZerg.obj
 0001:000a6df0       ?checkGroundDefenses@StrategyBossZerg@UAlbertaBot@@AAEXAAVBuildOrderQueue@2@@Z 100a7df0 f   StrategyBossZerg.obj
 0001:000a71a0       ?analyzeExtraDrones@StrategyBossZerg@UAlbertaBot@@AAEXXZ 100a81a0 f   StrategyBossZerg.obj
 0001:000a7510       ?setAvailableTechUnits@StrategyBossZerg@UAlbertaBot@@AAEXAAV?$array@_N$07@std@@@Z 100a8510 f   StrategyBossZerg.obj
 0001:000a75e0       ?recommendTech@StrategyBossZerg@UAlbertaBot@@AAEXXZ 100a85e0 f   StrategyBossZerg.obj
 0001:000a7ef0       ?vTerranTechScores@StrategyBossZerg@UAlbertaBot@@AAEXABVPlayerSnapshot@2@@Z 100a8ef0 f   StrategyBossZerg.obj
 0001:000a8340       ?vProtossTechScores@StrategyBossZerg@UAlbertaBot@@AAEXABVPlayerSnapshot@2@@Z 100a9340 f   StrategyBossZerg.obj
 0001:000a8a30       ?vZergTechScores@StrategyBossZerg@UAlbertaBot@@AAEXABVPlayerSnapshot@2@@Z 100a9a30 f   StrategyBossZerg.obj
 0001:000a8d20       ?calculateTechScores@StrategyBossZerg@UAlbertaBot@@AAEXH@Z 100a9d20 f   StrategyBossZerg.obj
 0001:000a9200       ?chooseTechTarget@StrategyBossZerg@UAlbertaBot@@AAEXXZ 100aa200 f   StrategyBossZerg.obj
 0001:000a9500       ?chooseUnitMix@StrategyBossZerg@UAlbertaBot@@AAEXXZ 100aa500 f   StrategyBossZerg.obj
 0001:000a9a50       ?chooseAuxUnit@StrategyBossZerg@UAlbertaBot@@AAEXXZ 100aaa50 f   StrategyBossZerg.obj
 0001:000a9da0       ?chooseEconomyRatio@StrategyBossZerg@UAlbertaBot@@AAEXXZ 100aada0 f   StrategyBossZerg.obj
 0001:000a9e00       ?produceUnits@StrategyBossZerg@UAlbertaBot@@AAEXAAH0@Z 100aae00 f   StrategyBossZerg.obj
 0001:000aa860       ?produceOtherStuff@StrategyBossZerg@UAlbertaBot@@AAEXAAH0_N@Z 100ab860 f   StrategyBossZerg.obj
 0001:000ae5d0       ?techTargetToString@StrategyBossZerg@UAlbertaBot@@AAE?AV?$basic_string@DU?$char_traits@D@std@@V?$allocator@D@2@@std@@W4TechUnit@2@@Z 100af5d0 f   StrategyBossZerg.obj
 0001:000ae790       ?drawStrategyBossInformation@StrategyBossZerg@UAlbertaBot@@AAEXXZ 100af790 f   StrategyBossZerg.obj
 0001:000aee30       ?Instance@StrategyBossZerg@UAlbertaBot@@SAAAV12@XZ 100afe30 f   StrategyBossZerg.obj
 0001:000af040       ?setUnitMix@StrategyBossZerg@UAlbertaBot@@QAEXVUnitType@BWAPI@@0@Z 100b0040 f   StrategyBossZerg.obj
 0001:000af0c0       ?hiddenBaseNext@StrategyBossZerg@UAlbertaBot@@QBE_NXZ 100b00c0 f   StrategyBossZerg.obj
 0001:000af130       ?handleUrgentProductionIssues@StrategyBossZerg@UAlbertaBot@@QAEXAAVBuildOrderQueue@2@@Z 100b0130 f   StrategyBossZerg.obj
 0001:000af460       ?freshProductionPlan@StrategyBossZerg@UAlbertaBot@@QAEAAVBuildOrder@2@XZ 100b0460 f   StrategyBossZerg.obj
 0001:000af850       ?end@?$initializer_list@VUpgradeType@BWAPI@@@std@@QBEPBVUpgradeType@BWAPI@@XZ 100b0850 f i StrategyBossZerg.obj
 0001:000af860       ??1?$map@V?$basic_string@DU?$char_traits@D@std@@V?$allocator@D@2@@std@@UStrategy@UAlbertaBot@@U?$less@V?$basic_string@DU?$char_traits@D@std@@V?$allocator@D@2@@std@@@2@V?$allocator@U?$pair@$$CBV?$basic_string@DU?$char_traits@D@std@@V?$allocator@D@2@@std@@UStrategy@UAlbertaBot@@@std@@@2@@std@@QAE@XZ 100b0860 f i StrategyManager.obj
 0001:000af880       ?Instance@StrategyManager@UAlbertaBot@@SAAAV12@XZ 100b0880 f   StrategyManager.obj
 0001:000afa20       ?shouldExpandNow@StrategyManager@UAlbertaBot@@ABE?B_NXZ 100b0a20 f   StrategyManager.obj
 0001:000afc80       ?getProtossBuildOrderGoal@StrategyManager@UAlbertaBot@@AAE?BV?$vector@U?$pair@VMacroAct@UAlbertaBot@@I@std@@V?$allocator@U?$pair@VMacroAct@UAlbertaBot@@I@std@@@2@@std@@XZ 100b0c80 f   StrategyManager.obj
 0001:000b1280       ?getTerranBuildOrderGoal@StrategyManager@UAlbertaBot@@AAE?BV?$vector@U?$pair@VMacroAct@UAlbertaBot@@I@std@@V?$allocator@U?$pair@VMacroAct@UAlbertaBot@@I@std@@@2@@std@@XZ 100b2280 f   StrategyManager.obj
 0001:000b31a0       ?getZergBuildOrderGoal@StrategyManager@UAlbertaBot@@ABE?BV?$vector@U?$pair@VMacroAct@UAlbertaBot@@I@std@@V?$allocator@U?$pair@VMacroAct@UAlbertaBot@@I@std@@@2@@std@@XZ 100b41a0 f   StrategyManager.obj
 0001:000b3550       ?handleUrgentProductionIssues@StrategyManager@UAlbertaBot@@QAEXAAVBuildOrderQueue@2@@Z 100b4550 f   StrategyManager.obj
 0001:000b4030       ?detectSupplyBlock@StrategyManager@UAlbertaBot@@ABE_NAAVBuildOrderQueue@2@@Z 100b5030 f   StrategyManager.obj
 0001:000b4380       ?performBuildOrderSearch@StrategyManager@UAlbertaBot@@AAEXXZ 100b5380 f   StrategyManager.obj
 0001:000b47c0       ?dropIsPlanned@StrategyManager@UAlbertaBot@@QBE_NXZ 100b57c0 f   StrategyManager.obj
 0001:000b4840       ??A?$map@V?$basic_string@DU?$char_traits@D@std@@V?$allocator@D@2@@std@@UStrategy@UAlbertaBot@@U?$less@V?$basic_string@DU?$char_traits@D@std@@V?$allocator@D@2@@std@@@2@V?$allocator@U?$pair@$$CBV?$basic_string@DU?$char_traits@D@std@@V?$allocator@D@2@@std@@UStrategy@UAlbertaBot@@@std@@@2@@std@@QAEAAUStrategy@UAlbertaBot@@ABV?$basic_string@DU?$char_traits@D@std@@V?$allocator@D@2@@1@@Z 100b5840 f i StrategyManager.obj
 0001:000b49b0       ??$_Assign_counted_range@PAVMacroAct@UAlbertaBot@@@?$vector@VMacroAct@UAlbertaBot@@V?$allocator@VMacroAct@UAlbertaBot@@@std@@@std@@AAEXPAVMacroAct@UAlbertaBot@@I@Z 100b59b0 f i StrategyManager.obj
 0001:000b4af0       ??$_Erase_tree@V?$allocator@U?$_Tree_node@U?$pair@$$CBV?$basic_string@DU?$char_traits@D@std@@V?$allocator@D@2@@std@@UStrategy@UAlbertaBot@@@std@@PAX@std@@@std@@@?$_Tree_val@U?$_Tree_simple_types@U?$pair@$$CBV?$basic_string@DU?$char_traits@D@std@@V?$allocator@D@2@@std@@UStrategy@UAlbertaBot@@@std@@@std@@@std@@QAEXAAV?$allocator@U?$_Tree_node@U?$pair@$$CBV?$basic_string@DU?$char_traits@D@std@@V?$allocator@D@2@@std@@UStrategy@UAlbertaBot@@@std@@PAX@std@@@1@PAU?$_Tree_node@U?$pair@$$CBV?$basic_string@DU?$char_traits@D@std@@V?$allocator@D@2@@std@@UStrategy@UAlbertaBot@@@std@@PAX@1@@Z 100b5af0 f i StrategyManager.obj
 0001:000b4b60       ??$_Emplace_reallocate@U?$pair@VMacroAct@UAlbertaBot@@I@std@@@?$vector@U?$pair@VMacroAct@UAlbertaBot@@I@std@@V?$allocator@U?$pair@VMacroAct@UAlbertaBot@@I@std@@@2@@std@@AAEPAU?$pair@VMacroAct@UAlbertaBot@@I@1@QAU21@$$QAU21@@Z 100b5b60 f i StrategyManager.obj
 0001:000b4ce0       ??1?$_Alloc_construct_ptr@V?$allocator@U?$_Tree_node@U?$pair@$$CBV?$basic_string@DU?$char_traits@D@std@@V?$allocator@D@2@@std@@UStrategy@UAlbertaBot@@@std@@PAX@std@@@std@@@std@@QAE@XZ 100b5ce0 f i StrategyManager.obj
 0001:000b4ce0       ??1?$_Tree_temp_node_alloc@V?$allocator@U?$_Tree_node@U?$pair@$$CBV?$basic_string@DU?$char_traits@D@std@@V?$allocator@D@2@@std@@UStrategy@UAlbertaBot@@@std@@PAX@std@@@std@@@std@@QAE@XZ 100b5ce0 f i StrategyManager.obj
 0001:000b4d00       ?get@Tasks@UAlbertaBot@@QBEPAVTask@2@ABV?$basic_string@DU?$char_traits@D@std@@V?$allocator@D@2@@std@@@Z 100b5d00 f   Tasks.obj
 0001:000b4da0       ?erase@?$_Tree@V?$_Tmap_traits@V?$basic_string@DU?$char_traits@D@std@@V?$allocator@D@2@@std@@PAVTask@UAlbertaBot@@U?$less@V?$basic_string@DU?$char_traits@D@std@@V?$allocator@D@2@@std@@@2@V?$allocator@U?$pair@$$CBV?$basic_string@DU?$char_traits@D@std@@V?$allocator@D@2@@std@@PAVTask@UAlbertaBot@@@std@@@2@$0A@@std@@@std@@QAEIABV?$basic_string@DU?$char_traits@D@std@@V?$allocator@D@2@@2@@Z 100b5da0 f i Tasks.obj
 0001:000b4fa0       ??A?$map@V?$basic_string@DU?$char_traits@D@std@@V?$allocator@D@2@@std@@PAVTask@UAlbertaBot@@U?$less@V?$basic_string@DU?$char_traits@D@std@@V?$allocator@D@2@@std@@@2@V?$allocator@U?$pair@$$CBV?$basic_string@DU?$char_traits@D@std@@V?$allocator@D@2@@std@@PAVTask@UAlbertaBot@@@std@@@2@@std@@QAEAAPAVTask@UAlbertaBot@@ABV?$basic_string@DU?$char_traits@D@std@@V?$allocator@D@2@@1@@Z 100b5fa0 f i Tasks.obj
 0001:000b4fc0       ??$_Try_emplace@ABV?$basic_string@DU?$char_traits@D@std@@V?$allocator@D@2@@std@@$$V@?$map@V?$basic_string@DU?$char_traits@D@std@@V?$allocator@D@2@@std@@PAVTask@UAlbertaBot@@U?$less@V?$basic_string@DU?$char_traits@D@std@@V?$allocator@D@2@@std@@@2@V?$allocator@U?$pair@$$CBV?$basic_string@DU?$char_traits@D@std@@V?$allocator@D@2@@std@@PAVTask@UAlbertaBot@@@std@@@2@@std@@AAE?AU?$pair@PAU?$_Tree_node@U?$pair@$$CBV?$basic_string@DU?$char_traits@D@std@@V?$allocator@D@2@@std@@PAVTask@UAlbertaBot@@@std@@PAX@std@@_N@1@ABV?$basic_string@DU?$char_traits@D@std@@V?$allocator@D@2@@1@@Z 100b5fc0 f i Tasks.obj
 0001:000b5140       ??0The@UAlbertaBot@@QAE@XZ 100b6140 f   The.obj
 0001:000b5880       ?initialize@The@UAlbertaBot@@QAEXXZ 100b6880 f   The.obj
 0001:000b5cc0       ?maybeStartAirTasks@The@UAlbertaBot@@AAEXXZ 100b6cc0 f   The.obj
 0001:000b5f80       ?update@The@UAlbertaBot@@QAEXXZ 100b6f80 f   The.obj
 0001:000b6130       ??0Timer@BOSS@@QAE@XZ      100b7130 f i TimerManager.obj
 0001:000b6180       ?getElapsedTimeInMilliSec@Timer@BOSS@@QAENXZ 100b7180 f i TimerManager.obj
 0001:000b6200       ??0Timer@UAlbertaBot@@QAE@XZ 100b7200 f   TimerManager.obj
 0001:000b6270       ??0Timer@UAlbertaBot@@QAE@V?$basic_string@DU?$char_traits@D@std@@V?$allocator@D@2@@std@@@Z 100b7270 f   TimerManager.obj
 0001:000b6310       ??0TimerManager@UAlbertaBot@@QAE@XZ 100b7310 f   TimerManager.obj
 0001:000b6ab0       ??4Timer@UAlbertaBot@@QAEAAU01@$$QAU01@@Z 100b7ab0 f i TimerManager.obj
 0001:000b6b10       ?stopTimer@TimerManager@UAlbertaBot@@QAEXW4Type@12@@Z 100b7b10 f   TimerManager.obj
 0001:000b6c90       ?drawModuleTimers@TimerManager@UAlbertaBot@@QAEXHH@Z 100b7c90 f   TimerManager.obj
 0001:000b6f80       ??A?$map@W4Type@TimerManager@UAlbertaBot@@UTimer@3@U?$less@W4Type@TimerManager@UAlbertaBot@@@std@@V?$allocator@U?$pair@$$CBW4Type@TimerManager@UAlbertaBot@@UTimer@3@@std@@@6@@std@@QAEAAUTimer@UAlbertaBot@@ABW4Type@TimerManager@3@@Z 100b7f80 f i TimerManager.obj
 0001:000b7050       ??A?$map@W4Type@TimerManager@UAlbertaBot@@UTimer@3@U?$less@W4Type@TimerManager@UAlbertaBot@@@std@@V?$allocator@U?$pair@$$CBW4Type@TimerManager@UAlbertaBot@@UTimer@3@@std@@@6@@std@@QAEAAUTimer@UAlbertaBot@@$$QAW4Type@TimerManager@3@@Z 100b8050 f i TimerManager.obj
 0001:000b7120       ?Instance@TransportManager@@SAAAV1@XZ 100b8120 f   TransportManager.obj
 0001:000b71f0       ?update@TransportManager@@QAEXAAVBuildOrderQueue@UAlbertaBot@@@Z 100b81f0 f   TransportManager.obj
 0001:000b7880       ?safePrioritize@@YA_NAAVBuildOrderQueue@UAlbertaBot@@VUnitType@BWAPI@@@Z 100b8880 f   TransportManager.obj
 0001:000b79f0       ?handleTech@TransportManager@@AAEXAAUTransportTask@@AAVBuildOrderQueue@UAlbertaBot@@@Z 100b89f0 f   TransportManager.obj
 0001:000b7e60       ?findBestOverlord@TransportManager@@QAEPAVUnitInterface@BWAPI@@PAV23@V?$Point@H$00@3@@Z 100b8e60 f   TransportManager.obj
 0001:000b8060       ??1?$vector@UTransportTask@@V?$allocator@UTransportTask@@@std@@@std@@QAE@XZ 100b9060 f i TransportManager.obj
 0001:000b80f0       ??$_Move_unchecked@PAUTransportTask@@PAU1@@std@@YAPAUTransportTask@@PAU1@00@Z 100b90f0 f i TransportManager.obj
 0001:000b8180       ?ReportFailure@Assert@UAlbertaBot@@YAXPBDH0ZZ 100b9180 f   UABAssert.obj
 0001:000b8510       ??$endl@DU?$char_traits@D@std@@@std@@YAAAV?$basic_ostream@DU?$char_traits@D@std@@@0@AAV10@@Z 100b9510 f i UABAssert.obj
 0001:000b8540       ??_EUAlbertaBotModule@UAlbertaBot@@UAEPAXI@Z 100b9540 f i * CIL library *:* CIL module *
 0001:000b8540       ??_GUAlbertaBotModule@UAlbertaBot@@UAEPAXI@Z 100b9540 f i UAlbertaBotModule.obj
 0001:000b8570       ?onStart@UAlbertaBotModule@UAlbertaBot@@UAEXXZ 100b9570 f   UAlbertaBotModule.obj
 0001:000b8800       ?onEnd@UAlbertaBotModule@UAlbertaBot@@UAEX_N@Z 100b9800 f   UAlbertaBotModule.obj
 0001:000b8810       ?onFrame@UAlbertaBotModule@UAlbertaBot@@UAEXXZ 100b9810 f   UAlbertaBotModule.obj
 0001:000b8a60       ?onUnitDestroy@UAlbertaBotModule@UAlbertaBot@@UAEXPAVUnitInterface@BWAPI@@@Z 100b9a60 f   UAlbertaBotModule.obj
 0001:000b8a70       ?onUnitMorph@UAlbertaBotModule@UAlbertaBot@@UAEXPAVUnitInterface@BWAPI@@@Z 100b9a70 f   UAlbertaBotModule.obj
 0001:000b8a80       ?onSendText@UAlbertaBotModule@UAlbertaBot@@UAEXV?$basic_string@DU?$char_traits@D@std@@V?$allocator@D@2@@std@@@Z 100b9a80 f   UAlbertaBotModule.obj
 0001:000b8ad0       ?onUnitCreate@UAlbertaBotModule@UAlbertaBot@@UAEXPAVUnitInterface@BWAPI@@@Z 100b9ad0 f   UAlbertaBotModule.obj
 0001:000b8b40       ?onUnitComplete@UAlbertaBotModule@UAlbertaBot@@UAEXPAVUnitInterface@BWAPI@@@Z 100b9b40 f   UAlbertaBotModule.obj
 0001:000b8c00       ?onUnitShow@UAlbertaBotModule@UAlbertaBot@@UAEXPAVUnitInterface@BWAPI@@@Z 100b9c00 f   UAlbertaBotModule.obj
 0001:000b8d10       ?onUnitHide@UAlbertaBotModule@UAlbertaBot@@UAEXPAVUnitInterface@BWAPI@@@Z 100b9d10 f   UAlbertaBotModule.obj
 0001:000b8d70       ?onUnitRenegade@UAlbertaBotModule@UAlbertaBot@@UAEXPAVUnitInterface@BWAPI@@@Z 100b9d70 f   UAlbertaBotModule.obj
 0001:000b8e20       ??0UnitInfo@UAlbertaBot@@QAE@PAVUnitInterface@BWAPI@@@Z 100b9e20 f   UnitData.obj
 0001:000b8f10       ?estimateHP@UnitInfo@UAlbertaBot@@QBEHXZ 100b9f10 f   UnitData.obj
 0001:000b8fb0       ?estimateShields@UnitInfo@UAlbertaBot@@QBEHXZ 100b9fb0 f   UnitData.obj
 0001:000b9060       ?predictCompletion@UnitInfo@UAlbertaBot@@QBEHXZ 100ba060 f   UnitData.obj
 0001:000b91d0       ??0UnitData@UAlbertaBot@@QAE@XZ 100ba1d0 f   UnitData.obj
 0001:000b9350       ?updateUnit@UnitData@UAlbertaBot@@QAEXPAVUnitInterface@BWAPI@@@Z 100ba350 f   UnitData.obj
 0001:000b95e0       ?removeBadUnits@UnitData@UAlbertaBot@@QAEXXZ 100ba5e0 f   UnitData.obj
 0001:000b96d0       ?erase@?$_Tree@V?$_Tmap_traits@PAVUnitInterface@BWAPI@@UUnitInfo@UAlbertaBot@@U?$less@PAVUnitInterface@BWAPI@@@std@@V?$allocator@U?$pair@QAVUnitInterface@BWAPI@@UUnitInfo@UAlbertaBot@@@std@@@6@$0A@@std@@@std@@QAEIABQAVUnitInterface@BWAPI@@@Z 100ba6d0 f i UnitData.obj
 0001:000b9810       ??A?$map@PAVUnitInterface@BWAPI@@UUnitInfo@UAlbertaBot@@U?$less@PAVUnitInterface@BWAPI@@@std@@V?$allocator@U?$pair@QAVUnitInterface@BWAPI@@UUnitInfo@UAlbertaBot@@@std@@@6@@std@@QAEAAUUnitInfo@UAlbertaBot@@ABQAVUnitInterface@BWAPI@@@Z 100ba810 f i UnitData.obj
 0001:000b9920       ?_Erase_unchecked@?$_Tree@V?$_Tmap_traits@PAVUnitInterface@BWAPI@@UUnitInfo@UAlbertaBot@@U?$less@PAVUnitInterface@BWAPI@@@std@@V?$allocator@U?$pair@QAVUnitInterface@BWAPI@@UUnitInfo@UAlbertaBot@@@std@@@6@$0A@@std@@@std@@AAEPAU?$_Tree_node@U?$pair@QAVUnitInterface@BWAPI@@UUnitInfo@UAlbertaBot@@@std@@PAX@2@V?$_Tree_unchecked_const_iterator@V?$_Tree_val@U?$_Tree_simple_types@U?$pair@QAVUnitInterface@BWAPI@@UUnitInfo@UAlbertaBot@@@std@@@std@@@std@@U_Iterator_base0@2@@2@@Z 100ba920 f i UnitData.obj
 0001:000b9990       ??1?$_Alloc_construct_ptr@V?$allocator@U?$_Tree_node@U?$pair@QAVUnitInterface@BWAPI@@UUnitInfo@UAlbertaBot@@@std@@PAX@std@@@std@@@std@@QAE@XZ 100ba990 f i UnitData.obj
 0001:000b99b0       ?IsCombatSimUnit@UnitUtil@UAlbertaBot@@YA_NPAVUnitInterface@BWAPI@@@Z 100ba9b0 f   UnitUtil.obj
 0001:000b9ab0       ?IsCombatSimUnit@UnitUtil@UAlbertaBot@@YA_NVUnitType@BWAPI@@@Z 100baab0 f   UnitUtil.obj
 0001:000b9b30       ?IsValidUnit@UnitUtil@UAlbertaBot@@YA_NPAVUnitInterface@BWAPI@@@Z 100bab30 f   UnitUtil.obj
 0001:000b9c20       ?TypeCanAttack@UnitUtil@UAlbertaBot@@YA_NVUnitType@BWAPI@@@Z 100bac20 f   UnitUtil.obj
 0001:000b9c90       ?GetWeapon@UnitUtil@UAlbertaBot@@YA?AVWeaponType@BWAPI@@PAVUnitInterface@4@0@Z 100bac90 f   UnitUtil.obj
 0001:000b9d40       ?GetWeapon@UnitUtil@UAlbertaBot@@YA?AVWeaponType@BWAPI@@VUnitType@4@0@Z 100bad40 f   UnitUtil.obj
 0001:000b9de0       ?GetAttackRange@UnitUtil@UAlbertaBot@@YAHPAVUnitInterface@BWAPI@@0@Z 100bade0 f   UnitUtil.obj
 0001:000b9ed0       ?GetAttackRangeAssumingUpgrades@UnitUtil@UAlbertaBot@@YAHVUnitType@BWAPI@@0@Z 100baed0 f   UnitUtil.obj
 0001:000b9f60       ?FramesToReachAttackRange@UnitUtil@UAlbertaBot@@YAHPAVUnitInterface@BWAPI@@0@Z 100baf60 f   UnitUtil.obj
 0001:000ba000       ?ExpectedSurvivalTime@UnitUtil@UAlbertaBot@@YAHPAVUnitInterface@BWAPI@@@Z 100bb000 f   UnitUtil.obj
 0001:000ba1b0       ?EnemyDetectorInRange@UnitUtil@UAlbertaBot@@YA_NV?$Point@H$00@BWAPI@@@Z 100bb1b0 f   UnitUtil.obj
 0001:000ba370       ?GetUncompletedUnitCount@UnitUtil@UAlbertaBot@@YAHVUnitType@BWAPI@@@Z 100bb370 f   UnitUtil.obj
 0001:000ba410       ?MobilizeUnit@UnitUtil@UAlbertaBot@@YA_NPAVUnitInterface@BWAPI@@@Z 100bb410 f   UnitUtil.obj
 0001:000ba4c0       ??0WorkerData@UAlbertaBot@@QAE@XZ 100bb4c0 f   WorkerData.obj
 0001:000ba760       ??1?$map@PAVUnitInterface@BWAPI@@VWorkerPost@WorkerData@UAlbertaBot@@U?$less@PAVUnitInterface@BWAPI@@@std@@V?$allocator@U?$pair@QAVUnitInterface@BWAPI@@VWorkerPost@WorkerData@UAlbertaBot@@@std@@@7@@std@@QAE@XZ 100bb760 f i WorkerData.obj
 0001:000ba780       ?setWorkerJob@WorkerData@UAlbertaBot@@QAEXPAVUnitInterface@BWAPI@@W4WorkerJob@12@0@Z 100bb780 f   WorkerData.obj
 0001:000ba950       ?clearPreviousJob@WorkerData@UAlbertaBot@@AAEXPAVUnitInterface@BWAPI@@@Z 100bb950 f   WorkerData.obj
 0001:000bab20       ?depotIsFull@WorkerData@UAlbertaBot@@QAE_NPAVUnitInterface@BWAPI@@@Z 100bbb20 f   WorkerData.obj
 0001:000babe0       ?getMineralPatchesNearDepot@WorkerData@UAlbertaBot@@QAE?AVUnitset@BWAPI@@PAVUnitInterface@4@@Z 100bbbe0 f   WorkerData.obj
 0001:000bad00       ?getWorkerResource@WorkerData@UAlbertaBot@@QAEPAVUnitInterface@BWAPI@@PAV34@@Z 100bbd00 f   WorkerData.obj
 0001:000badf0       ?getMineralToMine@WorkerData@UAlbertaBot@@AAEPAVUnitInterface@BWAPI@@PAV34@@Z 100bbdf0 f   WorkerData.obj
 0001:000bb000       ?getNumAssignedWorkers@WorkerData@UAlbertaBot@@QBEHPAVUnitInterface@BWAPI@@@Z 100bc000 f   WorkerData.obj
 0001:000bb0b0       ?getGasWorkers@WorkerData@UAlbertaBot@@QAEXAAV?$set@PAVUnitInterface@BWAPI@@U?$less@PAVUnitInterface@BWAPI@@@std@@V?$allocator@PAVUnitInterface@BWAPI@@@4@@std@@@Z 100bc0b0 f   WorkerData.obj
 0001:000bb1c0       ?drawDepotDebugInfo@WorkerData@UAlbertaBot@@QAEXXZ 100bc1c0 f   WorkerData.obj
 0001:000bb440       ?erase@?$_Tree@V?$_Tmap_traits@PAVUnitInterface@BWAPI@@HU?$less@PAVUnitInterface@BWAPI@@@std@@V?$allocator@U?$pair@QAVUnitInterface@BWAPI@@H@std@@@4@$0A@@std@@@std@@QAEIABQAVUnitInterface@BWAPI@@@Z 100bc440 f i WorkerData.obj
 0001:000bb5c0       ?erase@?$_Tree@V?$_Tmap_traits@PAVUnitInterface@BWAPI@@VWorkerPost@WorkerData@UAlbertaBot@@U?$less@PAVUnitInterface@BWAPI@@@std@@V?$allocator@U?$pair@QAVUnitInterface@BWAPI@@VWorkerPost@WorkerData@UAlbertaBot@@@std@@@7@$0A@@std@@@std@@QAEIABQAVUnitInterface@BWAPI@@@Z 100bc5c0 f i WorkerData.obj
 0001:000bb700       ?erase@?$_Tree@V?$_Tmap_traits@PAVUnitInterface@BWAPI@@V?$Point@H$0CA@@2@U?$less@PAVUnitInterface@BWAPI@@@std@@V?$allocator@U?$pair@QAVUnitInterface@BWAPI@@V?$Point@H$0CA@@2@@std@@@5@$0A@@std@@@std@@QAEIABQAVUnitInterface@BWAPI@@@Z 100bc700 f i WorkerData.obj
 0001:000bb840       ?erase@?$_Tree@V?$_Tmap_traits@PAVUnitInterface@BWAPI@@PAV12@U?$less@PAVUnitInterface@BWAPI@@@std@@V?$allocator@U?$pair@QAVUnitInterface@BWAPI@@PAV12@@std@@@4@$0A@@std@@@std@@QAEIABQAVUnitInterface@BWAPI@@@Z 100bc840 f i WorkerData.obj
 0001:000bb940       ??A?$map@PAVUnitInterface@BWAPI@@PAV12@U?$less@PAVUnitInterface@BWAPI@@@std@@V?$allocator@U?$pair@QAVUnitInterface@BWAPI@@PAV12@@std@@@4@@std@@QAEAAPAVUnitInterface@BWAPI@@ABQAV23@@Z 100bc940 f i WorkerData.obj
 0001:000bb940       ??A?$map@PAVUnitInterface@BWAPI@@W4WorkerJob@WorkerData@UAlbertaBot@@U?$less@PAVUnitInterface@BWAPI@@@std@@V?$allocator@U?$pair@QAVUnitInterface@BWAPI@@W4WorkerJob@WorkerData@UAlbertaBot@@@std@@@7@@std@@QAEAAW4WorkerJob@WorkerData@UAlbertaBot@@ABQAVUnitInterface@BWAPI@@@Z 100bc940 f i WorkerData.obj
 0001:000bba00       ?erase@?$_Tree@V?$_Tmap_traits@PAVUnitInterface@BWAPI@@W4WorkerJob@WorkerData@UAlbertaBot@@U?$less@PAVUnitInterface@BWAPI@@@std@@V?$allocator@U?$pair@QAVUnitInterface@BWAPI@@W4WorkerJob@WorkerData@UAlbertaBot@@@std@@@7@$0A@@std@@@std@@QAEIABQAVUnitInterface@BWAPI@@@Z 100bca00 f i WorkerData.obj
 0001:000bbb40       ?_Erase_unchecked@?$_Tree@V?$_Tmap_traits@PAVUnitInterface@BWAPI@@HU?$less@PAVUnitInterface@BWAPI@@@std@@V?$allocator@U?$pair@QAVUnitInterface@BWAPI@@H@std@@@4@$0A@@std@@@std@@AAEPAU?$_Tree_node@U?$pair@QAVUnitInterface@BWAPI@@H@std@@PAX@2@V?$_Tree_unchecked_const_iterator@V?$_Tree_val@U?$_Tree_simple_types@U?$pair@QAVUnitInterface@BWAPI@@H@std@@@std@@@std@@U_Iterator_base0@2@@2@@Z 100bcb40 f i WorkerData.obj
 0001:000bbbb0       ??1WorkerData@UAlbertaBot@@QAE@XZ 100bcbb0 f i WorkerManager.obj
 0001:000bbca0       ?Instance@WorkerManager@UAlbertaBot@@SAAAV12@XZ 100bcca0 f   WorkerManager.obj
 0001:000bbd90       ?update@WorkerManager@UAlbertaBot@@QAEXXZ 100bcd90 f   WorkerManager.obj
 0001:000bc100       ?updateWorkerStatus@WorkerManager@UAlbertaBot@@QAEXXZ 100bd100 f   WorkerManager.obj
 0001:000bc840       ?clearBlockingMinerals@WorkerManager@UAlbertaBot@@AAEXXZ 100bd840 f   WorkerManager.obj
 0001:000bcc40       ?handleGasWorkers@WorkerManager@UAlbertaBot@@AAEXXZ 100bdc40 f   WorkerManager.obj
 0001:000bd230       ?handleRepairWorkers@WorkerManager@UAlbertaBot@@AAEXXZ 100be230 f   WorkerManager.obj
 0001:000bd630       ?handleMineralWorkers@WorkerManager@UAlbertaBot@@AAEXXZ 100be630 f   WorkerManager.obj
 0001:000bd8b0       ?handleUnblockWorkers@WorkerManager@UAlbertaBot@@AAEXXZ 100be8b0 f   WorkerManager.obj
 0001:000bdba0       ?maybeFleeDanger@WorkerManager@UAlbertaBot@@AAE_NPAVUnitInterface@BWAPI@@H@Z 100beba0 f   WorkerManager.obj
 0001:000bdd10       ?inIrradiateDanger@WorkerManager@UAlbertaBot@@ABE_NPAVUnitInterface@BWAPI@@@Z 100bed10 f   WorkerManager.obj
 0001:000bde70       ?findEnemyTargetForWorker@WorkerManager@UAlbertaBot@@ABEPAVUnitInterface@BWAPI@@PAV34@@Z 100bee70 f   WorkerManager.obj
 0001:000be2a0       ?getAnyClosestDepot@WorkerManager@UAlbertaBot@@AAEPAVUnitInterface@BWAPI@@PAV34@@Z 100bf2a0 f   WorkerManager.obj
 0001:000be3a0       ?getClosestNonFullDepot@WorkerManager@UAlbertaBot@@AAEPAVUnitInterface@BWAPI@@PAV34@@Z 100bf3a0 f   WorkerManager.obj
 0001:000be620       ?finishedWithWorker@WorkerManager@UAlbertaBot@@QAEXPAVUnitInterface@BWAPI@@@Z 100bf620 f   WorkerManager.obj
 0001:000be710       ?getUnencumberedWorker@WorkerManager@UAlbertaBot@@AAEPAVUnitInterface@BWAPI@@ABV?$Point@H$00@4@H@Z 100bf710 f   WorkerManager.obj
 0001:000be7a0       ?getLongDistanceWorker@WorkerManager@UAlbertaBot@@QAEPAVUnitInterface@BWAPI@@ABV?$Point@H$00@4@@Z 100bf7a0 f   WorkerManager.obj
 0001:000be880       ?getBuilder@WorkerManager@UAlbertaBot@@QAEPAVUnitInterface@BWAPI@@ABVBuilding@2@@Z 100bf880 f   WorkerManager.obj
 0001:000bec00       ?setBuildWorker@WorkerManager@UAlbertaBot@@QAEXPAVUnitInterface@BWAPI@@@Z 100bfc00 f   WorkerManager.obj
 0001:000bed40       ?postGivenWorker@WorkerManager@UAlbertaBot@@QAEXPAVUnitInterface@BWAPI@@W4MacroLocation@2@@Z 100bfd40 f   WorkerManager.obj
 0001:000beec0       ?postWorker@WorkerManager@UAlbertaBot@@QAEPAVUnitInterface@BWAPI@@W4MacroLocation@2@@Z 100bfec0 f   WorkerManager.obj
 0001:000befa0       ?onUnitDestroy@WorkerManager@UAlbertaBot@@QAEXPAVUnitInterface@BWAPI@@@Z 100bffa0 f   WorkerManager.obj
 0001:000bf1b0       ?drawWorkerInformation@WorkerManager@UAlbertaBot@@AAEXXZ 100c01b0 f   WorkerManager.obj
 0001:000bf410       ?isFree@WorkerManager@UAlbertaBot@@QAE_NPAVUnitInterface@BWAPI@@@Z 100c0410 f   WorkerManager.obj
 0001:000bf520       ?getNumMineralWorkers@WorkerManager@UAlbertaBot@@QBEHXZ 100c0520 f   WorkerManager.obj
 0001:000bf5a0       ?getNumGasWorkers@WorkerManager@UAlbertaBot@@QBEHXZ 100c05a0 f   WorkerManager.obj
 0001:000bf620       ?getNumIdleWorkers@WorkerManager@UAlbertaBot@@QBEHXZ 100c0620 f   WorkerManager.obj
 0001:000bf6a0       ?getMaxWorkers@WorkerManager@UAlbertaBot@@QBEHXZ 100c06a0 f   WorkerManager.obj
 0001:000bf720       ?_Target_type@?$_Func_impl_no_alloc@V<lambda_1feb1c45d8d8f4db5ffac22a9dbce3a7>@@_NPAVUnitInterface@BWAPI@@@std@@EBEABVtype_info@@XZ 100c0720 f i WorkerManager.obj
 0001:000bf730       ?_Do_call@?$_Func_impl_no_alloc@V<lambda_1feb1c45d8d8f4db5ffac22a9dbce3a7>@@_NPAVUnitInterface@BWAPI@@@std@@EAE_N$$QAPAVUnitInterface@BWAPI@@@Z 100c0730 f i WorkerManager.obj
 0001:000bf760       ?_Copy@?$_Func_impl_no_alloc@V<lambda_1feb1c45d8d8f4db5ffac22a9dbce3a7>@@_NPAVUnitInterface@BWAPI@@@std@@EBEPAV?$_Func_base@_NPAVUnitInterface@BWAPI@@@2@PAX@Z 100c0760 f i WorkerManager.obj
 0001:000bf760       ?_Move@?$_Func_impl_no_alloc@V<lambda_1feb1c45d8d8f4db5ffac22a9dbce3a7>@@_NPAVUnitInterface@BWAPI@@@std@@EAEPAV?$_Func_base@_NPAVUnitInterface@BWAPI@@@2@PAX@Z 100c0760 f i WorkerManager.obj
 0001:000bf780       ?_Target_type@?$_Func_impl_no_alloc@V<lambda_3d97d02986cacbf219a1cc042b0c5977>@@_NPAVUnitInterface@BWAPI@@@std@@EBEABVtype_info@@XZ 100c0780 f i WorkerManager.obj
 0001:000bf790       ?_Do_call@?$_Func_impl_no_alloc@V<lambda_3d97d02986cacbf219a1cc042b0c5977>@@_NPAVUnitInterface@BWAPI@@@std@@EAE_N$$QAPAVUnitInterface@BWAPI@@@Z 100c0790 f i WorkerManager.obj
 0001:000bf7e0       ?_Copy@?$_Func_impl_no_alloc@V<lambda_3d97d02986cacbf219a1cc042b0c5977>@@_NPAVUnitInterface@BWAPI@@@std@@EBEPAV?$_Func_base@_NPAVUnitInterface@BWAPI@@@2@PAX@Z 100c07e0 f i WorkerManager.obj
 0001:000bf7e0       ?_Move@?$_Func_impl_no_alloc@V<lambda_3d97d02986cacbf219a1cc042b0c5977>@@_NPAVUnitInterface@BWAPI@@@std@@EAEPAV?$_Func_base@_NPAVUnitInterface@BWAPI@@@2@PAX@Z 100c07e0 f i WorkerManager.obj
 0001:000bf800       ?whatBuildsActionType@ActionType@BOSS@@QBE?AV12@XZ 100c0800 f   BOSS:ActionType.obj
 0001:000bf8a0       ?getName@ActionType@BOSS@@QBEABV?$basic_string@DU?$char_traits@D@std@@V?$allocator@D@2@@std@@XZ 100c08a0 f   BOSS:ActionType.obj
 0001:000bf8f0       ?mineralPrice@ActionType@BOSS@@QBEHXZ 100c08f0 f   BOSS:ActionType.obj
 0001:000bf940       ?gasPrice@ActionType@BOSS@@QBEHXZ 100c0940 f   BOSS:ActionType.obj
 0001:000bf990       ?canBuild@ActionType@BOSS@@QBE_NABV12@@Z 100c0990 f   BOSS:ActionType.obj
 0001:000bff10       ?requiredAddonType@ActionType@BOSS@@QBE?AV12@XZ 100c0f10 f   BOSS:ActionType.obj
 0001:000bffb0       ?init@ActionTypes@BOSS@@YAXXZ 100c0fb0 f   BOSS:ActionType.obj
 0001:000c0b10       ?GetActionType@ActionTypes@BOSS@@YAABVActionType@2@ABV?$basic_string@DU?$char_traits@D@std@@V?$allocator@D@2@@std@@@Z 100c1b10 f   BOSS:ActionType.obj
 0001:000c0ba0       ??A?$map@V?$basic_string@DU?$char_traits@D@std@@V?$allocator@D@2@@std@@VActionType@BOSS@@U?$less@V?$basic_string@DU?$char_traits@D@std@@V?$allocator@D@2@@std@@@2@V?$allocator@U?$pair@$$CBV?$basic_string@DU?$char_traits@D@std@@V?$allocator@D@2@@std@@VActionType@BOSS@@@std@@@2@@std@@QAEAAVActionType@BOSS@@ABV?$basic_string@DU?$char_traits@D@std@@V?$allocator@D@2@@1@@Z 100c1ba0 f i BOSS:ActionType.obj
 0001:000c0ca0       ??$_Find_lower_bound@V?$basic_string@DU?$char_traits@D@std@@V?$allocator@D@2@@std@@@?$_Tree@V?$_Tmap_traits@V?$basic_string@DU?$char_traits@D@std@@V?$allocator@D@2@@std@@VActionType@BOSS@@U?$less@V?$basic_string@DU?$char_traits@D@std@@V?$allocator@D@2@@std@@@2@V?$allocator@U?$pair@$$CBV?$basic_string@DU?$char_traits@D@std@@V?$allocator@D@2@@std@@VActionType@BOSS@@@std@@@2@$0A@@std@@@std@@IBE?AU?$_Tree_find_result@PAU?$_Tree_node@U?$pair@$$CBV?$basic_string@DU?$char_traits@D@std@@V?$allocator@D@2@@std@@VActionType@BOSS@@@std@@PAX@std@@@1@ABV?$basic_string@DU?$char_traits@D@std@@V?$allocator@D@2@@1@@Z 100c1ca0 f i BOSS:ActionType.obj
 0001:000c0d30       ??$_Emplace_reallocate@V?$vector@VActionType@BOSS@@V?$allocator@VActionType@BOSS@@@std@@@std@@@?$vector@V?$vector@VActionType@BOSS@@V?$allocator@VActionType@BOSS@@@std@@@std@@V?$allocator@V?$vector@VActionType@BOSS@@V?$allocator@VActionType@BOSS@@@std@@@std@@@2@@std@@AAEPAV?$vector@VActionType@BOSS@@V?$allocator@VActionType@BOSS@@@std@@@1@QAV21@$$QAV21@@Z 100c1d30 f i BOSS:ActionType.obj
 0001:000c0f30       ??$_Emplace_reallocate@ABVActionType@BOSS@@@?$vector@VActionType@BOSS@@V?$allocator@VActionType@BOSS@@@std@@@std@@AAEPAVActionType@BOSS@@QAV23@ABV23@@Z 100c1f30 f i BOSS:ActionType.obj
 0001:000c0f30       ??$_Emplace_reallocate@VActionType@BOSS@@@?$vector@VActionType@BOSS@@V?$allocator@VActionType@BOSS@@@std@@@std@@AAEPAVActionType@BOSS@@QAV23@$$QAV23@@Z 100c1f30 f i BOSS:GameState.obj
 0001:000c10d0       ??$_Uninitialized_move@PAV?$vector@VActionType@BOSS@@V?$allocator@VActionType@BOSS@@@std@@@std@@V?$allocator@V?$vector@VActionType@BOSS@@V?$allocator@VActionType@BOSS@@@std@@@std@@@2@@std@@YAPAV?$vector@VActionType@BOSS@@V?$allocator@VActionType@BOSS@@@std@@@0@QAV10@0PAV10@AAV?$allocator@V?$vector@VActionType@BOSS@@V?$allocator@VActionType@BOSS@@@std@@@std@@@0@@Z 100c20d0 f i BOSS:ActionType.obj
 0001:000c1130       ??0GameState@BOSS@@QAE@ABV01@@Z 100c2130 f i BOSS:NaiveBuildOrderSearch.obj
 0001:000c1340       ??0BuildOrderSearchGoal@BOSS@@QAE@ABV01@@Z 100c2340 f i BOSS:NaiveBuildOrderSearch.obj
 0001:000c1450       ?checkUnsolvable@NaiveBuildOrderSearch@BOSS@@AAE_NXZ 100c2450 f   BOSS:NaiveBuildOrderSearch.obj
 0001:000c14c0       ?solve@NaiveBuildOrderSearch@BOSS@@QAEABVBuildOrder@2@XZ 100c24c0 f   BOSS:NaiveBuildOrderSearch.obj
 0001:000c3b10       ??$_Uninitialized_copy@PAVActionPerformed@BOSS@@PAV12@V?$allocator@VActionPerformed@BOSS@@@std@@@std@@YAPAVActionPerformed@BOSS@@PAV12@00AAV?$allocator@VActionPerformed@BOSS@@@0@@Z 100c4b10 f i BOSS:NaiveBuildOrderSearch.obj
 0001:000c3b60       __vfprintf_l               100c4b60 f i BOSS:DFBB_BuildOrderSmartSearch.obj
 0001:000c3b90       _printf                    100c4b90 f i BOSS:DFBB_BuildOrderSmartSearch.obj
 0001:000c3bc0       ??0DFBB_BuildOrderSmartSearch@BOSS@@QAE@E@Z 100c4bc0 f   BOSS:DFBB_BuildOrderSmartSearch.obj
 0001:000c3d40       ??4DFBB_BuildOrderStackSearch@BOSS@@QAEAAV01@$$QAV01@@Z 100c4d40 f i BOSS:DFBB_BuildOrderSmartSearch.obj
 0001:000c3f90       ?calculateSearchSettings@DFBB_BuildOrderSmartSearch@BOSS@@AAEXXZ 100c4f90 f   BOSS:DFBB_BuildOrderSmartSearch.obj
 0001:000c4230       ?calculateRefineriesRequired@DFBB_BuildOrderSmartSearch@BOSS@@AAEGXZ 100c5230 f   BOSS:DFBB_BuildOrderSmartSearch.obj
 0001:000c43d0       ?setPrerequisiteGoalMax@DFBB_BuildOrderSmartSearch@BOSS@@AAEXXZ 100c53d0 f   BOSS:DFBB_BuildOrderSmartSearch.obj
 0001:000c4d40       ?recurseOverStrictDependencies@DFBB_BuildOrderSmartSearch@BOSS@@AAEXABVActionType@2@@Z 100c5d40 f   BOSS:DFBB_BuildOrderSmartSearch.obj
 0001:000c4f80       ?setRelevantActions@DFBB_BuildOrderSmartSearch@BOSS@@AAEXXZ 100c5f80 f   BOSS:DFBB_BuildOrderSmartSearch.obj
 0001:000c5140       ?calculateSupplyProvidersRequired@DFBB_BuildOrderSmartSearch@BOSS@@AAEGXZ 100c6140 f   BOSS:DFBB_BuildOrderSmartSearch.obj
 0001:000c5450       ?setRepetitions@DFBB_BuildOrderSmartSearch@BOSS@@AAEXXZ 100c6450 f   BOSS:DFBB_BuildOrderSmartSearch.obj
 0001:000c56d0       ?search@DFBB_BuildOrderSmartSearch@BOSS@@QAEXXZ 100c66d0 f   BOSS:DFBB_BuildOrderSmartSearch.obj
 0001:000c5870       ?getParameters@DFBB_BuildOrderSmartSearch@BOSS@@QAEABVDFBB_BuildOrderSearchParameters@2@XZ 100c6870 f   BOSS:DFBB_BuildOrderSmartSearch.obj
 0001:000c58f0       ??$_Assign_counted_range@PAG@?$vector@GV?$allocator@G@std@@@std@@AAEXPAGI@Z 100c68f0 f i BOSS:DFBB_BuildOrderSmartSearch.obj
 0001:000c5a30       ??0GameState@BOSS@@QAE@E@Z 100c6a30 f   BOSS:GameState.obj
 0001:000c5ab0       ??0GameState@BOSS@@QAE@AAVGameWrapper@BWAPI@@PAVPlayerInterface@3@ABV?$vector@VUnitType@BWAPI@@V?$allocator@VUnitType@BWAPI@@@std@@@std@@@Z 100c6ab0 f   BOSS:GameState.obj
 0001:000c6c80       ?isLegal@GameState@BOSS@@QBE_NABVActionType@2@@Z 100c7c80 f   BOSS:GameState.obj
 0001:000c71a0       ?doAction@GameState@BOSS@@QAE?AV?$vector@VActionType@BOSS@@V?$allocator@VActionType@BOSS@@@std@@@std@@ABVActionType@2@@Z 100c81a0 f   BOSS:GameState.obj
 0001:000c77c0       ?fastForward@GameState@BOSS@@QAE?AV?$vector@VActionType@BOSS@@V?$allocator@VActionType@BOSS@@@std@@@std@@H@Z 100c87c0 f   BOSS:GameState.obj
 0001:000c7a50       ?whenCanPerform@GameState@BOSS@@QBE?BHABVActionType@2@@Z 100c8a50 f   BOSS:GameState.obj
 0001:000c7f50       ?whenWorkerReady@GameState@BOSS@@ABE?BHABVActionType@2@@Z 100c8f50 f   BOSS:GameState.obj
 0001:000c80d0       ?whenBuildingPrereqReady@GameState@BOSS@@ABE?BHABVActionType@2@@Z 100c90d0 f   BOSS:GameState.obj
 0001:000c82f0       ?whenMineralsReady@GameState@BOSS@@ABE?BHABVActionType@2@@Z 100c92f0 f   BOSS:GameState.obj
 0001:000c8540       ?whenGasReady@GameState@BOSS@@ABE?BHABVActionType@2@@Z 100c9540 f   BOSS:GameState.obj
 0001:000c8790       ?getActionsPerformedString@GameState@BOSS@@QBE?BV?$basic_string@DU?$char_traits@D@std@@V?$allocator@D@2@@std@@XZ 100c9790 f   BOSS:GameState.obj
 0001:000c8980       ??$_Emplace_reallocate@VActionPerformed@BOSS@@@?$vector@VActionPerformed@BOSS@@V?$allocator@VActionPerformed@BOSS@@@std@@@std@@AAEPAVActionPerformed@BOSS@@QAV23@$$QAV23@@Z 100c9980 f i BOSS:GameState.obj
 0001:000c8b60       ??0BuildOrderSearchGoal@BOSS@@QAE@E@Z 100c9b60 f   BOSS:BuildOrderSearchGoal.obj
 0001:000c8c70       ?setGoal@BuildOrderSearchGoal@BOSS@@QAEXABVActionType@2@G@Z 100c9c70 f   BOSS:BuildOrderSearchGoal.obj
 0001:000c8da0       ?isAchievedBy@BuildOrderSearchGoal@BOSS@@QAE_NABVGameState@2@@Z 100c9da0 f   BOSS:BuildOrderSearchGoal.obj
 0001:000c9370       __vsnprintf_l              100ca370 f i BOSS:BOSSAssert.obj
 0001:000c93b0       _vsprintf                  100ca3b0 f i BOSS:BOSSAssert.obj
 0001:000c93d0       ?ReportFailure@Assert@BOSS@@YAXPBVGameState@2@PBD1H1ZZ 100ca3d0 f   BOSS:BOSSAssert.obj
 0001:000c9580       ??0BOSSException@BOSS@@QAE@ABV01@@Z 100ca580 f i BOSS:BOSSAssert.obj
 0001:000c9600       ??_EBOSSException@BOSS@@UAEPAXI@Z 100ca600 f i * CIL library *:* CIL module *
 0001:000c9600       ??_GBOSSException@BOSS@@UAEPAXI@Z 100ca600 f i BOSS:BOSSAssert.obj
 0001:000c9640       ??0DFBB_BuildOrderSearchResults@BOSS@@QAE@XZ 100ca640 f   BOSS:DFBB_BuildOrderSearchResults.obj
 0001:000c96c0       ??0DFBB_BuildOrderSearchParameters@BOSS@@QAE@ABE@Z 100ca6c0 f   BOSS:DFBB_BuildOrderSearchParameters.obj
 0001:000c97e0       ??0?$Vec@G$0EA@@BOSS@@QAE@ABIABG@Z 100ca7e0 f i BOSS:DFBB_BuildOrderSearchParameters.obj
 0001:000c98f0       ??0BuildOrder@BOSS@@QAE@XZ 100ca8f0 f   BOSS:BuildOrder.obj
 0001:000c9a00       ?add@BuildOrder@BOSS@@QAEXABVActionType@2@@Z 100caa00 f   BOSS:BuildOrder.obj
 0001:000c9a80       ?sortByPrerequisites@BuildOrder@BOSS@@QAEXXZ 100caa80 f   BOSS:BuildOrder.obj
 0001:000c9b90       ?getCompletionTime@BuildOrder@BOSS@@QBE?BHABVGameState@2@I@Z 100cab90 f   BOSS:BuildOrder.obj
 0001:000c9cd0       ??0ActionTypeData@BOSS@@AAE@VUnitType@BWAPI@@E@Z 100cacd0 f   BOSS:ActionTypeData.obj
 0001:000c9fb0       ??0ActionTypeData@BOSS@@AAE@VUpgradeType@BWAPI@@E@Z 100cafb0 f   BOSS:ActionTypeData.obj
 0001:000ca1b0       ??0ActionTypeData@BOSS@@AAE@VTechType@BWAPI@@E@Z 100cb1b0 f   BOSS:ActionTypeData.obj
 0001:000ca3a0       ??4PrerequisiteSet@BOSS@@QAEAAV01@ABV01@@Z 100cb3a0 f i BOSS:ActionTypeData.obj
 0001:000ca400       ?setShortName@ActionTypeData@BOSS@@AAEXXZ 100cb400 f   BOSS:ActionTypeData.obj
 0001:000ca5e0       ?AddActions@ActionTypeData@BOSS@@CAXXZ 100cb5e0 f   BOSS:ActionTypeData.obj
 0001:000caf30       ??1ActionTypeData@BOSS@@QAE@XZ 100cbf30 f i BOSS:ActionTypeData.obj
 0001:000caf50       ?GetActionID@ActionTypeData@BOSS@@SAEABVUnitType@BWAPI@@@Z 100cbf50 f   BOSS:ActionTypeData.obj
 0001:000cb040       ?GetActionID@ActionTypeData@BOSS@@SAEABVTechType@BWAPI@@@Z 100cc040 f   BOSS:ActionTypeData.obj
 0001:000cb130       ?GetActionID@ActionTypeData@BOSS@@SAEABVUpgradeType@BWAPI@@@Z 100cc130 f   BOSS:ActionTypeData.obj
 0001:000cb220       ??0ActionTypeData@BOSS@@QAE@ABV01@@Z 100cc220 f i BOSS:ActionTypeData.obj
 0001:000cb440       ?AddPrerequisites@ActionTypeData@BOSS@@CAXXZ 100cc440 f   BOSS:ActionTypeData.obj
 0001:000cb780       ?CalculatePrerequisites@ActionTypeData@BOSS@@CA?AVPrerequisiteSet@2@ABV12@@Z 100cc780 f   BOSS:ActionTypeData.obj
 0001:000cbac0       ??0PrerequisiteSet@BOSS@@QAE@$$QAV01@@Z 100ccac0 f i BOSS:ActionTypeData.obj
 0001:000cbb10       ?CalculateRecursivePrerequisites@ActionTypeData@BOSS@@CAXAAVPrerequisiteSet@2@ABV12@@Z 100ccb10 f   BOSS:ActionTypeData.obj
 0001:000cbd90       ?_Tidy@?$vector@V?$vector@VActionTypeData@BOSS@@V?$allocator@VActionTypeData@BOSS@@@std@@@std@@V?$allocator@V?$vector@VActionTypeData@BOSS@@V?$allocator@VActionTypeData@BOSS@@@std@@@std@@@2@@std@@AAEXXZ 100ccd90 f i BOSS:ActionTypeData.obj
 0001:000cbe10       ??$_Emplace_reallocate@VActionTypeData@BOSS@@@?$vector@VActionTypeData@BOSS@@V?$allocator@VActionTypeData@BOSS@@@std@@@std@@AAEPAVActionTypeData@BOSS@@QAV23@$$QAV23@@Z 100cce10 f i BOSS:ActionTypeData.obj
 0001:000cc100       ??$_Destroy_range@V?$allocator@V?$vector@VActionTypeData@BOSS@@V?$allocator@VActionTypeData@BOSS@@@std@@@std@@@std@@@std@@YAXPAV?$vector@VActionTypeData@BOSS@@V?$allocator@VActionTypeData@BOSS@@@std@@@0@QAV10@AAV?$allocator@V?$vector@VActionTypeData@BOSS@@V?$allocator@VActionTypeData@BOSS@@@std@@@std@@@0@@Z 100cd100 f i BOSS:ActionTypeData.obj
 0001:000cc1a0       ??$construct@VActionTypeData@BOSS@@V12@@?$_Default_allocator_traits@V?$allocator@VActionTypeData@BOSS@@@std@@@std@@SAXAAV?$allocator@VActionTypeData@BOSS@@@1@QAVActionTypeData@BOSS@@$$QAV34@@Z 100cd1a0 f i BOSS:ActionTypeData.obj
 0001:000cc3d0       ??1_Reallocation_guard@?$vector@VActionTypeData@BOSS@@V?$allocator@VActionTypeData@BOSS@@@std@@@std@@QAE@XZ 100cd3d0 f i BOSS:ActionTypeData.obj
 0001:000cc430       ??8?$_List_unchecked_const_iterator@V?$_List_val@U?$_List_simple_types@VUnitType@BWAPI@@@std@@@std@@U_Iterator_base0@2@@std@@QBE_NABV01@@Z 100cd430 f i BOSS:ActionTypeData.obj
 0001:000cc450       ??$_Destroy_range@V?$allocator@VActionTypeData@BOSS@@@std@@@std@@YAXPAVActionTypeData@BOSS@@QAV12@AAV?$allocator@VActionTypeData@BOSS@@@0@@Z 100cd450 f i BOSS:ActionTypeData.obj
 0001:000cc490       ??1?$_Uninitialized_backout_al@V?$allocator@VActionTypeData@BOSS@@@std@@@std@@QAE@XZ 100cd490 f i BOSS:ActionTypeData.obj
 0001:000cc4a0       ?GetLowerBound@Tools@BOSS@@YAHABVGameState@2@ABVBuildOrderSearchGoal@2@@Z 100cd4a0 f   BOSS:Tools.obj
 0001:000cc6d0       ?CalculatePrerequisitesRequiredToBuild@Tools@BOSS@@YAXABVGameState@2@ABVPrerequisiteSet@2@AAV42@@Z 100cd6d0 f   BOSS:Tools.obj
 0001:000cca10       ?CalculatePrerequisitesLowerBound@Tools@BOSS@@YAHABVGameState@2@ABVPrerequisiteSet@2@HH@Z 100cda10 f   BOSS:Tools.obj
 0001:000ccb50       ??0UnitData@BOSS@@QAE@E@Z  100cdb50 f   BOSS:UnitData.obj
 0001:000ccc80       ?addCompletedBuilding@UnitData@BOSS@@QAEXABVActionType@2@H00H@Z 100cdc80 f   BOSS:UnitData.obj
 0001:000cce50       ?addCompletedAction@UnitData@BOSS@@QAEXABVActionType@2@_N@Z 100cde50 f   BOSS:UnitData.obj
 0001:000cd2f0       ?addActionInProgress@UnitData@BOSS@@QAEXABVActionType@2@ABH_N@Z 100ce2f0 f   BOSS:UnitData.obj
 0001:000cd5f0       ?morphUnit@UnitData@BOSS@@QAEXABVActionType@2@0ABH@Z 100ce5f0 f   BOSS:UnitData.obj
 0001:000cd710       ?finishNextActionInProgress@UnitData@BOSS@@QAE?AVActionType@2@XZ 100ce710 f   BOSS:UnitData.obj
 0001:000cda10       ?getNumTotal@UnitData@BOSS@@QBE?BGABVActionType@2@@Z 100cea10 f   BOSS:UnitData.obj
 0001:000cdad0       ?hasPrerequisites@UnitData@BOSS@@QBE?B_NABVPrerequisiteSet@2@@Z 100cead0 f   BOSS:UnitData.obj
 0001:000ce080       ?getSupplyInProgress@UnitData@BOSS@@QBE?BGXZ 100cf080 f   BOSS:UnitData.obj
 0001:000ce180       ?getFinishTime@UnitData@BOSS@@QBE?BHABVPrerequisiteSet@2@@Z 100cf180 f   BOSS:UnitData.obj
 0001:000ce270       ?getFinishTime@UnitData@BOSS@@QBE?BHABVActionType@2@@Z 100cf270 f   BOSS:UnitData.obj
 0001:000ce330       ?getPrerequistesInProgress@UnitData@BOSS@@QBE?BVPrerequisiteSet@2@ABVActionType@2@@Z 100cf330 f   BOSS:UnitData.obj
 0001:000ce510       ?contains@PrerequisiteSet@BOSS@@QBE?B_NABVActionType@2@@Z 100cf510 f   BOSS:PrerequisiteSet.obj
 0001:000ce580       ?add@PrerequisiteSet@BOSS@@QAEXABVActionType@2@G@Z 100cf580 f   BOSS:PrerequisiteSet.obj
 0001:000ce5e0       ?remove@PrerequisiteSet@BOSS@@QAEXABVActionType@2@@Z 100cf5e0 f   BOSS:PrerequisiteSet.obj
 0001:000ce6c0       ?remove@ActionSet@BOSS@@QAEXABVActionType@2@@Z 100cf6c0 f   BOSS:ActionSet.obj
 0001:000ce760       ??0DFBB_BuildOrderStackSearch@BOSS@@QAE@ABVDFBB_BuildOrderSearchParameters@1@@Z 100cf760 f   BOSS:DFBB_BuildOrderStackSearch.obj
 0001:000ceaf0       ?search@DFBB_BuildOrderStackSearch@BOSS@@QAEXXZ 100cfaf0 f   BOSS:DFBB_BuildOrderStackSearch.obj
 0001:000cece0       ?generateLegalActions@DFBB_BuildOrderStackSearch@BOSS@@AAEXABVGameState@2@AAVActionSet@2@@Z 100cfce0 f   BOSS:DFBB_BuildOrderStackSearch.obj
 0001:000cf280       ?getRepetitions@DFBB_BuildOrderStackSearch@BOSS@@AAEGABVGameState@2@ABVActionType@2@@Z 100d0280 f   BOSS:DFBB_BuildOrderStackSearch.obj
 0001:000cf440       ?DFBB@DFBB_BuildOrderStackSearch@BOSS@@QAEXXZ 100d0440 f   BOSS:DFBB_BuildOrderStackSearch.obj
 0001:000cf990       ??1?$_Tidy_guard@V?$vector@VStackData@BOSS@@V?$allocator@VStackData@BOSS@@@std@@@std@@@std@@QAE@XZ 100d0990 f i BOSS:DFBB_BuildOrderStackSearch.obj
 0001:000cf9a0       ??1?$_Uninitialized_backout_al@V?$allocator@VStackData@BOSS@@@std@@@std@@QAE@XZ 100d09a0 f i BOSS:DFBB_BuildOrderStackSearch.obj
 0001:000cf9d0       ?canBuildEventually@BuildingStatus@BOSS@@QBE?B_NABVActionType@2@@Z 100d09d0 f   BOSS:BuildingData.obj
 0001:000cfb40       ?canBuildNow@BuildingStatus@BOSS@@QBE?B_NABVActionType@2@@Z 100d0b40 f   BOSS:BuildingData.obj
 0001:000cfbf0       ?fastForward@BuildingStatus@BOSS@@QAEXH@Z 100d0bf0 f   BOSS:BuildingData.obj
 0001:000cfd60       ?getTimeUntilCanBuild@BuildingData@BOSS@@QBE?BHABVActionType@2@@Z 100d0d60 f   BOSS:BuildingData.obj
 0001:000cfe20       ?canBuildEventually@BuildingData@BOSS@@QBE?B_NABVActionType@2@@Z 100d0e20 f   BOSS:BuildingData.obj
 0001:000cfe90       ?push_back@?$Vec@VBuildingStatus@BOSS@@$0EG@@BOSS@@QAEXABVBuildingStatus@2@@Z 100d0e90 f i BOSS:BuildingData.obj
 0001:000cff20       ??0BOSSException@BOSS@@QAE@V?$basic_string@DU?$char_traits@D@std@@V?$allocator@D@2@@std@@@Z 100d0f20 f   BOSS:BOSSException.obj
 0001:000cffa0       ??1BOSSException@BOSS@@UAE@XZ 100d0fa0 f   BOSS:BOSSException.obj
 0001:000cffd0       ?what@BOSSException@BOSS@@UBEPBDXZ 100d0fd0 f   BOSS:BOSSException.obj
 0001:000cffe0       ?nextBuildingFinishTime@ActionsInProgress@BOSS@@QBEHXZ 100d0fe0 f   BOSS:ActionInProgress.obj
 0001:000d0140       ??$?0AAU?$pair@VUnitType@BWAPI@@H@std@@@?$_Tree_temp_node@V?$allocator@U?$_Tree_node@U?$pair@$$CBVUnitType@BWAPI@@H@std@@PAX@std@@@std@@@std@@QAE@AAV?$allocator@U?$_Tree_node@U?$pair@$$CBVUnitType@BWAPI@@H@std@@PAX@std@@@1@PAU?$_Tree_node@U?$pair@$$CBVUnitType@BWAPI@@H@std@@PAX@1@AAU?$pair@VUnitType@BWAPI@@H@1@@Z 100d1140 f i BWAPILIB:UnitType.obj
 0001:000d0210       ??$?0ABH@?$_List_node_emplace_op2@V?$allocator@U?$_List_node@VTechType@BWAPI@@PAX@std@@@std@@@std@@QAE@AAV?$allocator@U?$_List_node@VTechType@BWAPI@@PAX@std@@@1@ABH@Z 100d1210 f i BWAPILIB:UnitType.obj
 0001:000d0290       ??$?0ABH@?$_List_node_emplace_op2@V?$allocator@U?$_List_node@VUpgradeType@BWAPI@@PAX@std@@@std@@@std@@QAE@AAV?$allocator@U?$_List_node@VUpgradeType@BWAPI@@PAX@std@@@1@ABH@Z 100d1290 f i BWAPILIB:UnitType.obj
 0001:000d0310       ??$?0ABV?$allocator@VBulletType@BWAPI@@@std@@$$V@?$_Compressed_pair@V?$allocator@U?$_List_node@VBulletType@BWAPI@@PAX@std@@@std@@V?$_List_val@U?$_List_simple_types@VBulletType@BWAPI@@@std@@@2@$00@std@@QAE@U_One_then_variadic_args_t@1@ABV?$allocator@VBulletType@BWAPI@@@1@@Z 100d1310 f i BWAPILIB:BulletType.obj
 0001:000d0310       ??$?0ABV?$allocator@VOrder@BWAPI@@@std@@$$V@?$_Compressed_pair@V?$allocator@U?$_List_node@VOrder@BWAPI@@PAX@std@@@std@@V?$_List_val@U?$_List_simple_types@VOrder@BWAPI@@@std@@@2@$00@std@@QAE@U_One_then_variadic_args_t@1@ABV?$allocator@VOrder@BWAPI@@@1@@Z 100d1310 f i BWAPILIB:Order.obj
 0001:000d0310       ??$?0ABV?$allocator@VRace@BWAPI@@@std@@$$V@?$_Compressed_pair@V?$allocator@U?$_List_node@VRace@BWAPI@@PAX@std@@@std@@V?$_List_val@U?$_List_simple_types@VRace@BWAPI@@@std@@@2@$00@std@@QAE@U_One_then_variadic_args_t@1@ABV?$allocator@VRace@BWAPI@@@1@@Z 100d1310 f i BWAPILIB:Race.obj
 0001:000d0310       ??$?0ABV?$allocator@VTechType@BWAPI@@@std@@$$V@?$_Compressed_pair@V?$allocator@U?$_List_node@VTechType@BWAPI@@PAX@std@@@std@@V?$_List_val@U?$_List_simple_types@VTechType@BWAPI@@@std@@@2@$00@std@@QAE@U_One_then_variadic_args_t@1@ABV?$allocator@VTechType@BWAPI@@@1@@Z 100d1310 f i BWAPILIB:UnitType.obj
 0001:000d0310       ??$?0ABV?$allocator@VUnitType@BWAPI@@@std@@$$V@?$_Compressed_pair@V?$allocator@U?$_List_node@VUnitType@BWAPI@@PAX@std@@@std@@V?$_List_val@U?$_List_simple_types@VUnitType@BWAPI@@@std@@@2@$00@std@@QAE@U_One_then_variadic_args_t@1@ABV?$allocator@VUnitType@BWAPI@@@1@@Z 100d1310 f i BWAPILIB:UnitType.obj
 0001:000d0310       ??$?0ABV?$allocator@VUpgradeType@BWAPI@@@std@@$$V@?$_Compressed_pair@V?$allocator@U?$_List_node@VUpgradeType@BWAPI@@PAX@std@@@std@@V?$_List_val@U?$_List_simple_types@VUpgradeType@BWAPI@@@std@@@2@$00@std@@QAE@U_One_then_variadic_args_t@1@ABV?$allocator@VUpgradeType@BWAPI@@@1@@Z 100d1310 f i BWAPILIB:UnitType.obj
 0001:000d0310       ??$?0ABV?$allocator@VWeaponType@BWAPI@@@std@@$$V@?$_Compressed_pair@V?$allocator@U?$_List_node@VWeaponType@BWAPI@@PAX@std@@@std@@V?$_List_val@U?$_List_simple_types@VWeaponType@BWAPI@@@std@@@2@$00@std@@QAE@U_One_then_variadic_args_t@1@ABV?$allocator@VWeaponType@BWAPI@@@1@@Z 100d1310 f i BWAPILIB:WeaponType.obj
 0001:000d0340       ??$?0ABV?$allocator@VBulletType@BWAPI@@@std@@$$V@?$_Compressed_pair@V?$allocator@V?$_List_unchecked_const_iterator@V?$_List_val@U?$_List_simple_types@VBulletType@BWAPI@@@std@@@std@@U_Iterator_base0@2@@std@@@std@@V?$_Vector_val@U?$_Simple_types@V?$_List_unchecked_const_iterator@V?$_List_val@U?$_List_simple_types@VBulletType@BWAPI@@@std@@@std@@U_Iterator_base0@2@@std@@@std@@@2@$00@std@@QAE@U_One_then_variadic_args_t@1@ABV?$allocator@VBulletType@BWAPI@@@1@@Z 100d1340 f i BWAPILIB:BulletType.obj
 0001:000d0340       ??$?0ABV?$allocator@VOrder@BWAPI@@@std@@$$V@?$_Compressed_pair@V?$allocator@V?$_List_unchecked_const_iterator@V?$_List_val@U?$_List_simple_types@VOrder@BWAPI@@@std@@@std@@U_Iterator_base0@2@@std@@@std@@V?$_Vector_val@U?$_Simple_types@V?$_List_unchecked_const_iterator@V?$_List_val@U?$_List_simple_types@VOrder@BWAPI@@@std@@@std@@U_Iterator_base0@2@@std@@@std@@@2@$00@std@@QAE@U_One_then_variadic_args_t@1@ABV?$allocator@VOrder@BWAPI@@@1@@Z 100d1340 f i BWAPILIB:Order.obj
 0001:000d0340       ??$?0ABV?$allocator@VRace@BWAPI@@@std@@$$V@?$_Compressed_pair@V?$allocator@V?$_List_unchecked_const_iterator@V?$_List_val@U?$_List_simple_types@VRace@BWAPI@@@std@@@std@@U_Iterator_base0@2@@std@@@std@@V?$_Vector_val@U?$_Simple_types@V?$_List_unchecked_const_iterator@V?$_List_val@U?$_List_simple_types@VRace@BWAPI@@@std@@@std@@U_Iterator_base0@2@@std@@@std@@@2@$00@std@@QAE@U_One_then_variadic_args_t@1@ABV?$allocator@VRace@BWAPI@@@1@@Z 100d1340 f i BWAPILIB:Race.obj
 0001:000d0340       ??$?0ABV?$allocator@VTechType@BWAPI@@@std@@$$V@?$_Compressed_pair@V?$allocator@V?$_List_unchecked_const_iterator@V?$_List_val@U?$_List_simple_types@VTechType@BWAPI@@@std@@@std@@U_Iterator_base0@2@@std@@@std@@V?$_Vector_val@U?$_Simple_types@V?$_List_unchecked_const_iterator@V?$_List_val@U?$_List_simple_types@VTechType@BWAPI@@@std@@@std@@U_Iterator_base0@2@@std@@@std@@@2@$00@std@@QAE@U_One_then_variadic_args_t@1@ABV?$allocator@VTechType@BWAPI@@@1@@Z 100d1340 f i BWAPILIB:UnitType.obj
 0001:000d0340       ??$?0ABV?$allocator@VUnitType@BWAPI@@@std@@$$V@?$_Compressed_pair@V?$allocator@V?$_List_unchecked_const_iterator@V?$_List_val@U?$_List_simple_types@VUnitType@BWAPI@@@std@@@std@@U_Iterator_base0@2@@std@@@std@@V?$_Vector_val@U?$_Simple_types@V?$_List_unchecked_const_iterator@V?$_List_val@U?$_List_simple_types@VUnitType@BWAPI@@@std@@@std@@U_Iterator_base0@2@@std@@@std@@@2@$00@std@@QAE@U_One_then_variadic_args_t@1@ABV?$allocator@VUnitType@BWAPI@@@1@@Z 100d1340 f i BWAPILIB:UnitType.obj
 0001:000d0340       ??$?0ABV?$allocator@VUpgradeType@BWAPI@@@std@@$$V@?$_Compressed_pair@V?$allocator@V?$_List_unchecked_const_iterator@V?$_List_val@U?$_List_simple_types@VUpgradeType@BWAPI@@@std@@@std@@U_Iterator_base0@2@@std@@@std@@V?$_Vector_val@U?$_Simple_types@V?$_List_unchecked_const_iterator@V?$_List_val@U?$_List_simple_types@VUpgradeType@BWAPI@@@std@@@std@@U_Iterator_base0@2@@std@@@std@@@2@$00@std@@QAE@U_One_then_variadic_args_t@1@ABV?$allocator@VUpgradeType@BWAPI@@@1@@Z 100d1340 f i BWAPILIB:UnitType.obj
 0001:000d0340       ??$?0ABV?$allocator@VWeaponType@BWAPI@@@std@@$$V@?$_Compressed_pair@V?$allocator@V?$_List_unchecked_const_iterator@V?$_List_val@U?$_List_simple_types@VWeaponType@BWAPI@@@std@@@std@@U_Iterator_base0@2@@std@@@std@@V?$_Vector_val@U?$_Simple_types@V?$_List_unchecked_const_iterator@V?$_List_val@U?$_List_simple_types@VWeaponType@BWAPI@@@std@@@std@@U_Iterator_base0@2@@std@@@std@@@2@$00@std@@QAE@U_One_then_variadic_args_t@1@ABV?$allocator@VWeaponType@BWAPI@@@1@@Z 100d1340 f i BWAPILIB:WeaponType.obj
 0001:000d0370       ??$?0ABV?$allocator@VBulletType@BWAPI@@@std@@$0A@@?$_Hash_vec@V?$allocator@V?$_List_unchecked_const_iterator@V?$_List_val@U?$_List_simple_types@VBulletType@BWAPI@@@std@@@std@@U_Iterator_base0@2@@std@@@std@@@std@@QAE@ABV?$allocator@VBulletType@BWAPI@@@1@@Z 100d1370 f i BWAPILIB:BulletType.obj
 0001:000d0370       ??$?0ABV?$allocator@VOrder@BWAPI@@@std@@$0A@@?$_Hash_vec@V?$allocator@V?$_List_unchecked_const_iterator@V?$_List_val@U?$_List_simple_types@VOrder@BWAPI@@@std@@@std@@U_Iterator_base0@2@@std@@@std@@@std@@QAE@ABV?$allocator@VOrder@BWAPI@@@1@@Z 100d1370 f i BWAPILIB:Order.obj
 0001:000d0370       ??$?0ABV?$allocator@VRace@BWAPI@@@std@@$0A@@?$_Hash_vec@V?$allocator@V?$_List_unchecked_const_iterator@V?$_List_val@U?$_List_simple_types@VRace@BWAPI@@@std@@@std@@U_Iterator_base0@2@@std@@@std@@@std@@QAE@ABV?$allocator@VRace@BWAPI@@@1@@Z 100d1370 f i BWAPILIB:Race.obj
 0001:000d0370       ??$?0ABV?$allocator@VTechType@BWAPI@@@std@@$0A@@?$_Hash_vec@V?$allocator@V?$_List_unchecked_const_iterator@V?$_List_val@U?$_List_simple_types@VTechType@BWAPI@@@std@@@std@@U_Iterator_base0@2@@std@@@std@@@std@@QAE@ABV?$allocator@VTechType@BWAPI@@@1@@Z 100d1370 f i BWAPILIB:UnitType.obj
 0001:000d0370       ??$?0ABV?$allocator@VUnitType@BWAPI@@@std@@$0A@@?$_Hash_vec@V?$allocator@V?$_List_unchecked_const_iterator@V?$_List_val@U?$_List_simple_types@VUnitType@BWAPI@@@std@@@std@@U_Iterator_base0@2@@std@@@std@@@std@@QAE@ABV?$allocator@VUnitType@BWAPI@@@1@@Z 100d1370 f i BWAPILIB:UnitType.obj
 0001:000d0370       ??$?0ABV?$allocator@VUpgradeType@BWAPI@@@std@@$0A@@?$_Hash_vec@V?$allocator@V?$_List_unchecked_const_iterator@V?$_List_val@U?$_List_simple_types@VUpgradeType@BWAPI@@@std@@@std@@U_Iterator_base0@2@@std@@@std@@@std@@QAE@ABV?$allocator@VUpgradeType@BWAPI@@@1@@Z 100d1370 f i BWAPILIB:UnitType.obj
 0001:000d0370       ??$?0ABV?$allocator@VWeaponType@BWAPI@@@std@@$0A@@?$_Hash_vec@V?$allocator@V?$_List_unchecked_const_iterator@V?$_List_val@U?$_List_simple_types@VWeaponType@BWAPI@@@std@@@std@@U_Iterator_base0@2@@std@@@std@@@std@@QAE@ABV?$allocator@VWeaponType@BWAPI@@@1@@Z 100d1370 f i BWAPILIB:WeaponType.obj
 0001:000d03b0       ??$?0ABVBulletType@BWAPI@@@?$_List_node_emplace_op2@V?$allocator@U?$_List_node@VBulletType@BWAPI@@PAX@std@@@std@@@std@@QAE@AAV?$allocator@U?$_List_node@VBulletType@BWAPI@@PAX@std@@@1@ABVBulletType@BWAPI@@@Z 100d13b0 f i BWAPILIB:BulletType.obj
 0001:000d03b0       ??$?0ABVOrder@BWAPI@@@?$_List_node_emplace_op2@V?$allocator@U?$_List_node@VOrder@BWAPI@@PAX@std@@@std@@@std@@QAE@AAV?$allocator@U?$_List_node@VOrder@BWAPI@@PAX@std@@@1@ABVOrder@BWAPI@@@Z 100d13b0 f i BWAPILIB:Order.obj
 0001:000d03b0       ??$?0ABVRace@BWAPI@@@?$_List_node_emplace_op2@V?$allocator@U?$_List_node@VRace@BWAPI@@PAX@std@@@std@@@std@@QAE@AAV?$allocator@U?$_List_node@VRace@BWAPI@@PAX@std@@@1@ABVRace@BWAPI@@@Z 100d13b0 f i BWAPILIB:Race.obj
 0001:000d03b0       ??$?0ABVTechType@BWAPI@@@?$_List_node_emplace_op2@V?$allocator@U?$_List_node@VTechType@BWAPI@@PAX@std@@@std@@@std@@QAE@AAV?$allocator@U?$_List_node@VTechType@BWAPI@@PAX@std@@@1@ABVTechType@BWAPI@@@Z 100d13b0 f i BWAPILIB:UnitType.obj
 0001:000d03b0       ??$?0ABVUnitType@BWAPI@@@?$_List_node_emplace_op2@V?$allocator@U?$_List_node@VUnitType@BWAPI@@PAX@std@@@std@@@std@@QAE@AAV?$allocator@U?$_List_node@VUnitType@BWAPI@@PAX@std@@@1@ABVUnitType@BWAPI@@@Z 100d13b0 f i BWAPILIB:UnitType.obj
 0001:000d03b0       ??$?0ABVUpgradeType@BWAPI@@@?$_List_node_emplace_op2@V?$allocator@U?$_List_node@VUpgradeType@BWAPI@@PAX@std@@@std@@@std@@QAE@AAV?$allocator@U?$_List_node@VUpgradeType@BWAPI@@PAX@std@@@1@ABVUpgradeType@BWAPI@@@Z 100d13b0 f i BWAPILIB:UnitType.obj
 0001:000d03b0       ??$?0ABVWeaponType@BWAPI@@@?$_List_node_emplace_op2@V?$allocator@U?$_List_node@VWeaponType@BWAPI@@PAX@std@@@std@@@std@@QAE@AAV?$allocator@U?$_List_node@VWeaponType@BWAPI@@PAX@std@@@1@ABVWeaponType@BWAPI@@@Z 100d13b0 f i BWAPILIB:WeaponType.obj
 0001:000d0430       ??$?0M@?$_Compressed_pair@U?$equal_to@VBulletType@BWAPI@@@std@@M$00@std@@QAE@U_Zero_then_variadic_args_t@1@$$QAM@Z 100d1430 f i BWAPILIB:BulletType.obj
 0001:000d0430       ??$?0M@?$_Compressed_pair@U?$equal_to@VOrder@BWAPI@@@std@@M$00@std@@QAE@U_Zero_then_variadic_args_t@1@$$QAM@Z 100d1430 f i BWAPILIB:Order.obj
 0001:000d0430       ??$?0M@?$_Compressed_pair@U?$equal_to@VRace@BWAPI@@@std@@M$00@std@@QAE@U_Zero_then_variadic_args_t@1@$$QAM@Z 100d1430 f i BWAPILIB:Race.obj
 0001:000d0430       ??$?0M@?$_Compressed_pair@U?$equal_to@VTechType@BWAPI@@@std@@M$00@std@@QAE@U_Zero_then_variadic_args_t@1@$$QAM@Z 100d1430 f i BWAPILIB:UnitType.obj
 0001:000d0430       ??$?0M@?$_Compressed_pair@U?$equal_to@VUnitType@BWAPI@@@std@@M$00@std@@QAE@U_Zero_then_variadic_args_t@1@$$QAM@Z 100d1430 f i BWAPILIB:UnitType.obj
 0001:000d0430       ??$?0M@?$_Compressed_pair@U?$equal_to@VUpgradeType@BWAPI@@@std@@M$00@std@@QAE@U_Zero_then_variadic_args_t@1@$$QAM@Z 100d1430 f i BWAPILIB:UnitType.obj
 0001:000d0430       ??$?0M@?$_Compressed_pair@U?$equal_to@VWeaponType@BWAPI@@@std@@M$00@std@@QAE@U_Zero_then_variadic_args_t@1@$$QAM@Z 100d1430 f i BWAPILIB:WeaponType.obj
 0001:000d0460       ??$?0PBH@?$SetContainer@VTechType@BWAPI@@U?$hash@H@std@@@BWAPI@@QAE@PBH0@Z 100d1460 f i BWAPILIB:UnitType.obj
 0001:000d0490       ??$?0PBH@?$SetContainer@VUpgradeType@BWAPI@@U?$hash@H@std@@@BWAPI@@QAE@PBH0@Z 100d1490 f i BWAPILIB:UnitType.obj
 0001:000d04c0       ??$?0PBH@?$unordered_set@VTechType@BWAPI@@U?$hash@H@std@@U?$equal_to@VTechType@BWAPI@@@4@V?$allocator@VTechType@BWAPI@@@4@@std@@QAE@PBH0@Z 100d14c0 f i BWAPILIB:UnitType.obj
 0001:000d0530       ??$?0PBH@?$unordered_set@VUpgradeType@BWAPI@@U?$hash@H@std@@U?$equal_to@VUpgradeType@BWAPI@@@4@V?$allocator@VUpgradeType@BWAPI@@@4@@std@@QAE@PBH0@Z 100d1530 f i BWAPILIB:UnitType.obj
 0001:000d05a0       ??$?0U_Zero_then_variadic_args_t@std@@M@?$_Compressed_pair@U?$hash@H@std@@V?$_Compressed_pair@U?$equal_to@VBulletType@BWAPI@@@std@@M$00@2@$00@std@@QAE@U_Zero_then_variadic_args_t@1@$$QAU21@$$QAM@Z 100d15a0 f i BWAPILIB:BulletType.obj
 0001:000d05a0       ??$?0U_Zero_then_variadic_args_t@std@@M@?$_Compressed_pair@U?$hash@H@std@@V?$_Compressed_pair@U?$equal_to@VOrder@BWAPI@@@std@@M$00@2@$00@std@@QAE@U_Zero_then_variadic_args_t@1@$$QAU21@$$QAM@Z 100d15a0 f i BWAPILIB:Order.obj
 0001:000d05a0       ??$?0U_Zero_then_variadic_args_t@std@@M@?$_Compressed_pair@U?$hash@H@std@@V?$_Compressed_pair@U?$equal_to@VRace@BWAPI@@@std@@M$00@2@$00@std@@QAE@U_Zero_then_variadic_args_t@1@$$QAU21@$$QAM@Z 100d15a0 f i BWAPILIB:Race.obj
 0001:000d05a0       ??$?0U_Zero_then_variadic_args_t@std@@M@?$_Compressed_pair@U?$hash@H@std@@V?$_Compressed_pair@U?$equal_to@VTechType@BWAPI@@@std@@M$00@2@$00@std@@QAE@U_Zero_then_variadic_args_t@1@$$QAU21@$$QAM@Z 100d15a0 f i BWAPILIB:UnitType.obj
 0001:000d05a0       ??$?0U_Zero_then_variadic_args_t@std@@M@?$_Compressed_pair@U?$hash@H@std@@V?$_Compressed_pair@U?$equal_to@VUnitType@BWAPI@@@std@@M$00@2@$00@std@@QAE@U_Zero_then_variadic_args_t@1@$$QAU21@$$QAM@Z 100d15a0 f i BWAPILIB:UnitType.obj
 0001:000d05a0       ??$?0U_Zero_then_variadic_args_t@std@@M@?$_Compressed_pair@U?$hash@H@std@@V?$_Compressed_pair@U?$equal_to@VUpgradeType@BWAPI@@@std@@M$00@2@$00@std@@QAE@U_Zero_then_variadic_args_t@1@$$QAU21@$$QAM@Z 100d15a0 f i BWAPILIB:UnitType.obj
 0001:000d05a0       ??$?0U_Zero_then_variadic_args_t@std@@M@?$_Compressed_pair@U?$hash@H@std@@V?$_Compressed_pair@U?$equal_to@VWeaponType@BWAPI@@@std@@M$00@2@$00@std@@QAE@U_Zero_then_variadic_args_t@1@$$QAU21@$$QAM@Z 100d15a0 f i BWAPILIB:WeaponType.obj
 0001:000d05e0       ??$?0V?$_List_iterator@V?$_List_val@U?$_List_simple_types@VBulletType@BWAPI@@@std@@@std@@@std@@_N$0A@@?$pair@V?$_List_const_iterator@V?$_List_val@U?$_List_simple_types@VBulletType@BWAPI@@@std@@@std@@@std@@_N@std@@QAE@$$QAV?$_List_iterator@V?$_List_val@U?$_List_simple_types@VBulletType@BWAPI@@@std@@@std@@@1@$$QA_N@Z 100d15e0 f i BWAPILIB:BulletType.obj
 0001:000d05e0       ??$?0V?$_List_iterator@V?$_List_val@U?$_List_simple_types@VOrder@BWAPI@@@std@@@std@@@std@@_N$0A@@?$pair@V?$_List_const_iterator@V?$_List_val@U?$_List_simple_types@VOrder@BWAPI@@@std@@@std@@@std@@_N@std@@QAE@$$QAV?$_List_iterator@V?$_List_val@U?$_List_simple_types@VOrder@BWAPI@@@std@@@std@@@1@$$QA_N@Z 100d15e0 f i BWAPILIB:Order.obj
 0001:000d05e0       ??$?0V?$_List_iterator@V?$_List_val@U?$_List_simple_types@VRace@BWAPI@@@std@@@std@@@std@@_N$0A@@?$pair@V?$_List_const_iterator@V?$_List_val@U?$_List_simple_types@VRace@BWAPI@@@std@@@std@@@std@@_N@std@@QAE@$$QAV?$_List_iterator@V?$_List_val@U?$_List_simple_types@VRace@BWAPI@@@std@@@std@@@1@$$QA_N@Z 100d15e0 f i BWAPILIB:Race.obj
 0001:000d05e0       ??$?0V?$_List_iterator@V?$_List_val@U?$_List_simple_types@VTechType@BWAPI@@@std@@@std@@@std@@_N$0A@@?$pair@V?$_List_const_iterator@V?$_List_val@U?$_List_simple_types@VTechType@BWAPI@@@std@@@std@@@std@@_N@std@@QAE@$$QAV?$_List_iterator@V?$_List_val@U?$_List_simple_types@VTechType@BWAPI@@@std@@@std@@@1@$$QA_N@Z 100d15e0 f i BWAPILIB:UnitType.obj
 0001:000d05e0       ??$?0V?$_List_iterator@V?$_List_val@U?$_List_simple_types@VUnitType@BWAPI@@@std@@@std@@@std@@_N$0A@@?$pair@V?$_List_const_iterator@V?$_List_val@U?$_List_simple_types@VUnitType@BWAPI@@@std@@@std@@@std@@_N@std@@QAE@$$QAV?$_List_iterator@V?$_List_val@U?$_List_simple_types@VUnitType@BWAPI@@@std@@@std@@@1@$$QA_N@Z 100d15e0 f i BWAPILIB:UnitType.obj
 0001:000d05e0       ??$?0V?$_List_iterator@V?$_List_val@U?$_List_simple_types@VUpgradeType@BWAPI@@@std@@@std@@@std@@_N$0A@@?$pair@V?$_List_const_iterator@V?$_List_val@U?$_List_simple_types@VUpgradeType@BWAPI@@@std@@@std@@@std@@_N@std@@QAE@$$QAV?$_List_iterator@V?$_List_val@U?$_List_simple_types@VUpgradeType@BWAPI@@@std@@@std@@@1@$$QA_N@Z 100d15e0 f i BWAPILIB:UnitType.obj
 0001:000d05e0       ??$?0V?$_List_iterator@V?$_List_val@U?$_List_simple_types@VWeaponType@BWAPI@@@std@@@std@@@std@@_N$0A@@?$pair@V?$_List_const_iterator@V?$_List_val@U?$_List_simple_types@VWeaponType@BWAPI@@@std@@@std@@@std@@_N@std@@QAE@$$QAV?$_List_iterator@V?$_List_val@U?$_List_simple_types@VWeaponType@BWAPI@@@std@@@std@@@1@$$QA_N@Z 100d15e0 f i BWAPILIB:WeaponType.obj
 0001:000d0620       ??$?0V?$allocator@V?$map@VUnitType@BWAPI@@HU?$less@VUnitType@BWAPI@@@std@@V?$allocator@U?$pair@$$CBVUnitType@BWAPI@@H@std@@@4@@std@@@std@@PAV?$map@VUnitType@BWAPI@@HU?$less@VUnitType@BWAPI@@@std@@V?$allocator@U?$pair@$$CBVUnitType@BWAPI@@H@std@@@4@@1@PAV21@PAV21@@?$_Compressed_pair@V?$allocator@V?$map@VUnitType@BWAPI@@HU?$less@VUnitType@BWAPI@@@std@@V?$allocator@U?$pair@$$CBVUnitType@BWAPI@@H@std@@@4@@std@@@std@@V?$_Vector_val@U?$_Simple_types@V?$map@VUnitType@BWAPI@@HU?$less@VUnitType@BWAPI@@@std@@V?$allocator@U?$pair@$$CBVUnitType@BWAPI@@H@std@@@4@@std@@@std@@@2@$00@std@@QAE@U_One_then_variadic_args_t@1@$$QAV?$allocator@V?$map@VUnitType@BWAPI@@HU?$less@VUnitType@BWAPI@@@std@@V?$allocator@U?$pair@$$CBVUnitType@BWAPI@@H@std@@@4@@std@@@1@$$QAPAV?$map@VUnitType@BWAPI@@HU?$less@VUnitType@BWAPI@@@std@@V?$allocator@U?$pair@$$CBVUnitType@BWAPI@@H@std@@@4@@1@22@Z 100d1620 f i BWAPILIB:UnitType.obj
 0001:000d0680       ??$?0VBulletType@BWAPI@@@?$allocator@U?$_List_node@VBulletType@BWAPI@@PAX@std@@@std@@QAE@ABV?$allocator@VBulletType@BWAPI@@@1@@Z 100d1680 f i BWAPILIB:BulletType.obj
 0001:000d0680       ??$?0VBulletType@BWAPI@@@?$allocator@V?$_List_unchecked_const_iterator@V?$_List_val@U?$_List_simple_types@VBulletType@BWAPI@@@std@@@std@@U_Iterator_base0@2@@std@@@std@@QAE@ABV?$allocator@VBulletType@BWAPI@@@1@@Z 100d1680 f i BWAPILIB:BulletType.obj
 0001:000d0680       ??$?0VOrder@BWAPI@@@?$allocator@U?$_List_node@VOrder@BWAPI@@PAX@std@@@std@@QAE@ABV?$allocator@VOrder@BWAPI@@@1@@Z 100d1680 f i BWAPILIB:Order.obj
 0001:000d0680       ??$?0VOrder@BWAPI@@@?$allocator@V?$_List_unchecked_const_iterator@V?$_List_val@U?$_List_simple_types@VOrder@BWAPI@@@std@@@std@@U_Iterator_base0@2@@std@@@std@@QAE@ABV?$allocator@VOrder@BWAPI@@@1@@Z 100d1680 f i BWAPILIB:Order.obj
 0001:000d0680       ??$?0VRace@BWAPI@@@?$allocator@U?$_List_node@VRace@BWAPI@@PAX@std@@@std@@QAE@ABV?$allocator@VRace@BWAPI@@@1@@Z 100d1680 f i BWAPILIB:Race.obj
 0001:000d0680       ??$?0VRace@BWAPI@@@?$allocator@V?$_List_unchecked_const_iterator@V?$_List_val@U?$_List_simple_types@VRace@BWAPI@@@std@@@std@@U_Iterator_base0@2@@std@@@std@@QAE@ABV?$allocator@VRace@BWAPI@@@1@@Z 100d1680 f i BWAPILIB:Race.obj
 0001:000d0680       ??$?0VTechType@BWAPI@@@?$allocator@U?$_List_node@VTechType@BWAPI@@PAX@std@@@std@@QAE@ABV?$allocator@VTechType@BWAPI@@@1@@Z 100d1680 f i BWAPILIB:UnitType.obj
 0001:000d0680       ??$?0VTechType@BWAPI@@@?$allocator@V?$_List_unchecked_const_iterator@V?$_List_val@U?$_List_simple_types@VTechType@BWAPI@@@std@@@std@@U_Iterator_base0@2@@std@@@std@@QAE@ABV?$allocator@VTechType@BWAPI@@@1@@Z 100d1680 f i BWAPILIB:UnitType.obj
 0001:000d0680       ??$?0VUnitType@BWAPI@@@?$allocator@U?$_List_node@VUnitType@BWAPI@@PAX@std@@@std@@QAE@ABV?$allocator@VUnitType@BWAPI@@@1@@Z 100d1680 f i BWAPILIB:UnitType.obj
 0001:000d0680       ??$?0VUnitType@BWAPI@@@?$allocator@V?$_List_unchecked_const_iterator@V?$_List_val@U?$_List_simple_types@VUnitType@BWAPI@@@std@@@std@@U_Iterator_base0@2@@std@@@std@@QAE@ABV?$allocator@VUnitType@BWAPI@@@1@@Z 100d1680 f i BWAPILIB:UnitType.obj
 0001:000d0680       ??$?0VUpgradeType@BWAPI@@@?$allocator@U?$_List_node@VUpgradeType@BWAPI@@PAX@std@@@std@@QAE@ABV?$allocator@VUpgradeType@BWAPI@@@1@@Z 100d1680 f i BWAPILIB:UnitType.obj
 0001:000d0680       ??$?0VUpgradeType@BWAPI@@@?$allocator@V?$_List_unchecked_const_iterator@V?$_List_val@U?$_List_simple_types@VUpgradeType@BWAPI@@@std@@@std@@U_Iterator_base0@2@@std@@@std@@QAE@ABV?$allocator@VUpgradeType@BWAPI@@@1@@Z 100d1680 f i BWAPILIB:UnitType.obj
 0001:000d0680       ??$?0VWeaponType@BWAPI@@@?$allocator@U?$_List_node@VWeaponType@BWAPI@@PAX@std@@@std@@QAE@ABV?$allocator@VWeaponType@BWAPI@@@1@@Z 100d1680 f i BWAPILIB:WeaponType.obj
 0001:000d0680       ??$?0VWeaponType@BWAPI@@@?$allocator@V?$_List_unchecked_const_iterator@V?$_List_val@U?$_List_simple_types@VWeaponType@BWAPI@@@std@@@std@@U_Iterator_base0@2@@std@@@std@@QAE@ABV?$allocator@VWeaponType@BWAPI@@@1@@Z 100d1680 f i BWAPILIB:WeaponType.obj
 0001:000d0690       ??$?0VUnitType@BWAPI@@H$0A@@?$pair@$$CBVUnitType@BWAPI@@H@std@@QAE@ABU?$pair@VUnitType@BWAPI@@H@1@@Z 100d1690 f i BWAPILIB:UnitType.obj
 0001:000d06c0       ??$?RVBulletType@BWAPI@@@?$_Uhash_compare@VBulletType@BWAPI@@U?$hash@H@std@@U?$equal_to@VBulletType@BWAPI@@@4@@std@@QBEIABVBulletType@BWAPI@@@Z 100d16c0 f i BWAPILIB:BulletType.obj
 0001:000d06c0       ??$?RVOrder@BWAPI@@@?$_Uhash_compare@VOrder@BWAPI@@U?$hash@H@std@@U?$equal_to@VOrder@BWAPI@@@4@@std@@QBEIABVOrder@BWAPI@@@Z 100d16c0 f i BWAPILIB:Order.obj
 0001:000d06c0       ??$?RVRace@BWAPI@@@?$_Uhash_compare@VRace@BWAPI@@U?$hash@H@std@@U?$equal_to@VRace@BWAPI@@@4@@std@@QBEIABVRace@BWAPI@@@Z 100d16c0 f i BWAPILIB:Race.obj
 0001:000d06c0       ??$?RVTechType@BWAPI@@@?$_Uhash_compare@VTechType@BWAPI@@U?$hash@H@std@@U?$equal_to@VTechType@BWAPI@@@4@@std@@QBEIABVTechType@BWAPI@@@Z 100d16c0 f i BWAPILIB:UnitType.obj
 0001:000d06c0       ??$?RVUnitType@BWAPI@@@?$_Uhash_compare@VUnitType@BWAPI@@U?$hash@H@std@@U?$equal_to@VUnitType@BWAPI@@@4@@std@@QBEIABVUnitType@BWAPI@@@Z 100d16c0 f i BWAPILIB:UnitType.obj
 0001:000d06c0       ??$?RVUpgradeType@BWAPI@@@?$_Uhash_compare@VUpgradeType@BWAPI@@U?$hash@H@std@@U?$equal_to@VUpgradeType@BWAPI@@@4@@std@@QBEIABVUpgradeType@BWAPI@@@Z 100d16c0 f i BWAPILIB:UnitType.obj
 0001:000d06c0       ??$?RVWeaponType@BWAPI@@@?$_Uhash_compare@VWeaponType@BWAPI@@U?$hash@H@std@@U?$equal_to@VWeaponType@BWAPI@@@4@@std@@QBEIABVWeaponType@BWAPI@@@Z 100d16c0 f i BWAPILIB:WeaponType.obj
 0001:000d06f0       ??$?RVBulletType@BWAPI@@V01@@?$_Uhash_compare@VBulletType@BWAPI@@U?$hash@H@std@@U?$equal_to@VBulletType@BWAPI@@@4@@std@@QBE_NABVBulletType@BWAPI@@0@Z 100d16f0 f i BWAPILIB:BulletType.obj
 0001:000d06f0       ??$?RVOrder@BWAPI@@V01@@?$_Uhash_compare@VOrder@BWAPI@@U?$hash@H@std@@U?$equal_to@VOrder@BWAPI@@@4@@std@@QBE_NABVOrder@BWAPI@@0@Z 100d16f0 f i BWAPILIB:Order.obj
 0001:000d06f0       ??$?RVRace@BWAPI@@V01@@?$_Uhash_compare@VRace@BWAPI@@U?$hash@H@std@@U?$equal_to@VRace@BWAPI@@@4@@std@@QBE_NABVRace@BWAPI@@0@Z 100d16f0 f i BWAPILIB:Race.obj
 0001:000d06f0       ??$?RVTechType@BWAPI@@V01@@?$_Uhash_compare@VTechType@BWAPI@@U?$hash@H@std@@U?$equal_to@VTechType@BWAPI@@@4@@std@@QBE_NABVTechType@BWAPI@@0@Z 100d16f0 f i BWAPILIB:UnitType.obj
 0001:000d06f0       ??$?RVUnitType@BWAPI@@V01@@?$_Uhash_compare@VUnitType@BWAPI@@U?$hash@H@std@@U?$equal_to@VUnitType@BWAPI@@@4@@std@@QBE_NABVUnitType@BWAPI@@0@Z 100d16f0 f i BWAPILIB:UnitType.obj
 0001:000d06f0       ??$?RVUpgradeType@BWAPI@@V01@@?$_Uhash_compare@VUpgradeType@BWAPI@@U?$hash@H@std@@U?$equal_to@VUpgradeType@BWAPI@@@4@@std@@QBE_NABVUpgradeType@BWAPI@@0@Z 100d16f0 f i BWAPILIB:UnitType.obj
 0001:000d06f0       ??$?RVWeaponType@BWAPI@@V01@@?$_Uhash_compare@VWeaponType@BWAPI@@U?$hash@H@std@@U?$equal_to@VWeaponType@BWAPI@@@4@@std@@QBE_NABVWeaponType@BWAPI@@0@Z 100d16f0 f i BWAPILIB:WeaponType.obj
 0001:000d0740       ??$_Adl_verify_range@PAV?$_List_unchecked_const_iterator@V?$_List_val@U?$_List_simple_types@VBulletType@BWAPI@@@std@@@std@@U_Iterator_base0@2@@std@@PAV12@@std@@YAXABQAV?$_List_unchecked_const_iterator@V?$_List_val@U?$_List_simple_types@VBulletType@BWAPI@@@std@@@std@@U_Iterator_base0@2@@0@0@Z 100d1740 f i BWAPILIB:BulletType.obj
 0001:000d0740       ??$_Adl_verify_range@PAV?$_List_unchecked_const_iterator@V?$_List_val@U?$_List_simple_types@VOrder@BWAPI@@@std@@@std@@U_Iterator_base0@2@@std@@PAV12@@std@@YAXABQAV?$_List_unchecked_const_iterator@V?$_List_val@U?$_List_simple_types@VOrder@BWAPI@@@std@@@std@@U_Iterator_base0@2@@0@0@Z 100d1740 f i BWAPILIB:Order.obj
 0001:000d0740       ??$_Adl_verify_range@PAV?$_List_unchecked_const_iterator@V?$_List_val@U?$_List_simple_types@VRace@BWAPI@@@std@@@std@@U_Iterator_base0@2@@std@@PAV12@@std@@YAXABQAV?$_List_unchecked_const_iterator@V?$_List_val@U?$_List_simple_types@VRace@BWAPI@@@std@@@std@@U_Iterator_base0@2@@0@0@Z 100d1740 f i BWAPILIB:Race.obj
 0001:000d0740       ??$_Adl_verify_range@PAV?$_List_unchecked_const_iterator@V?$_List_val@U?$_List_simple_types@VTechType@BWAPI@@@std@@@std@@U_Iterator_base0@2@@std@@PAV12@@std@@YAXABQAV?$_List_unchecked_const_iterator@V?$_List_val@U?$_List_simple_types@VTechType@BWAPI@@@std@@@std@@U_Iterator_base0@2@@0@0@Z 100d1740 f i BWAPILIB:UnitType.obj
 0001:000d0740       ??$_Adl_verify_range@PAV?$_List_unchecked_const_iterator@V?$_List_val@U?$_List_simple_types@VUnitType@BWAPI@@@std@@@std@@U_Iterator_base0@2@@std@@PAV12@@std@@YAXABQAV?$_List_unchecked_const_iterator@V?$_List_val@U?$_List_simple_types@VUnitType@BWAPI@@@std@@@std@@U_Iterator_base0@2@@0@0@Z 100d1740 f i BWAPILIB:UnitType.obj
 0001:000d0740       ??$_Adl_verify_range@PAV?$_List_unchecked_const_iterator@V?$_List_val@U?$_List_simple_types@VUpgradeType@BWAPI@@@std@@@std@@U_Iterator_base0@2@@std@@PAV12@@std@@YAXABQAV?$_List_unchecked_const_iterator@V?$_List_val@U?$_List_simple_types@VUpgradeType@BWAPI@@@std@@@std@@U_Iterator_base0@2@@0@0@Z 100d1740 f i BWAPILIB:UnitType.obj
 0001:000d0740       ??$_Adl_verify_range@PAV?$_List_unchecked_const_iterator@V?$_List_val@U?$_List_simple_types@VWeaponType@BWAPI@@@std@@@std@@U_Iterator_base0@2@@std@@PAV12@@std@@YAXABQAV?$_List_unchecked_const_iterator@V?$_List_val@U?$_List_simple_types@VWeaponType@BWAPI@@@std@@@std@@U_Iterator_base0@2@@0@0@Z 100d1740 f i BWAPILIB:WeaponType.obj
 0001:000d0740       ??$_Adl_verify_range@PBHPBH@std@@YAXABQBH0@Z 100d1740 f i BWAPILIB:UnitType.obj
 0001:000d0740       ??$_Adl_verify_range@V?$_List_const_iterator@V?$_List_val@U?$_List_simple_types@VWeaponType@BWAPI@@@std@@@std@@@std@@V12@@std@@YAXABV?$_List_const_iterator@V?$_List_val@U?$_List_simple_types@VWeaponType@BWAPI@@@std@@@std@@@0@0@Z 100d1740 f i BWAPILIB:WeaponType.obj
 0001:000d0740       ??$_Destroy_in_place@PAU?$_List_node@VBulletType@BWAPI@@PAX@std@@@std@@YAXAAPAU?$_List_node@VBulletType@BWAPI@@PAX@0@@Z 100d1740 f i BWAPILIB:BulletType.obj
 0001:000d0740       ??$_Destroy_in_place@PAU?$_List_node@VOrder@BWAPI@@PAX@std@@@std@@YAXAAPAU?$_List_node@VOrder@BWAPI@@PAX@0@@Z 100d1740 f i BWAPILIB:Order.obj
 0001:000d0740       ??$_Destroy_in_place@PAU?$_List_node@VRace@BWAPI@@PAX@std@@@std@@YAXAAPAU?$_List_node@VRace@BWAPI@@PAX@0@@Z 100d1740 f i BWAPILIB:Race.obj
 0001:000d0740       ??$_Destroy_in_place@PAU?$_List_node@VTechType@BWAPI@@PAX@std@@@std@@YAXAAPAU?$_List_node@VTechType@BWAPI@@PAX@0@@Z 100d1740 f i BWAPILIB:UnitType.obj
 0001:000d0740       ??$_Destroy_in_place@PAU?$_List_node@VUnitType@BWAPI@@PAX@std@@@std@@YAXAAPAU?$_List_node@VUnitType@BWAPI@@PAX@0@@Z 100d1740 f i BWAPILIB:UnitType.obj
 0001:000d0740       ??$_Destroy_in_place@PAU?$_List_node@VUpgradeType@BWAPI@@PAX@std@@@std@@YAXAAPAU?$_List_node@VUpgradeType@BWAPI@@PAX@0@@Z 100d1740 f i BWAPILIB:UnitType.obj
 0001:000d0740       ??$_Destroy_in_place@PAU?$_List_node@VWeaponType@BWAPI@@PAX@std@@@std@@YAXAAPAU?$_List_node@VWeaponType@BWAPI@@PAX@0@@Z 100d1740 f i BWAPILIB:WeaponType.obj
 0001:000d0740       ??$_Destroy_range@PAV?$_List_unchecked_const_iterator@V?$_List_val@U?$_List_simple_types@VBulletType@BWAPI@@@std@@@std@@U_Iterator_base0@2@@std@@PAV12@@std@@YAXPAV?$_List_unchecked_const_iterator@V?$_List_val@U?$_List_simple_types@VBulletType@BWAPI@@@std@@@std@@U_Iterator_base0@2@@0@QAV10@@Z 100d1740 f i BWAPILIB:BulletType.obj
 0001:000d0740       ??$_Destroy_range@PAV?$_List_unchecked_const_iterator@V?$_List_val@U?$_List_simple_types@VOrder@BWAPI@@@std@@@std@@U_Iterator_base0@2@@std@@PAV12@@std@@YAXPAV?$_List_unchecked_const_iterator@V?$_List_val@U?$_List_simple_types@VOrder@BWAPI@@@std@@@std@@U_Iterator_base0@2@@0@QAV10@@Z 100d1740 f i BWAPILIB:Order.obj
 0001:000d0740       ??$_Destroy_range@PAV?$_List_unchecked_const_iterator@V?$_List_val@U?$_List_simple_types@VRace@BWAPI@@@std@@@std@@U_Iterator_base0@2@@std@@PAV12@@std@@YAXPAV?$_List_unchecked_const_iterator@V?$_List_val@U?$_List_simple_types@VRace@BWAPI@@@std@@@std@@U_Iterator_base0@2@@0@QAV10@@Z 100d1740 f i BWAPILIB:Race.obj
 0001:000d0740       ??$_Destroy_range@PAV?$_List_unchecked_const_iterator@V?$_List_val@U?$_List_simple_types@VTechType@BWAPI@@@std@@@std@@U_Iterator_base0@2@@std@@PAV12@@std@@YAXPAV?$_List_unchecked_const_iterator@V?$_List_val@U?$_List_simple_types@VTechType@BWAPI@@@std@@@std@@U_Iterator_base0@2@@0@QAV10@@Z 100d1740 f i BWAPILIB:UnitType.obj
 0001:000d0740       ??$_Destroy_range@PAV?$_List_unchecked_const_iterator@V?$_List_val@U?$_List_simple_types@VUnitType@BWAPI@@@std@@@std@@U_Iterator_base0@2@@std@@PAV12@@std@@YAXPAV?$_List_unchecked_const_iterator@V?$_List_val@U?$_List_simple_types@VUnitType@BWAPI@@@std@@@std@@U_Iterator_base0@2@@0@QAV10@@Z 100d1740 f i BWAPILIB:UnitType.obj
 0001:000d0740       ??$_Destroy_range@PAV?$_List_unchecked_const_iterator@V?$_List_val@U?$_List_simple_types@VUpgradeType@BWAPI@@@std@@@std@@U_Iterator_base0@2@@std@@PAV12@@std@@YAXPAV?$_List_unchecked_const_iterator@V?$_List_val@U?$_List_simple_types@VUpgradeType@BWAPI@@@std@@@std@@U_Iterator_base0@2@@0@QAV10@@Z 100d1740 f i BWAPILIB:UnitType.obj
 0001:000d0740       ??$_Destroy_range@PAV?$_List_unchecked_const_iterator@V?$_List_val@U?$_List_simple_types@VWeaponType@BWAPI@@@std@@@std@@U_Iterator_base0@2@@std@@PAV12@@std@@YAXPAV?$_List_unchecked_const_iterator@V?$_List_val@U?$_List_simple_types@VWeaponType@BWAPI@@@std@@@std@@U_Iterator_base0@2@@0@QAV10@@Z 100d1740 f i BWAPILIB:WeaponType.obj
 0001:000d0740       ??$destroy@VBulletType@BWAPI@@@?$_Default_allocator_traits@V?$allocator@U?$_List_node@VBulletType@BWAPI@@PAX@std@@@std@@@std@@SAXAAV?$allocator@U?$_List_node@VBulletType@BWAPI@@PAX@std@@@1@QAVBulletType@BWAPI@@@Z 100d1740 f i BWAPILIB:BulletType.obj
 0001:000d0740       ??$destroy@VOrder@BWAPI@@@?$_Default_allocator_traits@V?$allocator@U?$_List_node@VOrder@BWAPI@@PAX@std@@@std@@@std@@SAXAAV?$allocator@U?$_List_node@VOrder@BWAPI@@PAX@std@@@1@QAVOrder@BWAPI@@@Z 100d1740 f i BWAPILIB:Order.obj
 0001:000d0740       ??$destroy@VRace@BWAPI@@@?$_Default_allocator_traits@V?$allocator@U?$_List_node@VRace@BWAPI@@PAX@std@@@std@@@std@@SAXAAV?$allocator@U?$_List_node@VRace@BWAPI@@PAX@std@@@1@QAVRace@BWAPI@@@Z 100d1740 f i BWAPILIB:Race.obj
 0001:000d0740       ??$destroy@VTechType@BWAPI@@@?$_Default_allocator_traits@V?$allocator@U?$_List_node@VTechType@BWAPI@@PAX@std@@@std@@@std@@SAXAAV?$allocator@U?$_List_node@VTechType@BWAPI@@PAX@std@@@1@QAVTechType@BWAPI@@@Z 100d1740 f i BWAPILIB:UnitType.obj
 0001:000d0740       ??$destroy@VUnitType@BWAPI@@@?$_Default_allocator_traits@V?$allocator@U?$_List_node@VUnitType@BWAPI@@PAX@std@@@std@@@std@@SAXAAV?$allocator@U?$_List_node@VUnitType@BWAPI@@PAX@std@@@1@QAVUnitType@BWAPI@@@Z 100d1740 f i BWAPILIB:UnitType.obj
 0001:000d0740       ??$destroy@VUpgradeType@BWAPI@@@?$_Default_allocator_traits@V?$allocator@U?$_List_node@VUpgradeType@BWAPI@@PAX@std@@@std@@@std@@SAXAAV?$allocator@U?$_List_node@VUpgradeType@BWAPI@@PAX@std@@@1@QAVUpgradeType@BWAPI@@@Z 100d1740 f i BWAPILIB:UnitType.obj
 0001:000d0740       ??$destroy@VWeaponType@BWAPI@@@?$_Default_allocator_traits@V?$allocator@U?$_List_node@VWeaponType@BWAPI@@PAX@std@@@std@@@std@@SAXAAV?$allocator@U?$_List_node@VWeaponType@BWAPI@@PAX@std@@@1@QAVWeaponType@BWAPI@@@Z 100d1740 f i BWAPILIB:WeaponType.obj
 0001:000d0750       ??$_Construct_in_place@PAU?$_List_node@VBulletType@BWAPI@@PAX@std@@AAPAU12@@std@@YAXAAPAU?$_List_node@VBulletType@BWAPI@@PAX@0@0@Z 100d1750 f i BWAPILIB:BulletType.obj
 0001:000d0750       ??$_Construct_in_place@PAU?$_List_node@VBulletType@BWAPI@@PAX@std@@ABQAU12@@std@@YAXAAPAU?$_List_node@VBulletType@BWAPI@@PAX@0@ABQAU10@@Z 100d1750 f i BWAPILIB:BulletType.obj
 0001:000d0750       ??$_Construct_in_place@PAU?$_List_node@VOrder@BWAPI@@PAX@std@@AAPAU12@@std@@YAXAAPAU?$_List_node@VOrder@BWAPI@@PAX@0@0@Z 100d1750 f i BWAPILIB:Order.obj
 0001:000d0750       ??$_Construct_in_place@PAU?$_List_node@VOrder@BWAPI@@PAX@std@@ABQAU12@@std@@YAXAAPAU?$_List_node@VOrder@BWAPI@@PAX@0@ABQAU10@@Z 100d1750 f i BWAPILIB:Order.obj
 0001:000d0750       ??$_Construct_in_place@PAU?$_List_node@VRace@BWAPI@@PAX@std@@AAPAU12@@std@@YAXAAPAU?$_List_node@VRace@BWAPI@@PAX@0@0@Z 100d1750 f i BWAPILIB:Race.obj
 0001:000d0750       ??$_Construct_in_place@PAU?$_List_node@VRace@BWAPI@@PAX@std@@ABQAU12@@std@@YAXAAPAU?$_List_node@VRace@BWAPI@@PAX@0@ABQAU10@@Z 100d1750 f i BWAPILIB:Race.obj
 0001:000d0750       ??$_Construct_in_place@PAU?$_List_node@VTechType@BWAPI@@PAX@std@@AAPAU12@@std@@YAXAAPAU?$_List_node@VTechType@BWAPI@@PAX@0@0@Z 100d1750 f i BWAPILIB:UnitType.obj
 0001:000d0750       ??$_Construct_in_place@PAU?$_List_node@VTechType@BWAPI@@PAX@std@@ABQAU12@@std@@YAXAAPAU?$_List_node@VTechType@BWAPI@@PAX@0@ABQAU10@@Z 100d1750 f i BWAPILIB:UnitType.obj
 0001:000d0750       ??$_Construct_in_place@PAU?$_List_node@VUnitType@BWAPI@@PAX@std@@AAPAU12@@std@@YAXAAPAU?$_List_node@VUnitType@BWAPI@@PAX@0@0@Z 100d1750 f i BWAPILIB:UnitType.obj
 0001:000d0750       ??$_Construct_in_place@PAU?$_List_node@VUnitType@BWAPI@@PAX@std@@ABQAU12@@std@@YAXAAPAU?$_List_node@VUnitType@BWAPI@@PAX@0@ABQAU10@@Z 100d1750 f i BWAPILIB:UnitType.obj
 0001:000d0750       ??$_Construct_in_place@PAU?$_List_node@VUpgradeType@BWAPI@@PAX@std@@AAPAU12@@std@@YAXAAPAU?$_List_node@VUpgradeType@BWAPI@@PAX@0@0@Z 100d1750 f i BWAPILIB:UnitType.obj
 0001:000d0750       ??$_Construct_in_place@PAU?$_List_node@VUpgradeType@BWAPI@@PAX@std@@ABQAU12@@std@@YAXAAPAU?$_List_node@VUpgradeType@BWAPI@@PAX@0@ABQAU10@@Z 100d1750 f i BWAPILIB:UnitType.obj
 0001:000d0750       ??$_Construct_in_place@PAU?$_List_node@VWeaponType@BWAPI@@PAX@std@@AAPAU12@@std@@YAXAAPAU?$_List_node@VWeaponType@BWAPI@@PAX@0@0@Z 100d1750 f i BWAPILIB:WeaponType.obj
 0001:000d0750       ??$_Construct_in_place@PAU?$_List_node@VWeaponType@BWAPI@@PAX@std@@ABQAU12@@std@@YAXAAPAU?$_List_node@VWeaponType@BWAPI@@PAX@0@ABQAU10@@Z 100d1750 f i BWAPILIB:WeaponType.obj
 0001:000d0790       ??$_Construct_in_place@V?$_List_unchecked_const_iterator@V?$_List_val@U?$_List_simple_types@VBulletType@BWAPI@@@std@@@std@@U_Iterator_base0@2@@std@@ABV12@@std@@YAXAAV?$_List_unchecked_const_iterator@V?$_List_val@U?$_List_simple_types@VBulletType@BWAPI@@@std@@@std@@U_Iterator_base0@2@@0@ABV10@@Z 100d1790 f i BWAPILIB:BulletType.obj
 0001:000d0790       ??$_Construct_in_place@V?$_List_unchecked_const_iterator@V?$_List_val@U?$_List_simple_types@VOrder@BWAPI@@@std@@@std@@U_Iterator_base0@2@@std@@ABV12@@std@@YAXAAV?$_List_unchecked_const_iterator@V?$_List_val@U?$_List_simple_types@VOrder@BWAPI@@@std@@@std@@U_Iterator_base0@2@@0@ABV10@@Z 100d1790 f i BWAPILIB:Order.obj
 0001:000d0790       ??$_Construct_in_place@V?$_List_unchecked_const_iterator@V?$_List_val@U?$_List_simple_types@VRace@BWAPI@@@std@@@std@@U_Iterator_base0@2@@std@@ABV12@@std@@YAXAAV?$_List_unchecked_const_iterator@V?$_List_val@U?$_List_simple_types@VRace@BWAPI@@@std@@@std@@U_Iterator_base0@2@@0@ABV10@@Z 100d1790 f i BWAPILIB:Race.obj
 0001:000d0790       ??$_Construct_in_place@V?$_List_unchecked_const_iterator@V?$_List_val@U?$_List_simple_types@VTechType@BWAPI@@@std@@@std@@U_Iterator_base0@2@@std@@ABV12@@std@@YAXAAV?$_List_unchecked_const_iterator@V?$_List_val@U?$_List_simple_types@VTechType@BWAPI@@@std@@@std@@U_Iterator_base0@2@@0@ABV10@@Z 100d1790 f i BWAPILIB:UnitType.obj
 0001:000d0790       ??$_Construct_in_place@V?$_List_unchecked_const_iterator@V?$_List_val@U?$_List_simple_types@VUnitType@BWAPI@@@std@@@std@@U_Iterator_base0@2@@std@@ABV12@@std@@YAXAAV?$_List_unchecked_const_iterator@V?$_List_val@U?$_List_simple_types@VUnitType@BWAPI@@@std@@@std@@U_Iterator_base0@2@@0@ABV10@@Z 100d1790 f i BWAPILIB:UnitType.obj
 0001:000d0790       ??$_Construct_in_place@V?$_List_unchecked_const_iterator@V?$_List_val@U?$_List_simple_types@VUpgradeType@BWAPI@@@std@@@std@@U_Iterator_base0@2@@std@@ABV12@@std@@YAXAAV?$_List_unchecked_const_iterator@V?$_List_val@U?$_List_simple_types@VUpgradeType@BWAPI@@@std@@@std@@U_Iterator_base0@2@@0@ABV10@@Z 100d1790 f i BWAPILIB:UnitType.obj
 0001:000d0790       ??$_Construct_in_place@V?$_List_unchecked_const_iterator@V?$_List_val@U?$_List_simple_types@VWeaponType@BWAPI@@@std@@@std@@U_Iterator_base0@2@@std@@ABV12@@std@@YAXAAV?$_List_unchecked_const_iterator@V?$_List_val@U?$_List_simple_types@VWeaponType@BWAPI@@@std@@@std@@U_Iterator_base0@2@@0@ABV10@@Z 100d1790 f i BWAPILIB:WeaponType.obj
 0001:000d07d0       ??$_Emplace@AAU?$pair@VUnitType@BWAPI@@H@std@@@?$_Tree@V?$_Tmap_traits@VUnitType@BWAPI@@HU?$less@VUnitType@BWAPI@@@std@@V?$allocator@U?$pair@$$CBVUnitType@BWAPI@@H@std@@@4@$0A@@std@@@std@@IAE?AU?$pair@PAU?$_Tree_node@U?$pair@$$CBVUnitType@BWAPI@@H@std@@PAX@std@@_N@1@AAU?$pair@VUnitType@BWAPI@@H@1@@Z 100d17d0 f i BWAPILIB:UnitType.obj
 0001:000d08c0       ??$_Emplace_back@$$V@?$_Uninitialized_backout_al@V?$allocator@V?$map@VUnitType@BWAPI@@HU?$less@VUnitType@BWAPI@@@std@@V?$allocator@U?$pair@$$CBVUnitType@BWAPI@@H@std@@@4@@std@@@std@@@std@@QAEXXZ 100d18c0 f i BWAPILIB:UnitType.obj
 0001:000d0900       ??$_Emplace_back@ABV?$_List_unchecked_const_iterator@V?$_List_val@U?$_List_simple_types@VBulletType@BWAPI@@@std@@@std@@U_Iterator_base0@2@@std@@@?$_Uninitialized_backout@PAV?$_List_unchecked_const_iterator@V?$_List_val@U?$_List_simple_types@VBulletType@BWAPI@@@std@@@std@@U_Iterator_base0@2@@std@@@std@@QAEXABV?$_List_unchecked_const_iterator@V?$_List_val@U?$_List_simple_types@VBulletType@BWAPI@@@std@@@std@@U_Iterator_base0@2@@1@@Z 100d1900 f i BWAPILIB:BulletType.obj
 0001:000d0900       ??$_Emplace_back@ABV?$_List_unchecked_const_iterator@V?$_List_val@U?$_List_simple_types@VOrder@BWAPI@@@std@@@std@@U_Iterator_base0@2@@std@@@?$_Uninitialized_backout@PAV?$_List_unchecked_const_iterator@V?$_List_val@U?$_List_simple_types@VOrder@BWAPI@@@std@@@std@@U_Iterator_base0@2@@std@@@std@@QAEXABV?$_List_unchecked_const_iterator@V?$_List_val@U?$_List_simple_types@VOrder@BWAPI@@@std@@@std@@U_Iterator_base0@2@@1@@Z 100d1900 f i BWAPILIB:Order.obj
 0001:000d0900       ??$_Emplace_back@ABV?$_List_unchecked_const_iterator@V?$_List_val@U?$_List_simple_types@VRace@BWAPI@@@std@@@std@@U_Iterator_base0@2@@std@@@?$_Uninitialized_backout@PAV?$_List_unchecked_const_iterator@V?$_List_val@U?$_List_simple_types@VRace@BWAPI@@@std@@@std@@U_Iterator_base0@2@@std@@@std@@QAEXABV?$_List_unchecked_const_iterator@V?$_List_val@U?$_List_simple_types@VRace@BWAPI@@@std@@@std@@U_Iterator_base0@2@@1@@Z 100d1900 f i BWAPILIB:Race.obj
 0001:000d0900       ??$_Emplace_back@ABV?$_List_unchecked_const_iterator@V?$_List_val@U?$_List_simple_types@VTechType@BWAPI@@@std@@@std@@U_Iterator_base0@2@@std@@@?$_Uninitialized_backout@PAV?$_List_unchecked_const_iterator@V?$_List_val@U?$_List_simple_types@VTechType@BWAPI@@@std@@@std@@U_Iterator_base0@2@@std@@@std@@QAEXABV?$_List_unchecked_const_iterator@V?$_List_val@U?$_List_simple_types@VTechType@BWAPI@@@std@@@std@@U_Iterator_base0@2@@1@@Z 100d1900 f i BWAPILIB:UnitType.obj
 0001:000d0900       ??$_Emplace_back@ABV?$_List_unchecked_const_iterator@V?$_List_val@U?$_List_simple_types@VUnitType@BWAPI@@@std@@@std@@U_Iterator_base0@2@@std@@@?$_Uninitialized_backout@PAV?$_List_unchecked_const_iterator@V?$_List_val@U?$_List_simple_types@VUnitType@BWAPI@@@std@@@std@@U_Iterator_base0@2@@std@@@std@@QAEXABV?$_List_unchecked_const_iterator@V?$_List_val@U?$_List_simple_types@VUnitType@BWAPI@@@std@@@std@@U_Iterator_base0@2@@1@@Z 100d1900 f i BWAPILIB:UnitType.obj
 0001:000d0900       ??$_Emplace_back@ABV?$_List_unchecked_const_iterator@V?$_List_val@U?$_List_simple_types@VUpgradeType@BWAPI@@@std@@@std@@U_Iterator_base0@2@@std@@@?$_Uninitialized_backout@PAV?$_List_unchecked_const_iterator@V?$_List_val@U?$_List_simple_types@VUpgradeType@BWAPI@@@std@@@std@@U_Iterator_base0@2@@std@@@std@@QAEXABV?$_List_unchecked_const_iterator@V?$_List_val@U?$_List_simple_types@VUpgradeType@BWAPI@@@std@@@std@@U_Iterator_base0@2@@1@@Z 100d1900 f i BWAPILIB:UnitType.obj
 0001:000d0900       ??$_Emplace_back@ABV?$_List_unchecked_const_iterator@V?$_List_val@U?$_List_simple_types@VWeaponType@BWAPI@@@std@@@std@@U_Iterator_base0@2@@std@@@?$_Uninitialized_backout@PAV?$_List_unchecked_const_iterator@V?$_List_val@U?$_List_simple_types@VWeaponType@BWAPI@@@std@@@std@@U_Iterator_base0@2@@std@@@std@@QAEXABV?$_List_unchecked_const_iterator@V?$_List_val@U?$_List_simple_types@VWeaponType@BWAPI@@@std@@@std@@U_Iterator_base0@2@@1@@Z 100d1900 f i BWAPILIB:WeaponType.obj
 0001:000d0940       ??$_Find_last@VBulletType@BWAPI@@@?$_Hash@V?$_Uset_traits@VBulletType@BWAPI@@V?$_Uhash_compare@VBulletType@BWAPI@@U?$hash@H@std@@U?$equal_to@VBulletType@BWAPI@@@4@@std@@V?$allocator@VBulletType@BWAPI@@@4@$0A@@std@@@std@@IBE?AU?$_Hash_find_last_result@PAU?$_List_node@VBulletType@BWAPI@@PAX@std@@@1@ABVBulletType@BWAPI@@I@Z 100d1940 f i BWAPILIB:BulletType.obj
 0001:000d0940       ??$_Find_last@VOrder@BWAPI@@@?$_Hash@V?$_Uset_traits@VOrder@BWAPI@@V?$_Uhash_compare@VOrder@BWAPI@@U?$hash@H@std@@U?$equal_to@VOrder@BWAPI@@@4@@std@@V?$allocator@VOrder@BWAPI@@@4@$0A@@std@@@std@@IBE?AU?$_Hash_find_last_result@PAU?$_List_node@VOrder@BWAPI@@PAX@std@@@1@ABVOrder@BWAPI@@I@Z 100d1940 f i BWAPILIB:Order.obj
 0001:000d0940       ??$_Find_last@VRace@BWAPI@@@?$_Hash@V?$_Uset_traits@VRace@BWAPI@@V?$_Uhash_compare@VRace@BWAPI@@U?$hash@H@std@@U?$equal_to@VRace@BWAPI@@@4@@std@@V?$allocator@VRace@BWAPI@@@4@$0A@@std@@@std@@IBE?AU?$_Hash_find_last_result@PAU?$_List_node@VRace@BWAPI@@PAX@std@@@1@ABVRace@BWAPI@@I@Z 100d1940 f i BWAPILIB:Race.obj
 0001:000d0940       ??$_Find_last@VTechType@BWAPI@@@?$_Hash@V?$_Uset_traits@VTechType@BWAPI@@V?$_Uhash_compare@VTechType@BWAPI@@U?$hash@H@std@@U?$equal_to@VTechType@BWAPI@@@4@@std@@V?$allocator@VTechType@BWAPI@@@4@$0A@@std@@@std@@IBE?AU?$_Hash_find_last_result@PAU?$_List_node@VTechType@BWAPI@@PAX@std@@@1@ABVTechType@BWAPI@@I@Z 100d1940 f i BWAPILIB:UnitType.obj
 0001:000d0940       ??$_Find_last@VUnitType@BWAPI@@@?$_Hash@V?$_Uset_traits@VUnitType@BWAPI@@V?$_Uhash_compare@VUnitType@BWAPI@@U?$hash@H@std@@U?$equal_to@VUnitType@BWAPI@@@4@@std@@V?$allocator@VUnitType@BWAPI@@@4@$0A@@std@@@std@@IBE?AU?$_Hash_find_last_result@PAU?$_List_node@VUnitType@BWAPI@@PAX@std@@@1@ABVUnitType@BWAPI@@I@Z 100d1940 f i BWAPILIB:UnitType.obj
 0001:000d0940       ??$_Find_last@VUpgradeType@BWAPI@@@?$_Hash@V?$_Uset_traits@VUpgradeType@BWAPI@@V?$_Uhash_compare@VUpgradeType@BWAPI@@U?$hash@H@std@@U?$equal_to@VUpgradeType@BWAPI@@@4@@std@@V?$allocator@VUpgradeType@BWAPI@@@4@$0A@@std@@@std@@IBE?AU?$_Hash_find_last_result@PAU?$_List_node@VUpgradeType@BWAPI@@PAX@std@@@1@ABVUpgradeType@BWAPI@@I@Z 100d1940 f i BWAPILIB:UnitType.obj
 0001:000d0940       ??$_Find_last@VWeaponType@BWAPI@@@?$_Hash@V?$_Uset_traits@VWeaponType@BWAPI@@V?$_Uhash_compare@VWeaponType@BWAPI@@U?$hash@H@std@@U?$equal_to@VWeaponType@BWAPI@@@4@@std@@V?$allocator@VWeaponType@BWAPI@@@4@$0A@@std@@@std@@IBE?AU?$_Hash_find_last_result@PAU?$_List_node@VWeaponType@BWAPI@@PAX@std@@@1@ABVWeaponType@BWAPI@@I@Z 100d1940 f i BWAPILIB:WeaponType.obj
 0001:000d0a10       ??$_Fnv1a_append_value@H@std@@YAIIABH@Z 100d1a10 f i BWAPILIB:UnitType.obj
 0001:000d0a30       ??$_Free_non_head@V?$allocator@U?$_List_node@VBulletType@BWAPI@@PAX@std@@@std@@@?$_List_node@VBulletType@BWAPI@@PAX@std@@SAXAAV?$allocator@U?$_List_node@VBulletType@BWAPI@@PAX@std@@@1@PAU01@@Z 100d1a30 f i BWAPILIB:BulletType.obj
 0001:000d0a30       ??$_Free_non_head@V?$allocator@U?$_List_node@VOrder@BWAPI@@PAX@std@@@std@@@?$_List_node@VOrder@BWAPI@@PAX@std@@SAXAAV?$allocator@U?$_List_node@VOrder@BWAPI@@PAX@std@@@1@PAU01@@Z 100d1a30 f i BWAPILIB:Order.obj
 0001:000d0a30       ??$_Free_non_head@V?$allocator@U?$_List_node@VRace@BWAPI@@PAX@std@@@std@@@?$_List_node@VRace@BWAPI@@PAX@std@@SAXAAV?$allocator@U?$_List_node@VRace@BWAPI@@PAX@std@@@1@PAU01@@Z 100d1a30 f i BWAPILIB:Race.obj
 0001:000d0a30       ??$_Free_non_head@V?$allocator@U?$_List_node@VTechType@BWAPI@@PAX@std@@@std@@@?$_List_node@VTechType@BWAPI@@PAX@std@@SAXAAV?$allocator@U?$_List_node@VTechType@BWAPI@@PAX@std@@@1@PAU01@@Z 100d1a30 f i BWAPILIB:UnitType.obj
 0001:000d0a30       ??$_Free_non_head@V?$allocator@U?$_List_node@VUnitType@BWAPI@@PAX@std@@@std@@@?$_List_node@VUnitType@BWAPI@@PAX@std@@SAXAAV?$allocator@U?$_List_node@VUnitType@BWAPI@@PAX@std@@@1@PAU01@@Z 100d1a30 f i BWAPILIB:UnitType.obj
 0001:000d0a30       ??$_Free_non_head@V?$allocator@U?$_List_node@VUpgradeType@BWAPI@@PAX@std@@@std@@@?$_List_node@VUpgradeType@BWAPI@@PAX@std@@SAXAAV?$allocator@U?$_List_node@VUpgradeType@BWAPI@@PAX@std@@@1@PAU01@@Z 100d1a30 f i BWAPILIB:UnitType.obj
 0001:000d0a30       ??$_Free_non_head@V?$allocator@U?$_List_node@VWeaponType@BWAPI@@PAX@std@@@std@@@?$_List_node@VWeaponType@BWAPI@@PAX@std@@SAXAAV?$allocator@U?$_List_node@VWeaponType@BWAPI@@PAX@std@@@1@PAU01@@Z 100d1a30 f i BWAPILIB:WeaponType.obj
 0001:000d0a80       ??$_Freenode0@V?$allocator@U?$_List_node@VBulletType@BWAPI@@PAX@std@@@std@@@?$_List_node@VBulletType@BWAPI@@PAX@std@@SAXAAV?$allocator@U?$_List_node@VBulletType@BWAPI@@PAX@std@@@1@PAU01@@Z 100d1a80 f i BWAPILIB:BulletType.obj
 0001:000d0a80       ??$_Freenode0@V?$allocator@U?$_List_node@VOrder@BWAPI@@PAX@std@@@std@@@?$_List_node@VOrder@BWAPI@@PAX@std@@SAXAAV?$allocator@U?$_List_node@VOrder@BWAPI@@PAX@std@@@1@PAU01@@Z 100d1a80 f i BWAPILIB:Order.obj
 0001:000d0a80       ??$_Freenode0@V?$allocator@U?$_List_node@VRace@BWAPI@@PAX@std@@@std@@@?$_List_node@VRace@BWAPI@@PAX@std@@SAXAAV?$allocator@U?$_List_node@VRace@BWAPI@@PAX@std@@@1@PAU01@@Z 100d1a80 f i BWAPILIB:Race.obj
 0001:000d0a80       ??$_Freenode0@V?$allocator@U?$_List_node@VTechType@BWAPI@@PAX@std@@@std@@@?$_List_node@VTechType@BWAPI@@PAX@std@@SAXAAV?$allocator@U?$_List_node@VTechType@BWAPI@@PAX@std@@@1@PAU01@@Z 100d1a80 f i BWAPILIB:UnitType.obj
 0001:000d0a80       ??$_Freenode0@V?$allocator@U?$_List_node@VUnitType@BWAPI@@PAX@std@@@std@@@?$_List_node@VUnitType@BWAPI@@PAX@std@@SAXAAV?$allocator@U?$_List_node@VUnitType@BWAPI@@PAX@std@@@1@PAU01@@Z 100d1a80 f i BWAPILIB:UnitType.obj
 0001:000d0a80       ??$_Freenode0@V?$allocator@U?$_List_node@VUpgradeType@BWAPI@@PAX@std@@@std@@@?$_List_node@VUpgradeType@BWAPI@@PAX@std@@SAXAAV?$allocator@U?$_List_node@VUpgradeType@BWAPI@@PAX@std@@@1@PAU01@@Z 100d1a80 f i BWAPILIB:UnitType.obj
 0001:000d0a80       ??$_Freenode0@V?$allocator@U?$_List_node@VWeaponType@BWAPI@@PAX@std@@@std@@@?$_List_node@VWeaponType@BWAPI@@PAX@std@@SAXAAV?$allocator@U?$_List_node@VWeaponType@BWAPI@@PAX@std@@@1@PAU01@@Z 100d1a80 f i BWAPILIB:WeaponType.obj
 0001:000d0ac0       ??$_Freenode@V?$allocator@U?$_List_node@VBulletType@BWAPI@@PAX@std@@@std@@@?$_List_node@VBulletType@BWAPI@@PAX@std@@SAXAAV?$allocator@U?$_List_node@VBulletType@BWAPI@@PAX@std@@@1@PAU01@@Z 100d1ac0 f i BWAPILIB:BulletType.obj
 0001:000d0ac0       ??$_Freenode@V?$allocator@U?$_List_node@VOrder@BWAPI@@PAX@std@@@std@@@?$_List_node@VOrder@BWAPI@@PAX@std@@SAXAAV?$allocator@U?$_List_node@VOrder@BWAPI@@PAX@std@@@1@PAU01@@Z 100d1ac0 f i BWAPILIB:Order.obj
 0001:000d0ac0       ??$_Freenode@V?$allocator@U?$_List_node@VRace@BWAPI@@PAX@std@@@std@@@?$_List_node@VRace@BWAPI@@PAX@std@@SAXAAV?$allocator@U?$_List_node@VRace@BWAPI@@PAX@std@@@1@PAU01@@Z 100d1ac0 f i BWAPILIB:Race.obj
 0001:000d0ac0       ??$_Freenode@V?$allocator@U?$_List_node@VTechType@BWAPI@@PAX@std@@@std@@@?$_List_node@VTechType@BWAPI@@PAX@std@@SAXAAV?$allocator@U?$_List_node@VTechType@BWAPI@@PAX@std@@@1@PAU01@@Z 100d1ac0 f i BWAPILIB:UnitType.obj
 0001:000d0ac0       ??$_Freenode@V?$allocator@U?$_List_node@VUnitType@BWAPI@@PAX@std@@@std@@@?$_List_node@VUnitType@BWAPI@@PAX@std@@SAXAAV?$allocator@U?$_List_node@VUnitType@BWAPI@@PAX@std@@@1@PAU01@@Z 100d1ac0 f i BWAPILIB:UnitType.obj
 0001:000d0ac0       ??$_Freenode@V?$allocator@U?$_List_node@VUpgradeType@BWAPI@@PAX@std@@@std@@@?$_List_node@VUpgradeType@BWAPI@@PAX@std@@SAXAAV?$allocator@U?$_List_node@VUpgradeType@BWAPI@@PAX@std@@@1@PAU01@@Z 100d1ac0 f i BWAPILIB:UnitType.obj
 0001:000d0ac0       ??$_Freenode@V?$allocator@U?$_List_node@VWeaponType@BWAPI@@PAX@std@@@std@@@?$_List_node@VWeaponType@BWAPI@@PAX@std@@SAXAAV?$allocator@U?$_List_node@VWeaponType@BWAPI@@PAX@std@@@1@PAU01@@Z 100d1ac0 f i BWAPILIB:WeaponType.obj
 0001:000d0b20       ??$_Get_unwrapped@AAPBH@std@@YA?A_TAAPBH@Z 100d1b20 f i BWAPILIB:UnitType.obj
 0001:000d0b20       ??$_Get_unwrapped@ABQAV?$_List_unchecked_const_iterator@V?$_List_val@U?$_List_simple_types@VBulletType@BWAPI@@@std@@@std@@U_Iterator_base0@2@@std@@@std@@YA?A_TABQAV?$_List_unchecked_const_iterator@V?$_List_val@U?$_List_simple_types@VBulletType@BWAPI@@@std@@@std@@U_Iterator_base0@2@@0@@Z 100d1b20 f i BWAPILIB:BulletType.obj
 0001:000d0b20       ??$_Get_unwrapped@ABQAV?$_List_unchecked_const_iterator@V?$_List_val@U?$_List_simple_types@VOrder@BWAPI@@@std@@@std@@U_Iterator_base0@2@@std@@@std@@YA?A_TABQAV?$_List_unchecked_const_iterator@V?$_List_val@U?$_List_simple_types@VOrder@BWAPI@@@std@@@std@@U_Iterator_base0@2@@0@@Z 100d1b20 f i BWAPILIB:Order.obj
 0001:000d0b20       ??$_Get_unwrapped@ABQAV?$_List_unchecked_const_iterator@V?$_List_val@U?$_List_simple_types@VRace@BWAPI@@@std@@@std@@U_Iterator_base0@2@@std@@@std@@YA?A_TABQAV?$_List_unchecked_const_iterator@V?$_List_val@U?$_List_simple_types@VRace@BWAPI@@@std@@@std@@U_Iterator_base0@2@@0@@Z 100d1b20 f i BWAPILIB:Race.obj
 0001:000d0b20       ??$_Get_unwrapped@ABQAV?$_List_unchecked_const_iterator@V?$_List_val@U?$_List_simple_types@VTechType@BWAPI@@@std@@@std@@U_Iterator_base0@2@@std@@@std@@YA?A_TABQAV?$_List_unchecked_const_iterator@V?$_List_val@U?$_List_simple_types@VTechType@BWAPI@@@std@@@std@@U_Iterator_base0@2@@0@@Z 100d1b20 f i BWAPILIB:UnitType.obj
 0001:000d0b20       ??$_Get_unwrapped@ABQAV?$_List_unchecked_const_iterator@V?$_List_val@U?$_List_simple_types@VUnitType@BWAPI@@@std@@@std@@U_Iterator_base0@2@@std@@@std@@YA?A_TABQAV?$_List_unchecked_const_iterator@V?$_List_val@U?$_List_simple_types@VUnitType@BWAPI@@@std@@@std@@U_Iterator_base0@2@@0@@Z 100d1b20 f i BWAPILIB:UnitType.obj
 0001:000d0b20       ??$_Get_unwrapped@ABQAV?$_List_unchecked_const_iterator@V?$_List_val@U?$_List_simple_types@VUpgradeType@BWAPI@@@std@@@std@@U_Iterator_base0@2@@std@@@std@@YA?A_TABQAV?$_List_unchecked_const_iterator@V?$_List_val@U?$_List_simple_types@VUpgradeType@BWAPI@@@std@@@std@@U_Iterator_base0@2@@0@@Z 100d1b20 f i BWAPILIB:UnitType.obj
 0001:000d0b20       ??$_Get_unwrapped@ABQAV?$_List_unchecked_const_iterator@V?$_List_val@U?$_List_simple_types@VWeaponType@BWAPI@@@std@@@std@@U_Iterator_base0@2@@std@@@std@@YA?A_TABQAV?$_List_unchecked_const_iterator@V?$_List_val@U?$_List_simple_types@VWeaponType@BWAPI@@@std@@@std@@U_Iterator_base0@2@@0@@Z 100d1b20 f i BWAPILIB:WeaponType.obj
 0001:000d0b30       ??$_Hash_representation@H@std@@YAIABH@Z 100d1b30 f i BWAPILIB:UnitType.obj
 0001:000d0b50       ??$_Insert_range_unchecked@PBHPBH@?$_Hash@V?$_Uset_traits@VTechType@BWAPI@@V?$_Uhash_compare@VTechType@BWAPI@@U?$hash@H@std@@U?$equal_to@VTechType@BWAPI@@@4@@std@@V?$allocator@VTechType@BWAPI@@@4@$0A@@std@@@std@@IAEXPBHQBH@Z 100d1b50 f i BWAPILIB:UnitType.obj
 0001:000d0b90       ??$_Insert_range_unchecked@PBHPBH@?$_Hash@V?$_Uset_traits@VUpgradeType@BWAPI@@V?$_Uhash_compare@VUpgradeType@BWAPI@@U?$hash@H@std@@U?$equal_to@VUpgradeType@BWAPI@@@4@@std@@V?$allocator@VUpgradeType@BWAPI@@@4@$0A@@std@@@std@@IAEXPBHQBH@Z 100d1b90 f i BWAPILIB:UnitType.obj
 0001:000d0bd0       ??$_Insert_range_unchecked@PBVTechType@BWAPI@@PBV12@@?$_Hash@V?$_Uset_traits@VTechType@BWAPI@@V?$_Uhash_compare@VTechType@BWAPI@@U?$hash@H@std@@U?$equal_to@VTechType@BWAPI@@@4@@std@@V?$allocator@VTechType@BWAPI@@@4@$0A@@std@@@std@@IAEXPBVTechType@BWAPI@@QBV23@@Z 100d1bd0 f i BWAPILIB:UnitType.obj
 0001:000d0c10       ??$_Insert_range_unchecked@PBVUnitType@BWAPI@@PBV12@@?$_Hash@V?$_Uset_traits@VUnitType@BWAPI@@V?$_Uhash_compare@VUnitType@BWAPI@@U?$hash@H@std@@U?$equal_to@VUnitType@BWAPI@@@4@@std@@V?$allocator@VUnitType@BWAPI@@@4@$0A@@std@@@std@@IAEXPBVUnitType@BWAPI@@QBV23@@Z 100d1c10 f i BWAPILIB:UnitType.obj
 0001:000d0c50       ??$_Insert_range_unchecked@PBVUpgradeType@BWAPI@@PBV12@@?$_Hash@V?$_Uset_traits@VUpgradeType@BWAPI@@V?$_Uhash_compare@VUpgradeType@BWAPI@@U?$hash@H@std@@U?$equal_to@VUpgradeType@BWAPI@@@4@@std@@V?$allocator@VUpgradeType@BWAPI@@@4@$0A@@std@@@std@@IAEXPBVUpgradeType@BWAPI@@QBV23@@Z 100d1c50 f i BWAPILIB:UnitType.obj
 0001:000d0c90       ??$_Resize@U_Value_init_tag@std@@@?$vector@V?$map@VUnitType@BWAPI@@HU?$less@VUnitType@BWAPI@@@std@@V?$allocator@U?$pair@$$CBVUnitType@BWAPI@@H@std@@@4@@std@@V?$allocator@V?$map@VUnitType@BWAPI@@HU?$less@VUnitType@BWAPI@@@std@@V?$allocator@U?$pair@$$CBVUnitType@BWAPI@@H@std@@@4@@std@@@2@@std@@AAEXIABU_Value_init_tag@1@@Z 100d1c90 f i BWAPILIB:UnitType.obj
 0001:000d0d80       ??$_Resize_reallocate@U_Value_init_tag@std@@@?$vector@V?$map@VUnitType@BWAPI@@HU?$less@VUnitType@BWAPI@@@std@@V?$allocator@U?$pair@$$CBVUnitType@BWAPI@@H@std@@@4@@std@@V?$allocator@V?$map@VUnitType@BWAPI@@HU?$less@VUnitType@BWAPI@@@std@@V?$allocator@U?$pair@$$CBVUnitType@BWAPI@@H@std@@@4@@std@@@2@@std@@AAEXIABU_Value_init_tag@1@@Z 100d1d80 f i BWAPILIB:UnitType.obj
 0001:000d0eb0       ??$_Uninitialized_value_construct_n@V?$allocator@V?$map@VUnitType@BWAPI@@HU?$less@VUnitType@BWAPI@@@std@@V?$allocator@U?$pair@$$CBVUnitType@BWAPI@@H@std@@@4@@std@@@std@@@std@@YAPAV?$map@VUnitType@BWAPI@@HU?$less@VUnitType@BWAPI@@@std@@V?$allocator@U?$pair@$$CBVUnitType@BWAPI@@H@std@@@4@@0@PAV10@IAAV?$allocator@V?$map@VUnitType@BWAPI@@HU?$less@VUnitType@BWAPI@@@std@@V?$allocator@U?$pair@$$CBVUnitType@BWAPI@@H@std@@@4@@std@@@0@@Z 100d1eb0 f i BWAPILIB:UnitType.obj
 0001:000d0f30       ??$construct@U?$pair@$$CBVUnitType@BWAPI@@H@std@@AAU?$pair@VUnitType@BWAPI@@H@2@@?$_Default_allocator_traits@V?$allocator@U?$_Tree_node@U?$pair@$$CBVUnitType@BWAPI@@H@std@@PAX@std@@@std@@@std@@SAXAAV?$allocator@U?$_Tree_node@U?$pair@$$CBVUnitType@BWAPI@@H@std@@PAX@std@@@1@QAU?$pair@$$CBVUnitType@BWAPI@@H@1@AAU?$pair@VUnitType@BWAPI@@H@1@@Z 100d1f30 f i BWAPILIB:UnitType.obj
 0001:000d0f60       ??$construct@V?$map@VUnitType@BWAPI@@HU?$less@VUnitType@BWAPI@@@std@@V?$allocator@U?$pair@$$CBVUnitType@BWAPI@@H@std@@@4@@std@@$$V@?$_Default_allocator_traits@V?$allocator@V?$map@VUnitType@BWAPI@@HU?$less@VUnitType@BWAPI@@@std@@V?$allocator@U?$pair@$$CBVUnitType@BWAPI@@H@std@@@4@@std@@@std@@@std@@SAXAAV?$allocator@V?$map@VUnitType@BWAPI@@HU?$less@VUnitType@BWAPI@@@std@@V?$allocator@U?$pair@$$CBVUnitType@BWAPI@@H@std@@@4@@std@@@1@QAV?$map@VUnitType@BWAPI@@HU?$less@VUnitType@BWAPI@@@std@@V?$allocator@U?$pair@$$CBVUnitType@BWAPI@@H@std@@@4@@1@@Z 100d1f60 f i BWAPILIB:UnitType.obj
 0001:000d0f90       ??$construct@VTechType@BWAPI@@ABH@?$_Default_allocator_traits@V?$allocator@U?$_List_node@VTechType@BWAPI@@PAX@std@@@std@@@std@@SAXAAV?$allocator@U?$_List_node@VTechType@BWAPI@@PAX@std@@@1@QAVTechType@BWAPI@@ABH@Z 100d1f90 f i BWAPILIB:UnitType.obj
 0001:000d0fd0       ??$construct@VBulletType@BWAPI@@ABV12@@?$_Default_allocator_traits@V?$allocator@U?$_List_node@VBulletType@BWAPI@@PAX@std@@@std@@@std@@SAXAAV?$allocator@U?$_List_node@VBulletType@BWAPI@@PAX@std@@@1@QAVBulletType@BWAPI@@ABV34@@Z 100d1fd0 f i BWAPILIB:BulletType.obj
 0001:000d0fd0       ??$construct@VOrder@BWAPI@@ABV12@@?$_Default_allocator_traits@V?$allocator@U?$_List_node@VOrder@BWAPI@@PAX@std@@@std@@@std@@SAXAAV?$allocator@U?$_List_node@VOrder@BWAPI@@PAX@std@@@1@QAVOrder@BWAPI@@ABV34@@Z 100d1fd0 f i BWAPILIB:Order.obj
 0001:000d0fd0       ??$construct@VRace@BWAPI@@ABV12@@?$_Default_allocator_traits@V?$allocator@U?$_List_node@VRace@BWAPI@@PAX@std@@@std@@@std@@SAXAAV?$allocator@U?$_List_node@VRace@BWAPI@@PAX@std@@@1@QAVRace@BWAPI@@ABV34@@Z 100d1fd0 f i BWAPILIB:Race.obj
 0001:000d0fd0       ??$construct@VTechType@BWAPI@@ABV12@@?$_Default_allocator_traits@V?$allocator@U?$_List_node@VTechType@BWAPI@@PAX@std@@@std@@@std@@SAXAAV?$allocator@U?$_List_node@VTechType@BWAPI@@PAX@std@@@1@QAVTechType@BWAPI@@ABV34@@Z 100d1fd0 f i BWAPILIB:UnitType.obj
 0001:000d0fd0       ??$construct@VUnitType@BWAPI@@ABV12@@?$_Default_allocator_traits@V?$allocator@U?$_List_node@VUnitType@BWAPI@@PAX@std@@@std@@@std@@SAXAAV?$allocator@U?$_List_node@VUnitType@BWAPI@@PAX@std@@@1@QAVUnitType@BWAPI@@ABV34@@Z 100d1fd0 f i BWAPILIB:UnitType.obj
 0001:000d0fd0       ??$construct@VUpgradeType@BWAPI@@ABV12@@?$_Default_allocator_traits@V?$allocator@U?$_List_node@VUpgradeType@BWAPI@@PAX@std@@@std@@@std@@SAXAAV?$allocator@U?$_List_node@VUpgradeType@BWAPI@@PAX@std@@@1@QAVUpgradeType@BWAPI@@ABV34@@Z 100d1fd0 f i BWAPILIB:UnitType.obj
 0001:000d0fd0       ??$construct@VWeaponType@BWAPI@@ABV12@@?$_Default_allocator_traits@V?$allocator@U?$_List_node@VWeaponType@BWAPI@@PAX@std@@@std@@@std@@SAXAAV?$allocator@U?$_List_node@VWeaponType@BWAPI@@PAX@std@@@1@QAVWeaponType@BWAPI@@ABV34@@Z 100d1fd0 f i BWAPILIB:WeaponType.obj
 0001:000d1000       ??$construct@VUpgradeType@BWAPI@@ABH@?$_Default_allocator_traits@V?$allocator@U?$_List_node@VUpgradeType@BWAPI@@PAX@std@@@std@@@std@@SAXAAV?$allocator@U?$_List_node@VUpgradeType@BWAPI@@PAX@std@@@1@QAVUpgradeType@BWAPI@@ABH@Z 100d2000 f i BWAPILIB:UnitType.obj
 0001:000d1040       ??$emplace@AAU?$pair@VUnitType@BWAPI@@H@std@@@?$_Tree@V?$_Tmap_traits@VUnitType@BWAPI@@HU?$less@VUnitType@BWAPI@@@std@@V?$allocator@U?$pair@$$CBVUnitType@BWAPI@@H@std@@@4@$0A@@std@@@std@@QAE?AU?$pair@V?$_Tree_iterator@V?$_Tree_val@U?$_Tree_simple_types@U?$pair@$$CBVUnitType@BWAPI@@H@std@@@std@@@std@@@std@@_N@1@AAU?$pair@VUnitType@BWAPI@@H@1@@Z 100d2040 f i BWAPILIB:UnitType.obj
 0001:000d1090       ??$emplace@ABH@?$_Hash@V?$_Uset_traits@VTechType@BWAPI@@V?$_Uhash_compare@VTechType@BWAPI@@U?$hash@H@std@@U?$equal_to@VTechType@BWAPI@@@4@@std@@V?$allocator@VTechType@BWAPI@@@4@$0A@@std@@@std@@QAE?AU?$pair@V?$_List_const_iterator@V?$_List_val@U?$_List_simple_types@VTechType@BWAPI@@@std@@@std@@@std@@_N@1@ABH@Z 100d2090 f i BWAPILIB:UnitType.obj
 0001:000d1210       ??$emplace@ABH@?$_Hash@V?$_Uset_traits@VUpgradeType@BWAPI@@V?$_Uhash_compare@VUpgradeType@BWAPI@@U?$hash@H@std@@U?$equal_to@VUpgradeType@BWAPI@@@4@@std@@V?$allocator@VUpgradeType@BWAPI@@@4@$0A@@std@@@std@@QAE?AU?$pair@V?$_List_const_iterator@V?$_List_val@U?$_List_simple_types@VUpgradeType@BWAPI@@@std@@@std@@@std@@_N@1@ABH@Z 100d2210 f i BWAPILIB:UnitType.obj
 0001:000d1390       ??$emplace@ABVTechType@BWAPI@@@?$_Hash@V?$_Uset_traits@VTechType@BWAPI@@V?$_Uhash_compare@VTechType@BWAPI@@U?$hash@H@std@@U?$equal_to@VTechType@BWAPI@@@4@@std@@V?$allocator@VTechType@BWAPI@@@4@$0A@@std@@@std@@QAE?AU?$pair@V?$_List_const_iterator@V?$_List_val@U?$_List_simple_types@VTechType@BWAPI@@@std@@@std@@@std@@_N@1@ABVTechType@BWAPI@@@Z 100d2390 f i BWAPILIB:UnitType.obj
 0001:000d14f0       ??$emplace@ABVUnitType@BWAPI@@@?$_Hash@V?$_Uset_traits@VUnitType@BWAPI@@V?$_Uhash_compare@VUnitType@BWAPI@@U?$hash@H@std@@U?$equal_to@VUnitType@BWAPI@@@4@@std@@V?$allocator@VUnitType@BWAPI@@@4@$0A@@std@@@std@@QAE?AU?$pair@V?$_List_const_iterator@V?$_List_val@U?$_List_simple_types@VUnitType@BWAPI@@@std@@@std@@@std@@_N@1@ABVUnitType@BWAPI@@@Z 100d24f0 f i BWAPILIB:UnitType.obj
 0001:000d1650       ??$emplace@ABVUpgradeType@BWAPI@@@?$_Hash@V?$_Uset_traits@VUpgradeType@BWAPI@@V?$_Uhash_compare@VUpgradeType@BWAPI@@U?$hash@H@std@@U?$equal_to@VUpgradeType@BWAPI@@@4@@std@@V?$allocator@VUpgradeType@BWAPI@@@4@$0A@@std@@@std@@QAE?AU?$pair@V?$_List_const_iterator@V?$_List_val@U?$_List_simple_types@VUpgradeType@BWAPI@@@std@@@std@@@std@@_N@1@ABVUpgradeType@BWAPI@@@Z 100d2650 f i BWAPILIB:UnitType.obj
 0001:000d17b0       ??$end@$$CBH$00@std@@YAPBHAAY00$$CBH@Z 100d27b0 f i BWAPILIB:UnitType.obj
 0001:000d17c0       ??$end@$$CBH$01@std@@YAPBHAAY01$$CBH@Z 100d27c0 f i BWAPILIB:UnitType.obj
 0001:000d17d0       ??$end@$$CBH$02@std@@YAPBHAAY02$$CBH@Z 100d27d0 f i BWAPILIB:UnitType.obj
 0001:000d17e0       ??$end@$$CBH$03@std@@YAPBHAAY03$$CBH@Z 100d27e0 f i BWAPILIB:UnitType.obj
 0001:000d17f0       ??$end@$$CBH$04@std@@YAPBHAAY04$$CBH@Z 100d27f0 f i BWAPILIB:UnitType.obj
 0001:000d1800       ??$exchange@IABI@std@@YAIAAIABI@Z 100d2800 f i BWAPILIB:WeaponType.obj
 0001:000d1800       ??$exchange@PAU?$_List_node@VBulletType@BWAPI@@PAX@std@@$$T@std@@YAPAU?$_List_node@VBulletType@BWAPI@@PAX@0@AAPAU10@$$QA$$T@Z 100d2800 f i BWAPILIB:BulletType.obj
 0001:000d1800       ??$exchange@PAU?$_List_node@VOrder@BWAPI@@PAX@std@@$$T@std@@YAPAU?$_List_node@VOrder@BWAPI@@PAX@0@AAPAU10@$$QA$$T@Z 100d2800 f i BWAPILIB:Order.obj
 0001:000d1800       ??$exchange@PAU?$_List_node@VRace@BWAPI@@PAX@std@@$$T@std@@YAPAU?$_List_node@VRace@BWAPI@@PAX@0@AAPAU10@$$QA$$T@Z 100d2800 f i BWAPILIB:Race.obj
 0001:000d1800       ??$exchange@PAU?$_List_node@VTechType@BWAPI@@PAX@std@@$$T@std@@YAPAU?$_List_node@VTechType@BWAPI@@PAX@0@AAPAU10@$$QA$$T@Z 100d2800 f i BWAPILIB:UnitType.obj
 0001:000d1800       ??$exchange@PAU?$_List_node@VUnitType@BWAPI@@PAX@std@@$$T@std@@YAPAU?$_List_node@VUnitType@BWAPI@@PAX@0@AAPAU10@$$QA$$T@Z 100d2800 f i BWAPILIB:UnitType.obj
 0001:000d1800       ??$exchange@PAU?$_List_node@VUpgradeType@BWAPI@@PAX@std@@$$T@std@@YAPAU?$_List_node@VUpgradeType@BWAPI@@PAX@0@AAPAU10@$$QA$$T@Z 100d2800 f i BWAPILIB:UnitType.obj
 0001:000d1800       ??$exchange@PAU?$_List_node@VWeaponType@BWAPI@@PAX@std@@$$T@std@@YAPAU?$_List_node@VWeaponType@BWAPI@@PAX@0@AAPAU10@$$QA$$T@Z 100d2800 f i BWAPILIB:WeaponType.obj
 0001:000d1800       ??$exchange@PAV?$map@VUnitType@BWAPI@@HU?$less@VUnitType@BWAPI@@@std@@V?$allocator@U?$pair@$$CBVUnitType@BWAPI@@H@std@@@4@@std@@$$T@std@@YAPAV?$map@VUnitType@BWAPI@@HU?$less@VUnitType@BWAPI@@@std@@V?$allocator@U?$pair@$$CBVUnitType@BWAPI@@H@std@@@4@@0@AAPAV10@$$QA$$T@Z 100d2800 f i BWAPILIB:UnitType.obj
 0001:000d1820       ??$fill@PAV?$_List_unchecked_const_iterator@V?$_List_val@U?$_List_simple_types@VBulletType@BWAPI@@@std@@@std@@U_Iterator_base0@2@@std@@V12@@std@@YAXQAV?$_List_unchecked_const_iterator@V?$_List_val@U?$_List_simple_types@VBulletType@BWAPI@@@std@@@std@@U_Iterator_base0@2@@0@0ABV10@@Z 100d2820 f i BWAPILIB:BulletType.obj
 0001:000d1820       ??$fill@PAV?$_List_unchecked_const_iterator@V?$_List_val@U?$_List_simple_types@VOrder@BWAPI@@@std@@@std@@U_Iterator_base0@2@@std@@V12@@std@@YAXQAV?$_List_unchecked_const_iterator@V?$_List_val@U?$_List_simple_types@VOrder@BWAPI@@@std@@@std@@U_Iterator_base0@2@@0@0ABV10@@Z 100d2820 f i BWAPILIB:Order.obj
 0001:000d1820       ??$fill@PAV?$_List_unchecked_const_iterator@V?$_List_val@U?$_List_simple_types@VRace@BWAPI@@@std@@@std@@U_Iterator_base0@2@@std@@V12@@std@@YAXQAV?$_List_unchecked_const_iterator@V?$_List_val@U?$_List_simple_types@VRace@BWAPI@@@std@@@std@@U_Iterator_base0@2@@0@0ABV10@@Z 100d2820 f i BWAPILIB:Race.obj
 0001:000d1820       ??$fill@PAV?$_List_unchecked_const_iterator@V?$_List_val@U?$_List_simple_types@VTechType@BWAPI@@@std@@@std@@U_Iterator_base0@2@@std@@V12@@std@@YAXQAV?$_List_unchecked_const_iterator@V?$_List_val@U?$_List_simple_types@VTechType@BWAPI@@@std@@@std@@U_Iterator_base0@2@@0@0ABV10@@Z 100d2820 f i BWAPILIB:UnitType.obj
 0001:000d1820       ??$fill@PAV?$_List_unchecked_const_iterator@V?$_List_val@U?$_List_simple_types@VUnitType@BWAPI@@@std@@@std@@U_Iterator_base0@2@@std@@V12@@std@@YAXQAV?$_List_unchecked_const_iterator@V?$_List_val@U?$_List_simple_types@VUnitType@BWAPI@@@std@@@std@@U_Iterator_base0@2@@0@0ABV10@@Z 100d2820 f i BWAPILIB:UnitType.obj
 0001:000d1820       ??$fill@PAV?$_List_unchecked_const_iterator@V?$_List_val@U?$_List_simple_types@VUpgradeType@BWAPI@@@std@@@std@@U_Iterator_base0@2@@std@@V12@@std@@YAXQAV?$_List_unchecked_const_iterator@V?$_List_val@U?$_List_simple_types@VUpgradeType@BWAPI@@@std@@@std@@U_Iterator_base0@2@@0@0ABV10@@Z 100d2820 f i BWAPILIB:UnitType.obj
 0001:000d1820       ??$fill@PAV?$_List_unchecked_const_iterator@V?$_List_val@U?$_List_simple_types@VWeaponType@BWAPI@@@std@@@std@@U_Iterator_base0@2@@std@@V12@@std@@YAXQAV?$_List_unchecked_const_iterator@V?$_List_val@U?$_List_simple_types@VWeaponType@BWAPI@@@std@@@std@@U_Iterator_base0@2@@0@0ABV10@@Z 100d2820 f i BWAPILIB:WeaponType.obj
 0001:000d1880       ??$insert@AAU?$pair@VUnitType@BWAPI@@H@std@@$0A@@?$map@VUnitType@BWAPI@@HU?$less@VUnitType@BWAPI@@@std@@V?$allocator@U?$pair@$$CBVUnitType@BWAPI@@H@std@@@4@@std@@QAE?AU?$pair@V?$_Tree_iterator@V?$_Tree_val@U?$_Tree_simple_types@U?$pair@$$CBVUnitType@BWAPI@@H@std@@@std@@@std@@@std@@_N@1@AAU?$pair@VUnitType@BWAPI@@H@1@@Z 100d2880 f i BWAPILIB:UnitType.obj
 0001:000d18b0       ??$insert@PBH@?$_Hash@V?$_Uset_traits@VTechType@BWAPI@@V?$_Uhash_compare@VTechType@BWAPI@@U?$hash@H@std@@U?$equal_to@VTechType@BWAPI@@@4@@std@@V?$allocator@VTechType@BWAPI@@@4@$0A@@std@@@std@@QAEXPBH0@Z 100d28b0 f i BWAPILIB:UnitType.obj
 0001:000d18f0       ??$insert@PBH@?$_Hash@V?$_Uset_traits@VUpgradeType@BWAPI@@V?$_Uhash_compare@VUpgradeType@BWAPI@@U?$hash@H@std@@U?$equal_to@VUpgradeType@BWAPI@@@4@@std@@V?$allocator@VUpgradeType@BWAPI@@@4@$0A@@std@@@std@@QAEXPBH0@Z 100d28f0 f i BWAPILIB:UnitType.obj
 0001:000d1930       ??$make_pair@ABVUnitType@BWAPI@@AAH@std@@YA?AU?$pair@VUnitType@BWAPI@@H@0@ABVUnitType@BWAPI@@AAH@Z 100d2930 f i BWAPILIB:UnitType.obj
 0001:000d1960       ??$uninitialized_fill@PAV?$_List_unchecked_const_iterator@V?$_List_val@U?$_List_simple_types@VBulletType@BWAPI@@@std@@@std@@U_Iterator_base0@2@@std@@V12@@std@@YAXQAV?$_List_unchecked_const_iterator@V?$_List_val@U?$_List_simple_types@VBulletType@BWAPI@@@std@@@std@@U_Iterator_base0@2@@0@0ABV10@@Z 100d2960 f i BWAPILIB:BulletType.obj
 0001:000d1960       ??$uninitialized_fill@PAV?$_List_unchecked_const_iterator@V?$_List_val@U?$_List_simple_types@VOrder@BWAPI@@@std@@@std@@U_Iterator_base0@2@@std@@V12@@std@@YAXQAV?$_List_unchecked_const_iterator@V?$_List_val@U?$_List_simple_types@VOrder@BWAPI@@@std@@@std@@U_Iterator_base0@2@@0@0ABV10@@Z 100d2960 f i BWAPILIB:Order.obj
 0001:000d1960       ??$uninitialized_fill@PAV?$_List_unchecked_const_iterator@V?$_List_val@U?$_List_simple_types@VRace@BWAPI@@@std@@@std@@U_Iterator_base0@2@@std@@V12@@std@@YAXQAV?$_List_unchecked_const_iterator@V?$_List_val@U?$_List_simple_types@VRace@BWAPI@@@std@@@std@@U_Iterator_base0@2@@0@0ABV10@@Z 100d2960 f i BWAPILIB:Race.obj
 0001:000d1960       ??$uninitialized_fill@PAV?$_List_unchecked_const_iterator@V?$_List_val@U?$_List_simple_types@VTechType@BWAPI@@@std@@@std@@U_Iterator_base0@2@@std@@V12@@std@@YAXQAV?$_List_unchecked_const_iterator@V?$_List_val@U?$_List_simple_types@VTechType@BWAPI@@@std@@@std@@U_Iterator_base0@2@@0@0ABV10@@Z 100d2960 f i BWAPILIB:UnitType.obj
 0001:000d1960       ??$uninitialized_fill@PAV?$_List_unchecked_const_iterator@V?$_List_val@U?$_List_simple_types@VUnitType@BWAPI@@@std@@@std@@U_Iterator_base0@2@@std@@V12@@std@@YAXQAV?$_List_unchecked_const_iterator@V?$_List_val@U?$_List_simple_types@VUnitType@BWAPI@@@std@@@std@@U_Iterator_base0@2@@0@0ABV10@@Z 100d2960 f i BWAPILIB:UnitType.obj
 0001:000d1960       ??$uninitialized_fill@PAV?$_List_unchecked_const_iterator@V?$_List_val@U?$_List_simple_types@VUpgradeType@BWAPI@@@std@@@std@@U_Iterator_base0@2@@std@@V12@@std@@YAXQAV?$_List_unchecked_const_iterator@V?$_List_val@U?$_List_simple_types@VUpgradeType@BWAPI@@@std@@@std@@U_Iterator_base0@2@@0@0ABV10@@Z 100d2960 f i BWAPILIB:UnitType.obj
 0001:000d1960       ??$uninitialized_fill@PAV?$_List_unchecked_const_iterator@V?$_List_val@U?$_List_simple_types@VWeaponType@BWAPI@@@std@@@std@@U_Iterator_base0@2@@std@@V12@@std@@YAXQAV?$_List_unchecked_const_iterator@V?$_List_val@U?$_List_simple_types@VWeaponType@BWAPI@@@std@@@std@@U_Iterator_base0@2@@0@0ABV10@@Z 100d2960 f i BWAPILIB:WeaponType.obj
 0001:000d1a00       ??0?$SetContainer@VTechType@BWAPI@@U?$hash@H@std@@@BWAPI@@QAE@V?$initializer_list@VTechType@BWAPI@@@std@@@Z 100d2a00 f i BWAPILIB:UnitType.obj
 0001:000d1a30       ??0?$SetContainer@VTechType@BWAPI@@U?$hash@H@std@@@BWAPI@@QAE@XZ 100d2a30 f i BWAPILIB:UnitType.obj
 0001:000d1a50       ??0?$SetContainer@VUnitType@BWAPI@@U?$hash@H@std@@@BWAPI@@QAE@V?$initializer_list@VUnitType@BWAPI@@@std@@@Z 100d2a50 f i BWAPILIB:UnitType.obj
 0001:000d1a80       ??0?$SetContainer@VUnitType@BWAPI@@U?$hash@H@std@@@BWAPI@@QAE@XZ 100d2a80 f i BWAPILIB:UnitType.obj
 0001:000d1a80       ??0?$SetContainer@VUpgradeType@BWAPI@@U?$hash@H@std@@@BWAPI@@QAE@XZ 100d2a80 f i BWAPILIB:UnitType.obj
 0001:000d1aa0       ??0?$SetContainer@VUpgradeType@BWAPI@@U?$hash@H@std@@@BWAPI@@QAE@V?$initializer_list@VUpgradeType@BWAPI@@@std@@@Z 100d2aa0 f i BWAPILIB:UnitType.obj
 0001:000d1ad0       ??0?$_Alloc_construct_ptr@V?$allocator@U?$_List_node@VBulletType@BWAPI@@PAX@std@@@std@@@std@@QAE@AAV?$allocator@U?$_List_node@VBulletType@BWAPI@@PAX@std@@@1@@Z 100d2ad0 f i BWAPILIB:BulletType.obj
 0001:000d1ad0       ??0?$_Alloc_construct_ptr@V?$allocator@U?$_List_node@VOrder@BWAPI@@PAX@std@@@std@@@std@@QAE@AAV?$allocator@U?$_List_node@VOrder@BWAPI@@PAX@std@@@1@@Z 100d2ad0 f i BWAPILIB:Order.obj
 0001:000d1ad0       ??0?$_Alloc_construct_ptr@V?$allocator@U?$_List_node@VRace@BWAPI@@PAX@std@@@std@@@std@@QAE@AAV?$allocator@U?$_List_node@VRace@BWAPI@@PAX@std@@@1@@Z 100d2ad0 f i BWAPILIB:Race.obj
 0001:000d1ad0       ??0?$_Alloc_construct_ptr@V?$allocator@U?$_List_node@VTechType@BWAPI@@PAX@std@@@std@@@std@@QAE@AAV?$allocator@U?$_List_node@VTechType@BWAPI@@PAX@std@@@1@@Z 100d2ad0 f i BWAPILIB:UnitType.obj
 0001:000d1ad0       ??0?$_Alloc_construct_ptr@V?$allocator@U?$_List_node@VUnitType@BWAPI@@PAX@std@@@std@@@std@@QAE@AAV?$allocator@U?$_List_node@VUnitType@BWAPI@@PAX@std@@@1@@Z 100d2ad0 f i BWAPILIB:UnitType.obj
 0001:000d1ad0       ??0?$_Alloc_construct_ptr@V?$allocator@U?$_List_node@VUpgradeType@BWAPI@@PAX@std@@@std@@@std@@QAE@AAV?$allocator@U?$_List_node@VUpgradeType@BWAPI@@PAX@std@@@1@@Z 100d2ad0 f i BWAPILIB:UnitType.obj
 0001:000d1ad0       ??0?$_Alloc_construct_ptr@V?$allocator@U?$_List_node@VWeaponType@BWAPI@@PAX@std@@@std@@@std@@QAE@AAV?$allocator@U?$_List_node@VWeaponType@BWAPI@@PAX@std@@@1@@Z 100d2ad0 f i BWAPILIB:WeaponType.obj
 0001:000d1b00       ??0?$_Hash@V?$_Uset_traits@VTechType@BWAPI@@V?$_Uhash_compare@VTechType@BWAPI@@U?$hash@H@std@@U?$equal_to@VTechType@BWAPI@@@4@@std@@V?$allocator@VTechType@BWAPI@@@4@$0A@@std@@@std@@IAE@ABV?$_Uhash_compare@VTechType@BWAPI@@U?$hash@H@std@@U?$equal_to@VTechType@BWAPI@@@4@@1@ABV?$allocator@VTechType@BWAPI@@@1@@Z 100d2b00 f i BWAPILIB:UnitType.obj
 0001:000d1b00       ??0?$_Hash@V?$_Uset_traits@VUnitType@BWAPI@@V?$_Uhash_compare@VUnitType@BWAPI@@U?$hash@H@std@@U?$equal_to@VUnitType@BWAPI@@@4@@std@@V?$allocator@VUnitType@BWAPI@@@4@$0A@@std@@@std@@IAE@ABV?$_Uhash_compare@VUnitType@BWAPI@@U?$hash@H@std@@U?$equal_to@VUnitType@BWAPI@@@4@@1@ABV?$allocator@VUnitType@BWAPI@@@1@@Z 100d2b00 f i BWAPILIB:UnitType.obj
 0001:000d1b00       ??0?$_Hash@V?$_Uset_traits@VUpgradeType@BWAPI@@V?$_Uhash_compare@VUpgradeType@BWAPI@@U?$hash@H@std@@U?$equal_to@VUpgradeType@BWAPI@@@4@@std@@V?$allocator@VUpgradeType@BWAPI@@@4@$0A@@std@@@std@@IAE@ABV?$_Uhash_compare@VUpgradeType@BWAPI@@U?$hash@H@std@@U?$equal_to@VUpgradeType@BWAPI@@@4@@1@ABV?$allocator@VUpgradeType@BWAPI@@@1@@Z 100d2b00 f i BWAPILIB:UnitType.obj
 0001:000d1bc0       ??0?$_List_iterator@V?$_List_val@U?$_List_simple_types@VTechType@BWAPI@@@std@@@std@@@std@@QAE@PAU?$_List_node@VTechType@BWAPI@@PAX@1@PBV?$_List_val@U?$_List_simple_types@VTechType@BWAPI@@@std@@@1@@Z 100d2bc0 f i BWAPILIB:UnitType.obj
 0001:000d1bc0       ??0?$_List_iterator@V?$_List_val@U?$_List_simple_types@VUnitType@BWAPI@@@std@@@std@@@std@@QAE@PAU?$_List_node@VUnitType@BWAPI@@PAX@1@PBV?$_List_val@U?$_List_simple_types@VUnitType@BWAPI@@@std@@@1@@Z 100d2bc0 f i BWAPILIB:UnitType.obj
 0001:000d1bc0       ??0?$_List_iterator@V?$_List_val@U?$_List_simple_types@VUpgradeType@BWAPI@@@std@@@std@@@std@@QAE@PAU?$_List_node@VUpgradeType@BWAPI@@PAX@1@PBV?$_List_val@U?$_List_simple_types@VUpgradeType@BWAPI@@@std@@@1@@Z 100d2bc0 f i BWAPILIB:UnitType.obj
 0001:000d1bc0       ??0?$_List_unchecked_iterator@V?$_List_val@U?$_List_simple_types@VTechType@BWAPI@@@std@@@std@@@std@@QAE@PAU?$_List_node@VTechType@BWAPI@@PAX@1@PBV?$_List_val@U?$_List_simple_types@VTechType@BWAPI@@@std@@@1@@Z 100d2bc0 f i BWAPILIB:UnitType.obj
 0001:000d1bc0       ??0?$_List_unchecked_iterator@V?$_List_val@U?$_List_simple_types@VUnitType@BWAPI@@@std@@@std@@@std@@QAE@PAU?$_List_node@VUnitType@BWAPI@@PAX@1@PBV?$_List_val@U?$_List_simple_types@VUnitType@BWAPI@@@std@@@1@@Z 100d2bc0 f i BWAPILIB:UnitType.obj
 0001:000d1bc0       ??0?$_List_unchecked_iterator@V?$_List_val@U?$_List_simple_types@VUpgradeType@BWAPI@@@std@@@std@@@std@@QAE@PAU?$_List_node@VUpgradeType@BWAPI@@PAX@1@PBV?$_List_val@U?$_List_simple_types@VUpgradeType@BWAPI@@@std@@@1@@Z 100d2bc0 f i BWAPILIB:UnitType.obj
 0001:000d1bf0       ??0?$_List_val@U?$_List_simple_types@VBulletType@BWAPI@@@std@@@std@@QAE@XZ 100d2bf0 f i BWAPILIB:BulletType.obj
 0001:000d1bf0       ??0?$_List_val@U?$_List_simple_types@VOrder@BWAPI@@@std@@@std@@QAE@XZ 100d2bf0 f i BWAPILIB:Order.obj
 0001:000d1bf0       ??0?$_List_val@U?$_List_simple_types@VRace@BWAPI@@@std@@@std@@QAE@XZ 100d2bf0 f i BWAPILIB:Race.obj
 0001:000d1bf0       ??0?$_List_val@U?$_List_simple_types@VTechType@BWAPI@@@std@@@std@@QAE@XZ 100d2bf0 f i BWAPILIB:UnitType.obj
 0001:000d1bf0       ??0?$_List_val@U?$_List_simple_types@VUnitType@BWAPI@@@std@@@std@@QAE@XZ 100d2bf0 f i BWAPILIB:UnitType.obj
 0001:000d1bf0       ??0?$_List_val@U?$_List_simple_types@VUpgradeType@BWAPI@@@std@@@std@@QAE@XZ 100d2bf0 f i BWAPILIB:UnitType.obj
 0001:000d1bf0       ??0?$_List_val@U?$_List_simple_types@VWeaponType@BWAPI@@@std@@@std@@QAE@XZ 100d2bf0 f i BWAPILIB:WeaponType.obj
 0001:000d1c20       ??0?$_Uhash_compare@VBulletType@BWAPI@@U?$hash@H@std@@U?$equal_to@VBulletType@BWAPI@@@4@@std@@QAE@XZ 100d2c20 f i BWAPILIB:BulletType.obj
 0001:000d1c20       ??0?$_Uhash_compare@VOrder@BWAPI@@U?$hash@H@std@@U?$equal_to@VOrder@BWAPI@@@4@@std@@QAE@XZ 100d2c20 f i BWAPILIB:Order.obj
 0001:000d1c20       ??0?$_Uhash_compare@VRace@BWAPI@@U?$hash@H@std@@U?$equal_to@VRace@BWAPI@@@4@@std@@QAE@XZ 100d2c20 f i BWAPILIB:Race.obj
 0001:000d1c20       ??0?$_Uhash_compare@VTechType@BWAPI@@U?$hash@H@std@@U?$equal_to@VTechType@BWAPI@@@4@@std@@QAE@XZ 100d2c20 f i BWAPILIB:UnitType.obj
 0001:000d1c20       ??0?$_Uhash_compare@VUnitType@BWAPI@@U?$hash@H@std@@U?$equal_to@VUnitType@BWAPI@@@4@@std@@QAE@XZ 100d2c20 f i BWAPILIB:UnitType.obj
 0001:000d1c20       ??0?$_Uhash_compare@VUpgradeType@BWAPI@@U?$hash@H@std@@U?$equal_to@VUpgradeType@BWAPI@@@4@@std@@QAE@XZ 100d2c20 f i BWAPILIB:UnitType.obj
 0001:000d1c20       ??0?$_Uhash_compare@VWeaponType@BWAPI@@U?$hash@H@std@@U?$equal_to@VWeaponType@BWAPI@@@4@@std@@QAE@XZ 100d2c20 f i BWAPILIB:WeaponType.obj
 0001:000d1c50       ??0?$_Uninitialized_backout@PAV?$_List_unchecked_const_iterator@V?$_List_val@U?$_List_simple_types@VBulletType@BWAPI@@@std@@@std@@U_Iterator_base0@2@@std@@@std@@QAE@PAV?$_List_unchecked_const_iterator@V?$_List_val@U?$_List_simple_types@VBulletType@BWAPI@@@std@@@std@@U_Iterator_base0@2@@1@@Z 100d2c50 f i BWAPILIB:BulletType.obj
 0001:000d1c50       ??0?$_Uninitialized_backout@PAV?$_List_unchecked_const_iterator@V?$_List_val@U?$_List_simple_types@VOrder@BWAPI@@@std@@@std@@U_Iterator_base0@2@@std@@@std@@QAE@PAV?$_List_unchecked_const_iterator@V?$_List_val@U?$_List_simple_types@VOrder@BWAPI@@@std@@@std@@U_Iterator_base0@2@@1@@Z 100d2c50 f i BWAPILIB:Order.obj
 0001:000d1c50       ??0?$_Uninitialized_backout@PAV?$_List_unchecked_const_iterator@V?$_List_val@U?$_List_simple_types@VRace@BWAPI@@@std@@@std@@U_Iterator_base0@2@@std@@@std@@QAE@PAV?$_List_unchecked_const_iterator@V?$_List_val@U?$_List_simple_types@VRace@BWAPI@@@std@@@std@@U_Iterator_base0@2@@1@@Z 100d2c50 f i BWAPILIB:Race.obj
 0001:000d1c50       ??0?$_Uninitialized_backout@PAV?$_List_unchecked_const_iterator@V?$_List_val@U?$_List_simple_types@VTechType@BWAPI@@@std@@@std@@U_Iterator_base0@2@@std@@@std@@QAE@PAV?$_List_unchecked_const_iterator@V?$_List_val@U?$_List_simple_types@VTechType@BWAPI@@@std@@@std@@U_Iterator_base0@2@@1@@Z 100d2c50 f i BWAPILIB:UnitType.obj
 0001:000d1c50       ??0?$_Uninitialized_backout@PAV?$_List_unchecked_const_iterator@V?$_List_val@U?$_List_simple_types@VUnitType@BWAPI@@@std@@@std@@U_Iterator_base0@2@@std@@@std@@QAE@PAV?$_List_unchecked_const_iterator@V?$_List_val@U?$_List_simple_types@VUnitType@BWAPI@@@std@@@std@@U_Iterator_base0@2@@1@@Z 100d2c50 f i BWAPILIB:UnitType.obj
 0001:000d1c50       ??0?$_Uninitialized_backout@PAV?$_List_unchecked_const_iterator@V?$_List_val@U?$_List_simple_types@VUpgradeType@BWAPI@@@std@@@std@@U_Iterator_base0@2@@std@@@std@@QAE@PAV?$_List_unchecked_const_iterator@V?$_List_val@U?$_List_simple_types@VUpgradeType@BWAPI@@@std@@@std@@U_Iterator_base0@2@@1@@Z 100d2c50 f i BWAPILIB:UnitType.obj
 0001:000d1c50       ??0?$_Uninitialized_backout@PAV?$_List_unchecked_const_iterator@V?$_List_val@U?$_List_simple_types@VWeaponType@BWAPI@@@std@@@std@@U_Iterator_base0@2@@std@@@std@@QAE@PAV?$_List_unchecked_const_iterator@V?$_List_val@U?$_List_simple_types@VWeaponType@BWAPI@@@std@@@std@@U_Iterator_base0@2@@1@@Z 100d2c50 f i BWAPILIB:WeaponType.obj
 0001:000d1c80       ??0?$_Uset_traits@VBulletType@BWAPI@@V?$_Uhash_compare@VBulletType@BWAPI@@U?$hash@H@std@@U?$equal_to@VBulletType@BWAPI@@@4@@std@@V?$allocator@VBulletType@BWAPI@@@4@$0A@@std@@QAE@ABV?$_Uhash_compare@VBulletType@BWAPI@@U?$hash@H@std@@U?$equal_to@VBulletType@BWAPI@@@4@@1@@Z 100d2c80 f i BWAPILIB:BulletType.obj
 0001:000d1c80       ??0?$_Uset_traits@VOrder@BWAPI@@V?$_Uhash_compare@VOrder@BWAPI@@U?$hash@H@std@@U?$equal_to@VOrder@BWAPI@@@4@@std@@V?$allocator@VOrder@BWAPI@@@4@$0A@@std@@QAE@ABV?$_Uhash_compare@VOrder@BWAPI@@U?$hash@H@std@@U?$equal_to@VOrder@BWAPI@@@4@@1@@Z 100d2c80 f i BWAPILIB:Order.obj
 0001:000d1c80       ??0?$_Uset_traits@VRace@BWAPI@@V?$_Uhash_compare@VRace@BWAPI@@U?$hash@H@std@@U?$equal_to@VRace@BWAPI@@@4@@std@@V?$allocator@VRace@BWAPI@@@4@$0A@@std@@QAE@ABV?$_Uhash_compare@VRace@BWAPI@@U?$hash@H@std@@U?$equal_to@VRace@BWAPI@@@4@@1@@Z 100d2c80 f i BWAPILIB:Race.obj
 0001:000d1c80       ??0?$_Uset_traits@VTechType@BWAPI@@V?$_Uhash_compare@VTechType@BWAPI@@U?$hash@H@std@@U?$equal_to@VTechType@BWAPI@@@4@@std@@V?$allocator@VTechType@BWAPI@@@4@$0A@@std@@QAE@ABV?$_Uhash_compare@VTechType@BWAPI@@U?$hash@H@std@@U?$equal_to@VTechType@BWAPI@@@4@@1@@Z 100d2c80 f i BWAPILIB:UnitType.obj
 0001:000d1c80       ??0?$_Uset_traits@VUnitType@BWAPI@@V?$_Uhash_compare@VUnitType@BWAPI@@U?$hash@H@std@@U?$equal_to@VUnitType@BWAPI@@@4@@std@@V?$allocator@VUnitType@BWAPI@@@4@$0A@@std@@QAE@ABV?$_Uhash_compare@VUnitType@BWAPI@@U?$hash@H@std@@U?$equal_to@VUnitType@BWAPI@@@4@@1@@Z 100d2c80 f i BWAPILIB:UnitType.obj
 0001:000d1c80       ??0?$_Uset_traits@VUpgradeType@BWAPI@@V?$_Uhash_compare@VUpgradeType@BWAPI@@U?$hash@H@std@@U?$equal_to@VUpgradeType@BWAPI@@@4@@std@@V?$allocator@VUpgradeType@BWAPI@@@4@$0A@@std@@QAE@ABV?$_Uhash_compare@VUpgradeType@BWAPI@@U?$hash@H@std@@U?$equal_to@VUpgradeType@BWAPI@@@4@@1@@Z 100d2c80 f i BWAPILIB:UnitType.obj
 0001:000d1c80       ??0?$_Uset_traits@VWeaponType@BWAPI@@V?$_Uhash_compare@VWeaponType@BWAPI@@U?$hash@H@std@@U?$equal_to@VWeaponType@BWAPI@@@4@@std@@V?$allocator@VWeaponType@BWAPI@@@4@$0A@@std@@QAE@ABV?$_Uhash_compare@VWeaponType@BWAPI@@U?$hash@H@std@@U?$equal_to@VWeaponType@BWAPI@@@4@@1@@Z 100d2c80 f i BWAPILIB:WeaponType.obj
 0001:000d1ca0       ??0?$_Vector_val@U?$_Simple_types@V?$_List_unchecked_const_iterator@V?$_List_val@U?$_List_simple_types@VBulletType@BWAPI@@@std@@@std@@U_Iterator_base0@2@@std@@@std@@@std@@QAE@XZ 100d2ca0 f i BWAPILIB:BulletType.obj
 0001:000d1ca0       ??0?$_Vector_val@U?$_Simple_types@V?$_List_unchecked_const_iterator@V?$_List_val@U?$_List_simple_types@VOrder@BWAPI@@@std@@@std@@U_Iterator_base0@2@@std@@@std@@@std@@QAE@XZ 100d2ca0 f i BWAPILIB:Order.obj
 0001:000d1ca0       ??0?$_Vector_val@U?$_Simple_types@V?$_List_unchecked_const_iterator@V?$_List_val@U?$_List_simple_types@VRace@BWAPI@@@std@@@std@@U_Iterator_base0@2@@std@@@std@@@std@@QAE@XZ 100d2ca0 f i BWAPILIB:Race.obj
 0001:000d1ca0       ??0?$_Vector_val@U?$_Simple_types@V?$_List_unchecked_const_iterator@V?$_List_val@U?$_List_simple_types@VTechType@BWAPI@@@std@@@std@@U_Iterator_base0@2@@std@@@std@@@std@@QAE@XZ 100d2ca0 f i BWAPILIB:UnitType.obj
 0001:000d1ca0       ??0?$_Vector_val@U?$_Simple_types@V?$_List_unchecked_const_iterator@V?$_List_val@U?$_List_simple_types@VUnitType@BWAPI@@@std@@@std@@U_Iterator_base0@2@@std@@@std@@@std@@QAE@XZ 100d2ca0 f i BWAPILIB:UnitType.obj
 0001:000d1ca0       ??0?$_Vector_val@U?$_Simple_types@V?$_List_unchecked_const_iterator@V?$_List_val@U?$_List_simple_types@VUpgradeType@BWAPI@@@std@@@std@@U_Iterator_base0@2@@std@@@std@@@std@@QAE@XZ 100d2ca0 f i BWAPILIB:UnitType.obj
 0001:000d1ca0       ??0?$_Vector_val@U?$_Simple_types@V?$_List_unchecked_const_iterator@V?$_List_val@U?$_List_simple_types@VWeaponType@BWAPI@@@std@@@std@@U_Iterator_base0@2@@std@@@std@@@std@@QAE@XZ 100d2ca0 f i BWAPILIB:WeaponType.obj
 0001:000d1cd0       ??0?$_Vector_val@U?$_Simple_types@V?$map@VUnitType@BWAPI@@HU?$less@VUnitType@BWAPI@@@std@@V?$allocator@U?$pair@$$CBVUnitType@BWAPI@@H@std@@@4@@std@@@std@@@std@@QAE@PAV?$map@VUnitType@BWAPI@@HU?$less@VUnitType@BWAPI@@@std@@V?$allocator@U?$pair@$$CBVUnitType@BWAPI@@H@std@@@4@@1@00@Z 100d2cd0 f i BWAPILIB:UnitType.obj
 0001:000d1d00       ??0?$allocator@VBulletType@BWAPI@@@std@@QAE@XZ 100d2d00 f i BWAPILIB:BulletType.obj
 0001:000d1d00       ??0?$allocator@VOrder@BWAPI@@@std@@QAE@XZ 100d2d00 f i BWAPILIB:Order.obj
 0001:000d1d00       ??0?$allocator@VRace@BWAPI@@@std@@QAE@XZ 100d2d00 f i BWAPILIB:Race.obj
 0001:000d1d00       ??0?$allocator@VTechType@BWAPI@@@std@@QAE@XZ 100d2d00 f i BWAPILIB:UnitType.obj
 0001:000d1d00       ??0?$allocator@VWeaponType@BWAPI@@@std@@QAE@XZ 100d2d00 f i BWAPILIB:WeaponType.obj
 0001:000d1d00       ?_Get_first@?$_Compressed_pair@U?$equal_to@VBulletType@BWAPI@@@std@@M$00@std@@QBEABU?$equal_to@VBulletType@BWAPI@@@2@XZ 100d2d00 f i BWAPILIB:BulletType.obj
 0001:000d1d00       ?_Get_first@?$_Compressed_pair@U?$equal_to@VOrder@BWAPI@@@std@@M$00@std@@QBEABU?$equal_to@VOrder@BWAPI@@@2@XZ 100d2d00 f i BWAPILIB:Order.obj
 0001:000d1d00       ?_Get_first@?$_Compressed_pair@U?$equal_to@VRace@BWAPI@@@std@@M$00@std@@QBEABU?$equal_to@VRace@BWAPI@@@2@XZ 100d2d00 f i BWAPILIB:Race.obj
 0001:000d1d00       ?_Get_first@?$_Compressed_pair@U?$equal_to@VTechType@BWAPI@@@std@@M$00@std@@QBEABU?$equal_to@VTechType@BWAPI@@@2@XZ 100d2d00 f i BWAPILIB:UnitType.obj
 0001:000d1d00       ?_Get_first@?$_Compressed_pair@U?$equal_to@VUnitType@BWAPI@@@std@@M$00@std@@QBEABU?$equal_to@VUnitType@BWAPI@@@2@XZ 100d2d00 f i BWAPILIB:UnitType.obj
 0001:000d1d00       ?_Get_first@?$_Compressed_pair@U?$equal_to@VUpgradeType@BWAPI@@@std@@M$00@std@@QBEABU?$equal_to@VUpgradeType@BWAPI@@@2@XZ 100d2d00 f i BWAPILIB:UnitType.obj
 0001:000d1d00       ?_Get_first@?$_Compressed_pair@U?$equal_to@VWeaponType@BWAPI@@@std@@M$00@std@@QBEABU?$equal_to@VWeaponType@BWAPI@@@2@XZ 100d2d00 f i BWAPILIB:WeaponType.obj
 0001:000d1d00       ?_Get_first@?$_Compressed_pair@U?$hash@H@std@@V?$_Compressed_pair@U?$equal_to@VBulletType@BWAPI@@@std@@M$00@2@$00@std@@QBEABU?$hash@H@2@XZ 100d2d00 f i BWAPILIB:BulletType.obj
 0001:000d1d00       ?_Get_first@?$_Compressed_pair@U?$hash@H@std@@V?$_Compressed_pair@U?$equal_to@VOrder@BWAPI@@@std@@M$00@2@$00@std@@QBEABU?$hash@H@2@XZ 100d2d00 f i BWAPILIB:Order.obj
 0001:000d1d00       ?_Get_first@?$_Compressed_pair@U?$hash@H@std@@V?$_Compressed_pair@U?$equal_to@VRace@BWAPI@@@std@@M$00@2@$00@std@@QBEABU?$hash@H@2@XZ 100d2d00 f i BWAPILIB:Race.obj
 0001:000d1d00       ?_Get_first@?$_Compressed_pair@U?$hash@H@std@@V?$_Compressed_pair@U?$equal_to@VTechType@BWAPI@@@std@@M$00@2@$00@std@@QBEABU?$hash@H@2@XZ 100d2d00 f i BWAPILIB:UnitType.obj
 0001:000d1d00       ?_Get_first@?$_Compressed_pair@U?$hash@H@std@@V?$_Compressed_pair@U?$equal_to@VUnitType@BWAPI@@@std@@M$00@2@$00@std@@QBEABU?$hash@H@2@XZ 100d2d00 f i BWAPILIB:UnitType.obj
 0001:000d1d00       ?_Get_first@?$_Compressed_pair@U?$hash@H@std@@V?$_Compressed_pair@U?$equal_to@VUpgradeType@BWAPI@@@std@@M$00@2@$00@std@@QBEABU?$hash@H@2@XZ 100d2d00 f i BWAPILIB:UnitType.obj
 0001:000d1d00       ?_Get_first@?$_Compressed_pair@U?$hash@H@std@@V?$_Compressed_pair@U?$equal_to@VWeaponType@BWAPI@@@std@@M$00@2@$00@std@@QBEABU?$hash@H@2@XZ 100d2d00 f i BWAPILIB:WeaponType.obj
 0001:000d1d00       ?_Get_first@?$_Compressed_pair@V?$allocator@U?$_List_node@VBulletType@BWAPI@@PAX@std@@@std@@V?$_List_val@U?$_List_simple_types@VBulletType@BWAPI@@@std@@@2@$00@std@@QAEAAV?$allocator@U?$_List_node@VBulletType@BWAPI@@PAX@std@@@2@XZ 100d2d00 f i BWAPILIB:BulletType.obj
 0001:000d1d00       ?_Get_first@?$_Compressed_pair@V?$allocator@U?$_List_node@VBulletType@BWAPI@@PAX@std@@@std@@V?$_List_val@U?$_List_simple_types@VBulletType@BWAPI@@@std@@@2@$00@std@@QBEABV?$allocator@U?$_List_node@VBulletType@BWAPI@@PAX@std@@@2@XZ 100d2d00 f i BWAPILIB:BulletType.obj
 0001:000d1d00       ?_Get_first@?$_Compressed_pair@V?$allocator@U?$_List_node@VOrder@BWAPI@@PAX@std@@@std@@V?$_List_val@U?$_List_simple_types@VOrder@BWAPI@@@std@@@2@$00@std@@QAEAAV?$allocator@U?$_List_node@VOrder@BWAPI@@PAX@std@@@2@XZ 100d2d00 f i BWAPILIB:Order.obj
 0001:000d1d00       ?_Get_first@?$_Compressed_pair@V?$allocator@U?$_List_node@VOrder@BWAPI@@PAX@std@@@std@@V?$_List_val@U?$_List_simple_types@VOrder@BWAPI@@@std@@@2@$00@std@@QBEABV?$allocator@U?$_List_node@VOrder@BWAPI@@PAX@std@@@2@XZ 100d2d00 f i BWAPILIB:Order.obj
 0001:000d1d00       ?_Get_first@?$_Compressed_pair@V?$allocator@U?$_List_node@VRace@BWAPI@@PAX@std@@@std@@V?$_List_val@U?$_List_simple_types@VRace@BWAPI@@@std@@@2@$00@std@@QAEAAV?$allocator@U?$_List_node@VRace@BWAPI@@PAX@std@@@2@XZ 100d2d00 f i BWAPILIB:Race.obj
 0001:000d1d00       ?_Get_first@?$_Compressed_pair@V?$allocator@U?$_List_node@VRace@BWAPI@@PAX@std@@@std@@V?$_List_val@U?$_List_simple_types@VRace@BWAPI@@@std@@@2@$00@std@@QBEABV?$allocator@U?$_List_node@VRace@BWAPI@@PAX@std@@@2@XZ 100d2d00 f i BWAPILIB:Race.obj
 0001:000d1d00       ?_Get_first@?$_Compressed_pair@V?$allocator@U?$_List_node@VTechType@BWAPI@@PAX@std@@@std@@V?$_List_val@U?$_List_simple_types@VTechType@BWAPI@@@std@@@2@$00@std@@QAEAAV?$allocator@U?$_List_node@VTechType@BWAPI@@PAX@std@@@2@XZ 100d2d00 f i BWAPILIB:UnitType.obj
 0001:000d1d00       ?_Get_first@?$_Compressed_pair@V?$allocator@U?$_List_node@VTechType@BWAPI@@PAX@std@@@std@@V?$_List_val@U?$_List_simple_types@VTechType@BWAPI@@@std@@@2@$00@std@@QBEABV?$allocator@U?$_List_node@VTechType@BWAPI@@PAX@std@@@2@XZ 100d2d00 f i BWAPILIB:UnitType.obj
 0001:000d1d00       ?_Get_first@?$_Compressed_pair@V?$allocator@U?$_List_node@VUnitType@BWAPI@@PAX@std@@@std@@V?$_List_val@U?$_List_simple_types@VUnitType@BWAPI@@@std@@@2@$00@std@@QAEAAV?$allocator@U?$_List_node@VUnitType@BWAPI@@PAX@std@@@2@XZ 100d2d00 f i BWAPILIB:UnitType.obj
 0001:000d1d00       ?_Get_first@?$_Compressed_pair@V?$allocator@U?$_List_node@VUnitType@BWAPI@@PAX@std@@@std@@V?$_List_val@U?$_List_simple_types@VUnitType@BWAPI@@@std@@@2@$00@std@@QBEABV?$allocator@U?$_List_node@VUnitType@BWAPI@@PAX@std@@@2@XZ 100d2d00 f i BWAPILIB:UnitType.obj
 0001:000d1d00       ?_Get_first@?$_Compressed_pair@V?$allocator@U?$_List_node@VUpgradeType@BWAPI@@PAX@std@@@std@@V?$_List_val@U?$_List_simple_types@VUpgradeType@BWAPI@@@std@@@2@$00@std@@QAEAAV?$allocator@U?$_List_node@VUpgradeType@BWAPI@@PAX@std@@@2@XZ 100d2d00 f i BWAPILIB:UnitType.obj
 0001:000d1d00       ?_Get_first@?$_Compressed_pair@V?$allocator@U?$_List_node@VUpgradeType@BWAPI@@PAX@std@@@std@@V?$_List_val@U?$_List_simple_types@VUpgradeType@BWAPI@@@std@@@2@$00@std@@QBEABV?$allocator@U?$_List_node@VUpgradeType@BWAPI@@PAX@std@@@2@XZ 100d2d00 f i BWAPILIB:UnitType.obj
 0001:000d1d00       ?_Get_first@?$_Compressed_pair@V?$allocator@U?$_List_node@VWeaponType@BWAPI@@PAX@std@@@std@@V?$_List_val@U?$_List_simple_types@VWeaponType@BWAPI@@@std@@@2@$00@std@@QAEAAV?$allocator@U?$_List_node@VWeaponType@BWAPI@@PAX@std@@@2@XZ 100d2d00 f i BWAPILIB:WeaponType.obj
 0001:000d1d00       ?_Get_first@?$_Compressed_pair@V?$allocator@U?$_List_node@VWeaponType@BWAPI@@PAX@std@@@std@@V?$_List_val@U?$_List_simple_types@VWeaponType@BWAPI@@@std@@@2@$00@std@@QBEABV?$allocator@U?$_List_node@VWeaponType@BWAPI@@PAX@std@@@2@XZ 100d2d00 f i BWAPILIB:WeaponType.obj
 0001:000d1d00       ?_Get_first@?$_Compressed_pair@V?$allocator@V?$_List_unchecked_const_iterator@V?$_List_val@U?$_List_simple_types@VBulletType@BWAPI@@@std@@@std@@U_Iterator_base0@2@@std@@@std@@V?$_Vector_val@U?$_Simple_types@V?$_List_unchecked_const_iterator@V?$_List_val@U?$_List_simple_types@VBulletType@BWAPI@@@std@@@std@@U_Iterator_base0@2@@std@@@std@@@2@$00@std@@QAEAAV?$allocator@V?$_List_unchecked_const_iterator@V?$_List_val@U?$_List_simple_types@VBulletType@BWAPI@@@std@@@std@@U_Iterator_base0@2@@std@@@2@XZ 100d2d00 f i BWAPILIB:BulletType.obj
 0001:000d1d00       ?_Get_first@?$_Compressed_pair@V?$allocator@V?$_List_unchecked_const_iterator@V?$_List_val@U?$_List_simple_types@VBulletType@BWAPI@@@std@@@std@@U_Iterator_base0@2@@std@@@std@@V?$_Vector_val@U?$_Simple_types@V?$_List_unchecked_const_iterator@V?$_List_val@U?$_List_simple_types@VBulletType@BWAPI@@@std@@@std@@U_Iterator_base0@2@@std@@@std@@@2@$00@std@@QBEABV?$allocator@V?$_List_unchecked_const_iterator@V?$_List_val@U?$_List_simple_types@VBulletType@BWAPI@@@std@@@std@@U_Iterator_base0@2@@std@@@2@XZ 100d2d00 f i BWAPILIB:BulletType.obj
 0001:000d1d00       ?_Get_first@?$_Compressed_pair@V?$allocator@V?$_List_unchecked_const_iterator@V?$_List_val@U?$_List_simple_types@VOrder@BWAPI@@@std@@@std@@U_Iterator_base0@2@@std@@@std@@V?$_Vector_val@U?$_Simple_types@V?$_List_unchecked_const_iterator@V?$_List_val@U?$_List_simple_types@VOrder@BWAPI@@@std@@@std@@U_Iterator_base0@2@@std@@@std@@@2@$00@std@@QAEAAV?$allocator@V?$_List_unchecked_const_iterator@V?$_List_val@U?$_List_simple_types@VOrder@BWAPI@@@std@@@std@@U_Iterator_base0@2@@std@@@2@XZ 100d2d00 f i BWAPILIB:Order.obj
 0001:000d1d00       ?_Get_first@?$_Compressed_pair@V?$allocator@V?$_List_unchecked_const_iterator@V?$_List_val@U?$_List_simple_types@VOrder@BWAPI@@@std@@@std@@U_Iterator_base0@2@@std@@@std@@V?$_Vector_val@U?$_Simple_types@V?$_List_unchecked_const_iterator@V?$_List_val@U?$_List_simple_types@VOrder@BWAPI@@@std@@@std@@U_Iterator_base0@2@@std@@@std@@@2@$00@std@@QBEABV?$allocator@V?$_List_unchecked_const_iterator@V?$_List_val@U?$_List_simple_types@VOrder@BWAPI@@@std@@@std@@U_Iterator_base0@2@@std@@@2@XZ 100d2d00 f i BWAPILIB:Order.obj
 0001:000d1d00       ?_Get_first@?$_Compressed_pair@V?$allocator@V?$_List_unchecked_const_iterator@V?$_List_val@U?$_List_simple_types@VRace@BWAPI@@@std@@@std@@U_Iterator_base0@2@@std@@@std@@V?$_Vector_val@U?$_Simple_types@V?$_List_unchecked_const_iterator@V?$_List_val@U?$_List_simple_types@VRace@BWAPI@@@std@@@std@@U_Iterator_base0@2@@std@@@std@@@2@$00@std@@QAEAAV?$allocator@V?$_List_unchecked_const_iterator@V?$_List_val@U?$_List_simple_types@VRace@BWAPI@@@std@@@std@@U_Iterator_base0@2@@std@@@2@XZ 100d2d00 f i BWAPILIB:Race.obj
 0001:000d1d00       ?_Get_first@?$_Compressed_pair@V?$allocator@V?$_List_unchecked_const_iterator@V?$_List_val@U?$_List_simple_types@VRace@BWAPI@@@std@@@std@@U_Iterator_base0@2@@std@@@std@@V?$_Vector_val@U?$_Simple_types@V?$_List_unchecked_const_iterator@V?$_List_val@U?$_List_simple_types@VRace@BWAPI@@@std@@@std@@U_Iterator_base0@2@@std@@@std@@@2@$00@std@@QBEABV?$allocator@V?$_List_unchecked_const_iterator@V?$_List_val@U?$_List_simple_types@VRace@BWAPI@@@std@@@std@@U_Iterator_base0@2@@std@@@2@XZ 100d2d00 f i BWAPILIB:Race.obj
 0001:000d1d00       ?_Get_first@?$_Compressed_pair@V?$allocator@V?$_List_unchecked_const_iterator@V?$_List_val@U?$_List_simple_types@VTechType@BWAPI@@@std@@@std@@U_Iterator_base0@2@@std@@@std@@V?$_Vector_val@U?$_Simple_types@V?$_List_unchecked_const_iterator@V?$_List_val@U?$_List_simple_types@VTechType@BWAPI@@@std@@@std@@U_Iterator_base0@2@@std@@@std@@@2@$00@std@@QAEAAV?$allocator@V?$_List_unchecked_const_iterator@V?$_List_val@U?$_List_simple_types@VTechType@BWAPI@@@std@@@std@@U_Iterator_base0@2@@std@@@2@XZ 100d2d00 f i BWAPILIB:UnitType.obj
 0001:000d1d00       ?_Get_first@?$_Compressed_pair@V?$allocator@V?$_List_unchecked_const_iterator@V?$_List_val@U?$_List_simple_types@VTechType@BWAPI@@@std@@@std@@U_Iterator_base0@2@@std@@@std@@V?$_Vector_val@U?$_Simple_types@V?$_List_unchecked_const_iterator@V?$_List_val@U?$_List_simple_types@VTechType@BWAPI@@@std@@@std@@U_Iterator_base0@2@@std@@@std@@@2@$00@std@@QBEABV?$allocator@V?$_List_unchecked_const_iterator@V?$_List_val@U?$_List_simple_types@VTechType@BWAPI@@@std@@@std@@U_Iterator_base0@2@@std@@@2@XZ 100d2d00 f i BWAPILIB:UnitType.obj
 0001:000d1d00       ?_Get_first@?$_Compressed_pair@V?$allocator@V?$_List_unchecked_const_iterator@V?$_List_val@U?$_List_simple_types@VUnitType@BWAPI@@@std@@@std@@U_Iterator_base0@2@@std@@@std@@V?$_Vector_val@U?$_Simple_types@V?$_List_unchecked_const_iterator@V?$_List_val@U?$_List_simple_types@VUnitType@BWAPI@@@std@@@std@@U_Iterator_base0@2@@std@@@std@@@2@$00@std@@QAEAAV?$allocator@V?$_List_unchecked_const_iterator@V?$_List_val@U?$_List_simple_types@VUnitType@BWAPI@@@std@@@std@@U_Iterator_base0@2@@std@@@2@XZ 100d2d00 f i BWAPILIB:UnitType.obj
 0001:000d1d00       ?_Get_first@?$_Compressed_pair@V?$allocator@V?$_List_unchecked_const_iterator@V?$_List_val@U?$_List_simple_types@VUnitType@BWAPI@@@std@@@std@@U_Iterator_base0@2@@std@@@std@@V?$_Vector_val@U?$_Simple_types@V?$_List_unchecked_const_iterator@V?$_List_val@U?$_List_simple_types@VUnitType@BWAPI@@@std@@@std@@U_Iterator_base0@2@@std@@@std@@@2@$00@std@@QBEABV?$allocator@V?$_List_unchecked_const_iterator@V?$_List_val@U?$_List_simple_types@VUnitType@BWAPI@@@std@@@std@@U_Iterator_base0@2@@std@@@2@XZ 100d2d00 f i BWAPILIB:UnitType.obj
 0001:000d1d00       ?_Get_first@?$_Compressed_pair@V?$allocator@V?$_List_unchecked_const_iterator@V?$_List_val@U?$_List_simple_types@VUpgradeType@BWAPI@@@std@@@std@@U_Iterator_base0@2@@std@@@std@@V?$_Vector_val@U?$_Simple_types@V?$_List_unchecked_const_iterator@V?$_List_val@U?$_List_simple_types@VUpgradeType@BWAPI@@@std@@@std@@U_Iterator_base0@2@@std@@@std@@@2@$00@std@@QAEAAV?$allocator@V?$_List_unchecked_const_iterator@V?$_List_val@U?$_List_simple_types@VUpgradeType@BWAPI@@@std@@@std@@U_Iterator_base0@2@@std@@@2@XZ 100d2d00 f i BWAPILIB:UnitType.obj
 0001:000d1d00       ?_Get_first@?$_Compressed_pair@V?$allocator@V?$_List_unchecked_const_iterator@V?$_List_val@U?$_List_simple_types@VUpgradeType@BWAPI@@@std@@@std@@U_Iterator_base0@2@@std@@@std@@V?$_Vector_val@U?$_Simple_types@V?$_List_unchecked_const_iterator@V?$_List_val@U?$_List_simple_types@VUpgradeType@BWAPI@@@std@@@std@@U_Iterator_base0@2@@std@@@std@@@2@$00@std@@QBEABV?$allocator@V?$_List_unchecked_const_iterator@V?$_List_val@U?$_List_simple_types@VUpgradeType@BWAPI@@@std@@@std@@U_Iterator_base0@2@@std@@@2@XZ 100d2d00 f i BWAPILIB:UnitType.obj
 0001:000d1d00       ?_Get_first@?$_Compressed_pair@V?$allocator@V?$_List_unchecked_const_iterator@V?$_List_val@U?$_List_simple_types@VWeaponType@BWAPI@@@std@@@std@@U_Iterator_base0@2@@std@@@std@@V?$_Vector_val@U?$_Simple_types@V?$_List_unchecked_const_iterator@V?$_List_val@U?$_List_simple_types@VWeaponType@BWAPI@@@std@@@std@@U_Iterator_base0@2@@std@@@std@@@2@$00@std@@QAEAAV?$allocator@V?$_List_unchecked_const_iterator@V?$_List_val@U?$_List_simple_types@VWeaponType@BWAPI@@@std@@@std@@U_Iterator_base0@2@@std@@@2@XZ 100d2d00 f i BWAPILIB:WeaponType.obj
 0001:000d1d00       ?_Get_first@?$_Compressed_pair@V?$allocator@V?$_List_unchecked_const_iterator@V?$_List_val@U?$_List_simple_types@VWeaponType@BWAPI@@@std@@@std@@U_Iterator_base0@2@@std@@@std@@V?$_Vector_val@U?$_Simple_types@V?$_List_unchecked_const_iterator@V?$_List_val@U?$_List_simple_types@VWeaponType@BWAPI@@@std@@@std@@U_Iterator_base0@2@@std@@@std@@@2@$00@std@@QBEABV?$allocator@V?$_List_unchecked_const_iterator@V?$_List_val@U?$_List_simple_types@VWeaponType@BWAPI@@@std@@@std@@U_Iterator_base0@2@@std@@@2@XZ 100d2d00 f i BWAPILIB:WeaponType.obj
 0001:000d1d00       ?_Get_max_bucket_size@?$_Uhash_compare@VBulletType@BWAPI@@U?$hash@H@std@@U?$equal_to@VBulletType@BWAPI@@@4@@std@@QAEAAMXZ 100d2d00 f i BWAPILIB:BulletType.obj
 0001:000d1d00       ?_Get_max_bucket_size@?$_Uhash_compare@VBulletType@BWAPI@@U?$hash@H@std@@U?$equal_to@VBulletType@BWAPI@@@4@@std@@QBEABMXZ 100d2d00 f i BWAPILIB:BulletType.obj
 0001:000d1d00       ?_Get_max_bucket_size@?$_Uhash_compare@VOrder@BWAPI@@U?$hash@H@std@@U?$equal_to@VOrder@BWAPI@@@4@@std@@QAEAAMXZ 100d2d00 f i BWAPILIB:Order.obj
 0001:000d1d00       ?_Get_max_bucket_size@?$_Uhash_compare@VOrder@BWAPI@@U?$hash@H@std@@U?$equal_to@VOrder@BWAPI@@@4@@std@@QBEABMXZ 100d2d00 f i BWAPILIB:Order.obj
 0001:000d1d00       ?_Get_max_bucket_size@?$_Uhash_compare@VRace@BWAPI@@U?$hash@H@std@@U?$equal_to@VRace@BWAPI@@@4@@std@@QAEAAMXZ 100d2d00 f i BWAPILIB:Race.obj
 0001:000d1d00       ?_Get_max_bucket_size@?$_Uhash_compare@VRace@BWAPI@@U?$hash@H@std@@U?$equal_to@VRace@BWAPI@@@4@@std@@QBEABMXZ 100d2d00 f i BWAPILIB:Race.obj
 0001:000d1d00       ?_Get_max_bucket_size@?$_Uhash_compare@VTechType@BWAPI@@U?$hash@H@std@@U?$equal_to@VTechType@BWAPI@@@4@@std@@QAEAAMXZ 100d2d00 f i BWAPILIB:UnitType.obj
 0001:000d1d00       ?_Get_max_bucket_size@?$_Uhash_compare@VTechType@BWAPI@@U?$hash@H@std@@U?$equal_to@VTechType@BWAPI@@@4@@std@@QBEABMXZ 100d2d00 f i BWAPILIB:UnitType.obj
 0001:000d1d00       ?_Get_max_bucket_size@?$_Uhash_compare@VUnitType@BWAPI@@U?$hash@H@std@@U?$equal_to@VUnitType@BWAPI@@@4@@std@@QAEAAMXZ 100d2d00 f i BWAPILIB:UnitType.obj
 0001:000d1d00       ?_Get_max_bucket_size@?$_Uhash_compare@VUnitType@BWAPI@@U?$hash@H@std@@U?$equal_to@VUnitType@BWAPI@@@4@@std@@QBEABMXZ 100d2d00 f i BWAPILIB:UnitType.obj
 0001:000d1d00       ?_Get_max_bucket_size@?$_Uhash_compare@VUpgradeType@BWAPI@@U?$hash@H@std@@U?$equal_to@VUpgradeType@BWAPI@@@4@@std@@QAEAAMXZ 100d2d00 f i BWAPILIB:UnitType.obj
 0001:000d1d00       ?_Get_max_bucket_size@?$_Uhash_compare@VUpgradeType@BWAPI@@U?$hash@H@std@@U?$equal_to@VUpgradeType@BWAPI@@@4@@std@@QBEABMXZ 100d2d00 f i BWAPILIB:UnitType.obj
 0001:000d1d00       ?_Get_max_bucket_size@?$_Uhash_compare@VWeaponType@BWAPI@@U?$hash@H@std@@U?$equal_to@VWeaponType@BWAPI@@@4@@std@@QAEAAMXZ 100d2d00 f i BWAPILIB:WeaponType.obj
 0001:000d1d00       ?_Get_max_bucket_size@?$_Uhash_compare@VWeaponType@BWAPI@@U?$hash@H@std@@U?$equal_to@VWeaponType@BWAPI@@@4@@std@@QBEABMXZ 100d2d00 f i BWAPILIB:WeaponType.obj
 0001:000d1d10       ??0?$initializer_list@VBulletType@BWAPI@@@std@@QAE@PBVBulletType@BWAPI@@0@Z 100d2d10 f i BWAPILIB:BulletType.obj
 0001:000d1d10       ??0?$initializer_list@VOrder@BWAPI@@@std@@QAE@PBVOrder@BWAPI@@0@Z 100d2d10 f i BWAPILIB:Order.obj
 0001:000d1d10       ??0?$initializer_list@VRace@BWAPI@@@std@@QAE@PBVRace@BWAPI@@0@Z 100d2d10 f i BWAPILIB:Race.obj
 0001:000d1d10       ??0?$initializer_list@VTechType@BWAPI@@@std@@QAE@PBVTechType@BWAPI@@0@Z 100d2d10 f i BWAPILIB:UnitType.obj
 0001:000d1d10       ??0?$initializer_list@VUnitType@BWAPI@@@std@@QAE@PBVUnitType@BWAPI@@0@Z 100d2d10 f i BWAPILIB:UnitType.obj
 0001:000d1d10       ??0?$initializer_list@VWeaponType@BWAPI@@@std@@QAE@PBVWeaponType@BWAPI@@0@Z 100d2d10 f i BWAPILIB:WeaponType.obj
 0001:000d1d40       ??0?$list@VBulletType@BWAPI@@V?$allocator@VBulletType@BWAPI@@@std@@@std@@QAE@ABV?$allocator@VBulletType@BWAPI@@@1@@Z 100d2d40 f i BWAPILIB:BulletType.obj
 0001:000d1d40       ??0?$list@VOrder@BWAPI@@V?$allocator@VOrder@BWAPI@@@std@@@std@@QAE@ABV?$allocator@VOrder@BWAPI@@@1@@Z 100d2d40 f i BWAPILIB:Order.obj
 0001:000d1d40       ??0?$list@VRace@BWAPI@@V?$allocator@VRace@BWAPI@@@std@@@std@@QAE@ABV?$allocator@VRace@BWAPI@@@1@@Z 100d2d40 f i BWAPILIB:Race.obj
 0001:000d1d40       ??0?$list@VTechType@BWAPI@@V?$allocator@VTechType@BWAPI@@@std@@@std@@QAE@ABV?$allocator@VTechType@BWAPI@@@1@@Z 100d2d40 f i BWAPILIB:UnitType.obj
 0001:000d1d40       ??0?$list@VUnitType@BWAPI@@V?$allocator@VUnitType@BWAPI@@@std@@@std@@QAE@ABV?$allocator@VUnitType@BWAPI@@@1@@Z 100d2d40 f i BWAPILIB:UnitType.obj
 0001:000d1d40       ??0?$list@VUpgradeType@BWAPI@@V?$allocator@VUpgradeType@BWAPI@@@std@@@std@@QAE@ABV?$allocator@VUpgradeType@BWAPI@@@1@@Z 100d2d40 f i BWAPILIB:UnitType.obj
 0001:000d1d40       ??0?$list@VWeaponType@BWAPI@@V?$allocator@VWeaponType@BWAPI@@@std@@@std@@QAE@ABV?$allocator@VWeaponType@BWAPI@@@1@@Z 100d2d40 f i BWAPILIB:WeaponType.obj
 0001:000d1d70       ??0?$unordered_set@VTechType@BWAPI@@U?$hash@H@std@@U?$equal_to@VTechType@BWAPI@@@4@V?$allocator@VTechType@BWAPI@@@4@@std@@QAE@V?$initializer_list@VTechType@BWAPI@@@1@@Z 100d2d70 f i BWAPILIB:UnitType.obj
 0001:000d1de0       ??0?$unordered_set@VTechType@BWAPI@@U?$hash@H@std@@U?$equal_to@VTechType@BWAPI@@@4@V?$allocator@VTechType@BWAPI@@@4@@std@@QAE@XZ 100d2de0 f i BWAPILIB:UnitType.obj
 0001:000d1e10       ??0?$unordered_set@VUnitType@BWAPI@@U?$hash@H@std@@U?$equal_to@VUnitType@BWAPI@@@4@V?$allocator@VUnitType@BWAPI@@@4@@std@@QAE@V?$initializer_list@VUnitType@BWAPI@@@1@@Z 100d2e10 f i BWAPILIB:UnitType.obj
 0001:000d1e80       ??0?$unordered_set@VUnitType@BWAPI@@U?$hash@H@std@@U?$equal_to@VUnitType@BWAPI@@@4@V?$allocator@VUnitType@BWAPI@@@4@@std@@QAE@XZ 100d2e80 f i BWAPILIB:UnitType.obj
 0001:000d1e80       ??0?$unordered_set@VUpgradeType@BWAPI@@U?$hash@H@std@@U?$equal_to@VUpgradeType@BWAPI@@@4@V?$allocator@VUpgradeType@BWAPI@@@4@@std@@QAE@XZ 100d2e80 f i BWAPILIB:UnitType.obj
 0001:000d1eb0       ??0?$unordered_set@VUpgradeType@BWAPI@@U?$hash@H@std@@U?$equal_to@VUpgradeType@BWAPI@@@4@V?$allocator@VUpgradeType@BWAPI@@@4@@std@@QAE@V?$initializer_list@VUpgradeType@BWAPI@@@1@@Z 100d2eb0 f i BWAPILIB:UnitType.obj
 0001:000d1f20       ??0?$vector@V?$map@VUnitType@BWAPI@@HU?$less@VUnitType@BWAPI@@@std@@V?$allocator@U?$pair@$$CBVUnitType@BWAPI@@H@std@@@4@@std@@V?$allocator@V?$map@VUnitType@BWAPI@@HU?$less@VUnitType@BWAPI@@@std@@V?$allocator@U?$pair@$$CBVUnitType@BWAPI@@H@std@@@4@@std@@@2@@std@@QAE@$$QAV01@@Z 100d2f20 f i BWAPILIB:UnitType.obj
 0001:000d1fe0       ??0_Clear_guard@?$_Hash@V?$_Uset_traits@VBulletType@BWAPI@@V?$_Uhash_compare@VBulletType@BWAPI@@U?$hash@H@std@@U?$equal_to@VBulletType@BWAPI@@@4@@std@@V?$allocator@VBulletType@BWAPI@@@4@$0A@@std@@@std@@QAE@QAV12@@Z 100d2fe0 f i BWAPILIB:BulletType.obj
 0001:000d1fe0       ??0_Clear_guard@?$_Hash@V?$_Uset_traits@VOrder@BWAPI@@V?$_Uhash_compare@VOrder@BWAPI@@U?$hash@H@std@@U?$equal_to@VOrder@BWAPI@@@4@@std@@V?$allocator@VOrder@BWAPI@@@4@$0A@@std@@@std@@QAE@QAV12@@Z 100d2fe0 f i BWAPILIB:Order.obj
 0001:000d1fe0       ??0_Clear_guard@?$_Hash@V?$_Uset_traits@VRace@BWAPI@@V?$_Uhash_compare@VRace@BWAPI@@U?$hash@H@std@@U?$equal_to@VRace@BWAPI@@@4@@std@@V?$allocator@VRace@BWAPI@@@4@$0A@@std@@@std@@QAE@QAV12@@Z 100d2fe0 f i BWAPILIB:Race.obj
 0001:000d1fe0       ??0_Clear_guard@?$_Hash@V?$_Uset_traits@VTechType@BWAPI@@V?$_Uhash_compare@VTechType@BWAPI@@U?$hash@H@std@@U?$equal_to@VTechType@BWAPI@@@4@@std@@V?$allocator@VTechType@BWAPI@@@4@$0A@@std@@@std@@QAE@QAV12@@Z 100d2fe0 f i BWAPILIB:UnitType.obj
 0001:000d1fe0       ??0_Clear_guard@?$_Hash@V?$_Uset_traits@VUnitType@BWAPI@@V?$_Uhash_compare@VUnitType@BWAPI@@U?$hash@H@std@@U?$equal_to@VUnitType@BWAPI@@@4@@std@@V?$allocator@VUnitType@BWAPI@@@4@$0A@@std@@@std@@QAE@QAV12@@Z 100d2fe0 f i BWAPILIB:UnitType.obj
 0001:000d1fe0       ??0_Clear_guard@?$_Hash@V?$_Uset_traits@VUpgradeType@BWAPI@@V?$_Uhash_compare@VUpgradeType@BWAPI@@U?$hash@H@std@@U?$equal_to@VUpgradeType@BWAPI@@@4@@std@@V?$allocator@VUpgradeType@BWAPI@@@4@$0A@@std@@@std@@QAE@QAV12@@Z 100d2fe0 f i BWAPILIB:UnitType.obj
 0001:000d1fe0       ??0_Clear_guard@?$_Hash@V?$_Uset_traits@VWeaponType@BWAPI@@V?$_Uhash_compare@VWeaponType@BWAPI@@U?$hash@H@std@@U?$equal_to@VWeaponType@BWAPI@@@4@@std@@V?$allocator@VWeaponType@BWAPI@@@4@$0A@@std@@@std@@QAE@QAV12@@Z 100d2fe0 f i BWAPILIB:WeaponType.obj
 0001:000d2000       ??1?$SetContainer@VBulletType@BWAPI@@U?$hash@H@std@@@BWAPI@@QAE@XZ 100d3000 f i BWAPILIB:BulletType.obj
 0001:000d2000       ??1?$SetContainer@VOrder@BWAPI@@U?$hash@H@std@@@BWAPI@@QAE@XZ 100d3000 f i BWAPILIB:Order.obj
 0001:000d2000       ??1?$SetContainer@VRace@BWAPI@@U?$hash@H@std@@@BWAPI@@QAE@XZ 100d3000 f i BWAPILIB:Race.obj
 0001:000d2000       ??1?$SetContainer@VTechType@BWAPI@@U?$hash@H@std@@@BWAPI@@QAE@XZ 100d3000 f i BWAPILIB:UnitType.obj
 0001:000d2000       ??1?$SetContainer@VUnitType@BWAPI@@U?$hash@H@std@@@BWAPI@@QAE@XZ 100d3000 f i BWAPILIB:UnitType.obj
 0001:000d2000       ??1?$SetContainer@VUpgradeType@BWAPI@@U?$hash@H@std@@@BWAPI@@QAE@XZ 100d3000 f i BWAPILIB:UnitType.obj
 0001:000d2000       ??1?$SetContainer@VWeaponType@BWAPI@@U?$hash@H@std@@@BWAPI@@QAE@XZ 100d3000 f i BWAPILIB:WeaponType.obj
 0001:000d2020       ??1?$_Alloc_construct_ptr@V?$allocator@U?$_List_node@VBulletType@BWAPI@@PAX@std@@@std@@@std@@QAE@XZ 100d3020 f i BWAPILIB:BulletType.obj
 0001:000d2020       ??1?$_Alloc_construct_ptr@V?$allocator@U?$_List_node@VOrder@BWAPI@@PAX@std@@@std@@@std@@QAE@XZ 100d3020 f i BWAPILIB:Order.obj
 0001:000d2020       ??1?$_Alloc_construct_ptr@V?$allocator@U?$_List_node@VRace@BWAPI@@PAX@std@@@std@@@std@@QAE@XZ 100d3020 f i BWAPILIB:Race.obj
 0001:000d2020       ??1?$_Alloc_construct_ptr@V?$allocator@U?$_List_node@VTechType@BWAPI@@PAX@std@@@std@@@std@@QAE@XZ 100d3020 f i BWAPILIB:UnitType.obj
 0001:000d2020       ??1?$_Alloc_construct_ptr@V?$allocator@U?$_List_node@VUnitType@BWAPI@@PAX@std@@@std@@@std@@QAE@XZ 100d3020 f i BWAPILIB:UnitType.obj
 0001:000d2020       ??1?$_Alloc_construct_ptr@V?$allocator@U?$_List_node@VUpgradeType@BWAPI@@PAX@std@@@std@@@std@@QAE@XZ 100d3020 f i BWAPILIB:UnitType.obj
 0001:000d2020       ??1?$_Alloc_construct_ptr@V?$allocator@U?$_List_node@VWeaponType@BWAPI@@PAX@std@@@std@@@std@@QAE@XZ 100d3020 f i BWAPILIB:WeaponType.obj
 0001:000d2050       ??1?$_Hash@V?$_Uset_traits@VBulletType@BWAPI@@V?$_Uhash_compare@VBulletType@BWAPI@@U?$hash@H@std@@U?$equal_to@VBulletType@BWAPI@@@4@@std@@V?$allocator@VBulletType@BWAPI@@@4@$0A@@std@@@std@@QAE@XZ 100d3050 f i BWAPILIB:BulletType.obj
 0001:000d2050       ??1?$_Hash@V?$_Uset_traits@VOrder@BWAPI@@V?$_Uhash_compare@VOrder@BWAPI@@U?$hash@H@std@@U?$equal_to@VOrder@BWAPI@@@4@@std@@V?$allocator@VOrder@BWAPI@@@4@$0A@@std@@@std@@QAE@XZ 100d3050 f i BWAPILIB:Order.obj
 0001:000d2050       ??1?$_Hash@V?$_Uset_traits@VRace@BWAPI@@V?$_Uhash_compare@VRace@BWAPI@@U?$hash@H@std@@U?$equal_to@VRace@BWAPI@@@4@@std@@V?$allocator@VRace@BWAPI@@@4@$0A@@std@@@std@@QAE@XZ 100d3050 f i BWAPILIB:Race.obj
 0001:000d2050       ??1?$_Hash@V?$_Uset_traits@VTechType@BWAPI@@V?$_Uhash_compare@VTechType@BWAPI@@U?$hash@H@std@@U?$equal_to@VTechType@BWAPI@@@4@@std@@V?$allocator@VTechType@BWAPI@@@4@$0A@@std@@@std@@QAE@XZ 100d3050 f i BWAPILIB:UnitType.obj
 0001:000d2050       ??1?$_Hash@V?$_Uset_traits@VUnitType@BWAPI@@V?$_Uhash_compare@VUnitType@BWAPI@@U?$hash@H@std@@U?$equal_to@VUnitType@BWAPI@@@4@@std@@V?$allocator@VUnitType@BWAPI@@@4@$0A@@std@@@std@@QAE@XZ 100d3050 f i BWAPILIB:UnitType.obj
 0001:000d2050       ??1?$_Hash@V?$_Uset_traits@VUpgradeType@BWAPI@@V?$_Uhash_compare@VUpgradeType@BWAPI@@U?$hash@H@std@@U?$equal_to@VUpgradeType@BWAPI@@@4@@std@@V?$allocator@VUpgradeType@BWAPI@@@4@$0A@@std@@@std@@QAE@XZ 100d3050 f i BWAPILIB:UnitType.obj
 0001:000d2050       ??1?$_Hash@V?$_Uset_traits@VWeaponType@BWAPI@@V?$_Uhash_compare@VWeaponType@BWAPI@@U?$hash@H@std@@U?$equal_to@VWeaponType@BWAPI@@@4@@std@@V?$allocator@VWeaponType@BWAPI@@@4@$0A@@std@@@std@@QAE@XZ 100d3050 f i BWAPILIB:WeaponType.obj
 0001:000d2080       ??1?$_Hash_vec@V?$allocator@V?$_List_unchecked_const_iterator@V?$_List_val@U?$_List_simple_types@VBulletType@BWAPI@@@std@@@std@@U_Iterator_base0@2@@std@@@std@@@std@@QAE@XZ 100d3080 f i BWAPILIB:BulletType.obj
 0001:000d2080       ??1?$_Hash_vec@V?$allocator@V?$_List_unchecked_const_iterator@V?$_List_val@U?$_List_simple_types@VOrder@BWAPI@@@std@@@std@@U_Iterator_base0@2@@std@@@std@@@std@@QAE@XZ 100d3080 f i BWAPILIB:Order.obj
 0001:000d2080       ??1?$_Hash_vec@V?$allocator@V?$_List_unchecked_const_iterator@V?$_List_val@U?$_List_simple_types@VRace@BWAPI@@@std@@@std@@U_Iterator_base0@2@@std@@@std@@@std@@QAE@XZ 100d3080 f i BWAPILIB:Race.obj
 0001:000d2080       ??1?$_Hash_vec@V?$allocator@V?$_List_unchecked_const_iterator@V?$_List_val@U?$_List_simple_types@VTechType@BWAPI@@@std@@@std@@U_Iterator_base0@2@@std@@@std@@@std@@QAE@XZ 100d3080 f i BWAPILIB:UnitType.obj
 0001:000d2080       ??1?$_Hash_vec@V?$allocator@V?$_List_unchecked_const_iterator@V?$_List_val@U?$_List_simple_types@VUnitType@BWAPI@@@std@@@std@@U_Iterator_base0@2@@std@@@std@@@std@@QAE@XZ 100d3080 f i BWAPILIB:UnitType.obj
 0001:000d2080       ??1?$_Hash_vec@V?$allocator@V?$_List_unchecked_const_iterator@V?$_List_val@U?$_List_simple_types@VUpgradeType@BWAPI@@@std@@@std@@U_Iterator_base0@2@@std@@@std@@@std@@QAE@XZ 100d3080 f i BWAPILIB:UnitType.obj
 0001:000d2080       ??1?$_Hash_vec@V?$allocator@V?$_List_unchecked_const_iterator@V?$_List_val@U?$_List_simple_types@VWeaponType@BWAPI@@@std@@@std@@U_Iterator_base0@2@@std@@@std@@@std@@QAE@XZ 100d3080 f i BWAPILIB:WeaponType.obj
 0001:000d20a0       ??1?$_List_node_emplace_op2@V?$allocator@U?$_List_node@VBulletType@BWAPI@@PAX@std@@@std@@@std@@QAE@XZ 100d30a0 f i BWAPILIB:BulletType.obj
 0001:000d20a0       ??1?$_List_node_emplace_op2@V?$allocator@U?$_List_node@VOrder@BWAPI@@PAX@std@@@std@@@std@@QAE@XZ 100d30a0 f i BWAPILIB:Order.obj
 0001:000d20a0       ??1?$_List_node_emplace_op2@V?$allocator@U?$_List_node@VRace@BWAPI@@PAX@std@@@std@@@std@@QAE@XZ 100d30a0 f i BWAPILIB:Race.obj
 0001:000d20a0       ??1?$_List_node_emplace_op2@V?$allocator@U?$_List_node@VTechType@BWAPI@@PAX@std@@@std@@@std@@QAE@XZ 100d30a0 f i BWAPILIB:UnitType.obj
 0001:000d20a0       ??1?$_List_node_emplace_op2@V?$allocator@U?$_List_node@VUnitType@BWAPI@@PAX@std@@@std@@@std@@QAE@XZ 100d30a0 f i BWAPILIB:UnitType.obj
 0001:000d20a0       ??1?$_List_node_emplace_op2@V?$allocator@U?$_List_node@VUpgradeType@BWAPI@@PAX@std@@@std@@@std@@QAE@XZ 100d30a0 f i BWAPILIB:UnitType.obj
 0001:000d20a0       ??1?$_List_node_emplace_op2@V?$allocator@U?$_List_node@VWeaponType@BWAPI@@PAX@std@@@std@@@std@@QAE@XZ 100d30a0 f i BWAPILIB:WeaponType.obj
 0001:000d2110       ??1?$_Uninitialized_backout@PAV?$_List_unchecked_const_iterator@V?$_List_val@U?$_List_simple_types@VBulletType@BWAPI@@@std@@@std@@U_Iterator_base0@2@@std@@@std@@QAE@XZ 100d3110 f i BWAPILIB:BulletType.obj
 0001:000d2110       ??1?$_Uninitialized_backout@PAV?$_List_unchecked_const_iterator@V?$_List_val@U?$_List_simple_types@VOrder@BWAPI@@@std@@@std@@U_Iterator_base0@2@@std@@@std@@QAE@XZ 100d3110 f i BWAPILIB:Order.obj
 0001:000d2110       ??1?$_Uninitialized_backout@PAV?$_List_unchecked_const_iterator@V?$_List_val@U?$_List_simple_types@VRace@BWAPI@@@std@@@std@@U_Iterator_base0@2@@std@@@std@@QAE@XZ 100d3110 f i BWAPILIB:Race.obj
 0001:000d2110       ??1?$_Uninitialized_backout@PAV?$_List_unchecked_const_iterator@V?$_List_val@U?$_List_simple_types@VTechType@BWAPI@@@std@@@std@@U_Iterator_base0@2@@std@@@std@@QAE@XZ 100d3110 f i BWAPILIB:UnitType.obj
 0001:000d2110       ??1?$_Uninitialized_backout@PAV?$_List_unchecked_const_iterator@V?$_List_val@U?$_List_simple_types@VUnitType@BWAPI@@@std@@@std@@U_Iterator_base0@2@@std@@@std@@QAE@XZ 100d3110 f i BWAPILIB:UnitType.obj
 0001:000d2110       ??1?$_Uninitialized_backout@PAV?$_List_unchecked_const_iterator@V?$_List_val@U?$_List_simple_types@VUpgradeType@BWAPI@@@std@@@std@@U_Iterator_base0@2@@std@@@std@@QAE@XZ 100d3110 f i BWAPILIB:UnitType.obj
 0001:000d2110       ??1?$_Uninitialized_backout@PAV?$_List_unchecked_const_iterator@V?$_List_val@U?$_List_simple_types@VWeaponType@BWAPI@@@std@@@std@@U_Iterator_base0@2@@std@@@std@@QAE@XZ 100d3110 f i BWAPILIB:WeaponType.obj
 0001:000d2130       ??1?$list@VBulletType@BWAPI@@V?$allocator@VBulletType@BWAPI@@@std@@@std@@QAE@XZ 100d3130 f i BWAPILIB:BulletType.obj
 0001:000d2130       ??1?$list@VOrder@BWAPI@@V?$allocator@VOrder@BWAPI@@@std@@@std@@QAE@XZ 100d3130 f i BWAPILIB:Order.obj
 0001:000d2130       ??1?$list@VRace@BWAPI@@V?$allocator@VRace@BWAPI@@@std@@@std@@QAE@XZ 100d3130 f i BWAPILIB:Race.obj
 0001:000d2130       ??1?$list@VTechType@BWAPI@@V?$allocator@VTechType@BWAPI@@@std@@@std@@QAE@XZ 100d3130 f i BWAPILIB:UnitType.obj
 0001:000d2130       ??1?$list@VUnitType@BWAPI@@V?$allocator@VUnitType@BWAPI@@@std@@@std@@QAE@XZ 100d3130 f i BWAPILIB:UnitType.obj
 0001:000d2130       ??1?$list@VUpgradeType@BWAPI@@V?$allocator@VUpgradeType@BWAPI@@@std@@@std@@QAE@XZ 100d3130 f i BWAPILIB:UnitType.obj
 0001:000d2130       ??1?$list@VWeaponType@BWAPI@@V?$allocator@VWeaponType@BWAPI@@@std@@@std@@QAE@XZ 100d3130 f i BWAPILIB:WeaponType.obj
 0001:000d2150       ??1?$unordered_set@VBulletType@BWAPI@@U?$hash@H@std@@U?$equal_to@VBulletType@BWAPI@@@4@V?$allocator@VBulletType@BWAPI@@@4@@std@@QAE@XZ 100d3150 f i BWAPILIB:BulletType.obj
 0001:000d2150       ??1?$unordered_set@VOrder@BWAPI@@U?$hash@H@std@@U?$equal_to@VOrder@BWAPI@@@4@V?$allocator@VOrder@BWAPI@@@4@@std@@QAE@XZ 100d3150 f i BWAPILIB:Order.obj
 0001:000d2150       ??1?$unordered_set@VRace@BWAPI@@U?$hash@H@std@@U?$equal_to@VRace@BWAPI@@@4@V?$allocator@VRace@BWAPI@@@4@@std@@QAE@XZ 100d3150 f i BWAPILIB:Race.obj
 0001:000d2150       ??1?$unordered_set@VTechType@BWAPI@@U?$hash@H@std@@U?$equal_to@VTechType@BWAPI@@@4@V?$allocator@VTechType@BWAPI@@@4@@std@@QAE@XZ 100d3150 f i BWAPILIB:UnitType.obj
 0001:000d2150       ??1?$unordered_set@VUnitType@BWAPI@@U?$hash@H@std@@U?$equal_to@VUnitType@BWAPI@@@4@V?$allocator@VUnitType@BWAPI@@@4@@std@@QAE@XZ 100d3150 f i BWAPILIB:UnitType.obj
 0001:000d2150       ??1?$unordered_set@VUpgradeType@BWAPI@@U?$hash@H@std@@U?$equal_to@VUpgradeType@BWAPI@@@4@V?$allocator@VUpgradeType@BWAPI@@@4@@std@@QAE@XZ 100d3150 f i BWAPILIB:UnitType.obj
 0001:000d2150       ??1?$unordered_set@VWeaponType@BWAPI@@U?$hash@H@std@@U?$equal_to@VWeaponType@BWAPI@@@4@V?$allocator@VWeaponType@BWAPI@@@4@@std@@QAE@XZ 100d3150 f i BWAPILIB:WeaponType.obj
 0001:000d2170       ??1_Clear_guard@?$_Hash@V?$_Uset_traits@VTechType@BWAPI@@V?$_Uhash_compare@VTechType@BWAPI@@U?$hash@H@std@@U?$equal_to@VTechType@BWAPI@@@4@@std@@V?$allocator@VTechType@BWAPI@@@4@$0A@@std@@@std@@QAE@XZ 100d3170 f i BWAPILIB:UnitType.obj
 0001:000d2170       ??1_Clear_guard@?$_Hash@V?$_Uset_traits@VUnitType@BWAPI@@V?$_Uhash_compare@VUnitType@BWAPI@@U?$hash@H@std@@U?$equal_to@VUnitType@BWAPI@@@4@@std@@V?$allocator@VUnitType@BWAPI@@@4@$0A@@std@@@std@@QAE@XZ 100d3170 f i BWAPILIB:UnitType.obj
 0001:000d2170       ??1_Clear_guard@?$_Hash@V?$_Uset_traits@VUpgradeType@BWAPI@@V?$_Uhash_compare@VUpgradeType@BWAPI@@U?$hash@H@std@@U?$equal_to@VUpgradeType@BWAPI@@@4@@std@@V?$allocator@VUpgradeType@BWAPI@@@4@$0A@@std@@@std@@QAE@XZ 100d3170 f i BWAPILIB:UnitType.obj
 0001:000d2190       ??8?$_List_unchecked_const_iterator@V?$_List_val@U?$_List_simple_types@VBulletType@BWAPI@@@std@@@std@@U_Iterator_base0@2@@std@@QBE_NABV01@@Z 100d3190 f i BWAPILIB:BulletType.obj
 0001:000d2190       ??8?$_List_unchecked_const_iterator@V?$_List_val@U?$_List_simple_types@VOrder@BWAPI@@@std@@@std@@U_Iterator_base0@2@@std@@QBE_NABV01@@Z 100d3190 f i BWAPILIB:Order.obj
 0001:000d2190       ??8?$_List_unchecked_const_iterator@V?$_List_val@U?$_List_simple_types@VRace@BWAPI@@@std@@@std@@U_Iterator_base0@2@@std@@QBE_NABV01@@Z 100d3190 f i BWAPILIB:Race.obj
 0001:000d2190       ??8?$_List_unchecked_const_iterator@V?$_List_val@U?$_List_simple_types@VTechType@BWAPI@@@std@@@std@@U_Iterator_base0@2@@std@@QBE_NABV01@@Z 100d3190 f i BWAPILIB:UnitType.obj
 0001:000d2190       ??8?$_List_unchecked_const_iterator@V?$_List_val@U?$_List_simple_types@VUpgradeType@BWAPI@@@std@@@std@@U_Iterator_base0@2@@std@@QBE_NABV01@@Z 100d3190 f i BWAPILIB:UnitType.obj
 0001:000d2190       ??8?$_List_unchecked_const_iterator@V?$_List_val@U?$_List_simple_types@VWeaponType@BWAPI@@@std@@@std@@U_Iterator_base0@2@@std@@QBE_NABV01@@Z 100d3190 f i BWAPILIB:WeaponType.obj
 0001:000d21c0       ??9?$_List_unchecked_const_iterator@V?$_List_val@U?$_List_simple_types@VBulletType@BWAPI@@@std@@@std@@U_Iterator_base0@2@@std@@QBE_NABV01@@Z 100d31c0 f i BWAPILIB:BulletType.obj
 0001:000d21c0       ??9?$_List_unchecked_const_iterator@V?$_List_val@U?$_List_simple_types@VOrder@BWAPI@@@std@@@std@@U_Iterator_base0@2@@std@@QBE_NABV01@@Z 100d31c0 f i BWAPILIB:Order.obj
 0001:000d21c0       ??9?$_List_unchecked_const_iterator@V?$_List_val@U?$_List_simple_types@VRace@BWAPI@@@std@@@std@@U_Iterator_base0@2@@std@@QBE_NABV01@@Z 100d31c0 f i BWAPILIB:Race.obj
 0001:000d21c0       ??9?$_List_unchecked_const_iterator@V?$_List_val@U?$_List_simple_types@VTechType@BWAPI@@@std@@@std@@U_Iterator_base0@2@@std@@QBE_NABV01@@Z 100d31c0 f i BWAPILIB:UnitType.obj
 0001:000d21c0       ??9?$_List_unchecked_const_iterator@V?$_List_val@U?$_List_simple_types@VUpgradeType@BWAPI@@@std@@@std@@U_Iterator_base0@2@@std@@QBE_NABV01@@Z 100d31c0 f i BWAPILIB:UnitType.obj
 0001:000d21c0       ??9?$_List_unchecked_const_iterator@V?$_List_val@U?$_List_simple_types@VWeaponType@BWAPI@@@std@@@std@@U_Iterator_base0@2@@std@@QBE_NABV01@@Z 100d31c0 f i BWAPILIB:WeaponType.obj
 0001:000d2200       ??A?$vector@V?$map@VUnitType@BWAPI@@HU?$less@VUnitType@BWAPI@@@std@@V?$allocator@U?$pair@$$CBVUnitType@BWAPI@@H@std@@@4@@std@@V?$allocator@V?$map@VUnitType@BWAPI@@HU?$less@VUnitType@BWAPI@@@std@@V?$allocator@U?$pair@$$CBVUnitType@BWAPI@@H@std@@@4@@std@@@2@@std@@QAEAAV?$map@VUnitType@BWAPI@@HU?$less@VUnitType@BWAPI@@@std@@V?$allocator@U?$pair@$$CBVUnitType@BWAPI@@H@std@@@4@@1@I@Z 100d3200 f i BWAPILIB:UnitType.obj
 0001:000d2200       ??A?$vector@V?$map@VUnitType@BWAPI@@HU?$less@VUnitType@BWAPI@@@std@@V?$allocator@U?$pair@$$CBVUnitType@BWAPI@@H@std@@@4@@std@@V?$allocator@V?$map@VUnitType@BWAPI@@HU?$less@VUnitType@BWAPI@@@std@@V?$allocator@U?$pair@$$CBVUnitType@BWAPI@@H@std@@@4@@std@@@2@@std@@QBEABV?$map@VUnitType@BWAPI@@HU?$less@VUnitType@BWAPI@@@std@@V?$allocator@U?$pair@$$CBVUnitType@BWAPI@@H@std@@@4@@1@I@Z 100d3200 f i BWAPILIB:UnitType.obj
 0001:000d2220       ??D?$_List_unchecked_const_iterator@V?$_List_val@U?$_List_simple_types@VBulletType@BWAPI@@@std@@@std@@U_Iterator_base0@2@@std@@QBEABVBulletType@BWAPI@@XZ 100d3220 f i BWAPILIB:BulletType.obj
 0001:000d2220       ??D?$_List_unchecked_const_iterator@V?$_List_val@U?$_List_simple_types@VOrder@BWAPI@@@std@@@std@@U_Iterator_base0@2@@std@@QBEABVOrder@BWAPI@@XZ 100d3220 f i BWAPILIB:Order.obj
 0001:000d2220       ??D?$_List_unchecked_const_iterator@V?$_List_val@U?$_List_simple_types@VRace@BWAPI@@@std@@@std@@U_Iterator_base0@2@@std@@QBEABVRace@BWAPI@@XZ 100d3220 f i BWAPILIB:Race.obj
 0001:000d2220       ??D?$_List_unchecked_const_iterator@V?$_List_val@U?$_List_simple_types@VTechType@BWAPI@@@std@@@std@@U_Iterator_base0@2@@std@@QBEABVTechType@BWAPI@@XZ 100d3220 f i BWAPILIB:UnitType.obj
 0001:000d2220       ??D?$_List_unchecked_const_iterator@V?$_List_val@U?$_List_simple_types@VUpgradeType@BWAPI@@@std@@@std@@U_Iterator_base0@2@@std@@QBEABVUpgradeType@BWAPI@@XZ 100d3220 f i BWAPILIB:UnitType.obj
 0001:000d2220       ??D?$_List_unchecked_const_iterator@V?$_List_val@U?$_List_simple_types@VWeaponType@BWAPI@@@std@@@std@@U_Iterator_base0@2@@std@@QBEABVWeaponType@BWAPI@@XZ 100d3220 f i BWAPILIB:WeaponType.obj
 0001:000d2240       ??E?$_List_unchecked_const_iterator@V?$_List_val@U?$_List_simple_types@VBulletType@BWAPI@@@std@@@std@@U_Iterator_base0@2@@std@@QAEAAV01@XZ 100d3240 f i BWAPILIB:BulletType.obj
 0001:000d2240       ??E?$_List_unchecked_const_iterator@V?$_List_val@U?$_List_simple_types@VOrder@BWAPI@@@std@@@std@@U_Iterator_base0@2@@std@@QAEAAV01@XZ 100d3240 f i BWAPILIB:Order.obj
 0001:000d2240       ??E?$_List_unchecked_const_iterator@V?$_List_val@U?$_List_simple_types@VRace@BWAPI@@@std@@@std@@U_Iterator_base0@2@@std@@QAEAAV01@XZ 100d3240 f i BWAPILIB:Race.obj
 0001:000d2240       ??E?$_List_unchecked_const_iterator@V?$_List_val@U?$_List_simple_types@VTechType@BWAPI@@@std@@@std@@U_Iterator_base0@2@@std@@QAEAAV01@XZ 100d3240 f i BWAPILIB:UnitType.obj
 0001:000d2240       ??E?$_List_unchecked_const_iterator@V?$_List_val@U?$_List_simple_types@VUpgradeType@BWAPI@@@std@@@std@@U_Iterator_base0@2@@std@@QAEAAV01@XZ 100d3240 f i BWAPILIB:UnitType.obj
 0001:000d2240       ??E?$_List_unchecked_const_iterator@V?$_List_val@U?$_List_simple_types@VWeaponType@BWAPI@@@std@@@std@@U_Iterator_base0@2@@std@@QAEAAV01@XZ 100d3240 f i BWAPILIB:WeaponType.obj
 0001:000d2260       ??F?$_List_unchecked_const_iterator@V?$_List_val@U?$_List_simple_types@VBulletType@BWAPI@@@std@@@std@@U_Iterator_base0@2@@std@@QAEAAV01@XZ 100d3260 f i BWAPILIB:BulletType.obj
 0001:000d2260       ??F?$_List_unchecked_const_iterator@V?$_List_val@U?$_List_simple_types@VOrder@BWAPI@@@std@@@std@@U_Iterator_base0@2@@std@@QAEAAV01@XZ 100d3260 f i BWAPILIB:Order.obj
 0001:000d2260       ??F?$_List_unchecked_const_iterator@V?$_List_val@U?$_List_simple_types@VRace@BWAPI@@@std@@@std@@U_Iterator_base0@2@@std@@QAEAAV01@XZ 100d3260 f i BWAPILIB:Race.obj
 0001:000d2260       ??F?$_List_unchecked_const_iterator@V?$_List_val@U?$_List_simple_types@VTechType@BWAPI@@@std@@@std@@U_Iterator_base0@2@@std@@QAEAAV01@XZ 100d3260 f i BWAPILIB:UnitType.obj
 0001:000d2260       ??F?$_List_unchecked_const_iterator@V?$_List_val@U?$_List_simple_types@VUnitType@BWAPI@@@std@@@std@@U_Iterator_base0@2@@std@@QAEAAV01@XZ 100d3260 f i BWAPILIB:UnitType.obj
 0001:000d2260       ??F?$_List_unchecked_const_iterator@V?$_List_val@U?$_List_simple_types@VUpgradeType@BWAPI@@@std@@@std@@U_Iterator_base0@2@@std@@QAEAAV01@XZ 100d3260 f i BWAPILIB:UnitType.obj
 0001:000d2260       ??F?$_List_unchecked_const_iterator@V?$_List_val@U?$_List_simple_types@VWeaponType@BWAPI@@@std@@@std@@U_Iterator_base0@2@@std@@QAEAAV01@XZ 100d3260 f i BWAPILIB:WeaponType.obj
 0001:000d2280       ??R?$_Conditionally_enabled_hash@H$00@std@@SAIABH@Z 100d3280 f i BWAPILIB:UnitType.obj
 0001:000d22a0       ??R?$equal_to@VBulletType@BWAPI@@@std@@QBE_NABVBulletType@BWAPI@@0@Z 100d32a0 f i BWAPILIB:BulletType.obj
 0001:000d22a0       ??R?$equal_to@VOrder@BWAPI@@@std@@QBE_NABVOrder@BWAPI@@0@Z 100d32a0 f i BWAPILIB:Order.obj
 0001:000d22a0       ??R?$equal_to@VRace@BWAPI@@@std@@QBE_NABVRace@BWAPI@@0@Z 100d32a0 f i BWAPILIB:Race.obj
 0001:000d22a0       ??R?$equal_to@VTechType@BWAPI@@@std@@QBE_NABVTechType@BWAPI@@0@Z 100d32a0 f i BWAPILIB:UnitType.obj
 0001:000d22a0       ??R?$equal_to@VUnitType@BWAPI@@@std@@QBE_NABVUnitType@BWAPI@@0@Z 100d32a0 f i BWAPILIB:UnitType.obj
 0001:000d22a0       ??R?$equal_to@VUpgradeType@BWAPI@@@std@@QBE_NABVUpgradeType@BWAPI@@0@Z 100d32a0 f i BWAPILIB:UnitType.obj
 0001:000d22a0       ??R?$equal_to@VWeaponType@BWAPI@@@std@@QBE_NABVWeaponType@BWAPI@@0@Z 100d32a0 f i BWAPILIB:WeaponType.obj
 0001:000d22e0       ?_Alloc_sentinel_and_proxy@?$list@VBulletType@BWAPI@@V?$allocator@VBulletType@BWAPI@@@std@@@std@@AAEXXZ 100d32e0 f i BWAPILIB:BulletType.obj
 0001:000d22e0       ?_Alloc_sentinel_and_proxy@?$list@VOrder@BWAPI@@V?$allocator@VOrder@BWAPI@@@std@@@std@@AAEXXZ 100d32e0 f i BWAPILIB:Order.obj
 0001:000d22e0       ?_Alloc_sentinel_and_proxy@?$list@VRace@BWAPI@@V?$allocator@VRace@BWAPI@@@std@@@std@@AAEXXZ 100d32e0 f i BWAPILIB:Race.obj
 0001:000d22e0       ?_Alloc_sentinel_and_proxy@?$list@VTechType@BWAPI@@V?$allocator@VTechType@BWAPI@@@std@@@std@@AAEXXZ 100d32e0 f i BWAPILIB:UnitType.obj
 0001:000d22e0       ?_Alloc_sentinel_and_proxy@?$list@VUnitType@BWAPI@@V?$allocator@VUnitType@BWAPI@@@std@@@std@@AAEXXZ 100d32e0 f i BWAPILIB:UnitType.obj
 0001:000d22e0       ?_Alloc_sentinel_and_proxy@?$list@VUpgradeType@BWAPI@@V?$allocator@VUpgradeType@BWAPI@@@std@@@std@@AAEXXZ 100d32e0 f i BWAPILIB:UnitType.obj
 0001:000d22e0       ?_Alloc_sentinel_and_proxy@?$list@VWeaponType@BWAPI@@V?$allocator@VWeaponType@BWAPI@@@std@@@std@@AAEXXZ 100d32e0 f i BWAPILIB:WeaponType.obj
 0001:000d2360       ?_Allocate@?$_Alloc_construct_ptr@V?$allocator@U?$_List_node@VBulletType@BWAPI@@PAX@std@@@std@@@std@@QAEXXZ 100d3360 f i BWAPILIB:BulletType.obj
 0001:000d2360       ?_Allocate@?$_Alloc_construct_ptr@V?$allocator@U?$_List_node@VOrder@BWAPI@@PAX@std@@@std@@@std@@QAEXXZ 100d3360 f i BWAPILIB:Order.obj
 0001:000d2360       ?_Allocate@?$_Alloc_construct_ptr@V?$allocator@U?$_List_node@VRace@BWAPI@@PAX@std@@@std@@@std@@QAEXXZ 100d3360 f i BWAPILIB:Race.obj
 0001:000d2360       ?_Allocate@?$_Alloc_construct_ptr@V?$allocator@U?$_List_node@VTechType@BWAPI@@PAX@std@@@std@@@std@@QAEXXZ 100d3360 f i BWAPILIB:UnitType.obj
 0001:000d2360       ?_Allocate@?$_Alloc_construct_ptr@V?$allocator@U?$_List_node@VUnitType@BWAPI@@PAX@std@@@std@@@std@@QAEXXZ 100d3360 f i BWAPILIB:UnitType.obj
 0001:000d2360       ?_Allocate@?$_Alloc_construct_ptr@V?$allocator@U?$_List_node@VUpgradeType@BWAPI@@PAX@std@@@std@@@std@@QAEXXZ 100d3360 f i BWAPILIB:UnitType.obj
 0001:000d2360       ?_Allocate@?$_Alloc_construct_ptr@V?$allocator@U?$_List_node@VWeaponType@BWAPI@@PAX@std@@@std@@@std@@QAEXXZ 100d3360 f i BWAPILIB:WeaponType.obj
 0001:000d2390       ?_Assign_grow@?$_Hash_vec@V?$allocator@V?$_List_unchecked_const_iterator@V?$_List_val@U?$_List_simple_types@VBulletType@BWAPI@@@std@@@std@@U_Iterator_base0@2@@std@@@std@@@std@@QAEXIV?$_List_unchecked_const_iterator@V?$_List_val@U?$_List_simple_types@VBulletType@BWAPI@@@std@@@std@@U_Iterator_base0@2@@2@@Z 100d3390 f i BWAPILIB:BulletType.obj
 0001:000d2390       ?_Assign_grow@?$_Hash_vec@V?$allocator@V?$_List_unchecked_const_iterator@V?$_List_val@U?$_List_simple_types@VOrder@BWAPI@@@std@@@std@@U_Iterator_base0@2@@std@@@std@@@std@@QAEXIV?$_List_unchecked_const_iterator@V?$_List_val@U?$_List_simple_types@VOrder@BWAPI@@@std@@@std@@U_Iterator_base0@2@@2@@Z 100d3390 f i BWAPILIB:Order.obj
 0001:000d2390       ?_Assign_grow@?$_Hash_vec@V?$allocator@V?$_List_unchecked_const_iterator@V?$_List_val@U?$_List_simple_types@VRace@BWAPI@@@std@@@std@@U_Iterator_base0@2@@std@@@std@@@std@@QAEXIV?$_List_unchecked_const_iterator@V?$_List_val@U?$_List_simple_types@VRace@BWAPI@@@std@@@std@@U_Iterator_base0@2@@2@@Z 100d3390 f i BWAPILIB:Race.obj
 0001:000d2390       ?_Assign_grow@?$_Hash_vec@V?$allocator@V?$_List_unchecked_const_iterator@V?$_List_val@U?$_List_simple_types@VTechType@BWAPI@@@std@@@std@@U_Iterator_base0@2@@std@@@std@@@std@@QAEXIV?$_List_unchecked_const_iterator@V?$_List_val@U?$_List_simple_types@VTechType@BWAPI@@@std@@@std@@U_Iterator_base0@2@@2@@Z 100d3390 f i BWAPILIB:UnitType.obj
 0001:000d2390       ?_Assign_grow@?$_Hash_vec@V?$allocator@V?$_List_unchecked_const_iterator@V?$_List_val@U?$_List_simple_types@VUnitType@BWAPI@@@std@@@std@@U_Iterator_base0@2@@std@@@std@@@std@@QAEXIV?$_List_unchecked_const_iterator@V?$_List_val@U?$_List_simple_types@VUnitType@BWAPI@@@std@@@std@@U_Iterator_base0@2@@2@@Z 100d3390 f i BWAPILIB:UnitType.obj
 0001:000d2390       ?_Assign_grow@?$_Hash_vec@V?$allocator@V?$_List_unchecked_const_iterator@V?$_List_val@U?$_List_simple_types@VUpgradeType@BWAPI@@@std@@@std@@U_Iterator_base0@2@@std@@@std@@@std@@QAEXIV?$_List_unchecked_const_iterator@V?$_List_val@U?$_List_simple_types@VUpgradeType@BWAPI@@@std@@@std@@U_Iterator_base0@2@@2@@Z 100d3390 f i BWAPILIB:UnitType.obj
 0001:000d2390       ?_Assign_grow@?$_Hash_vec@V?$allocator@V?$_List_unchecked_const_iterator@V?$_List_val@U?$_List_simple_types@VWeaponType@BWAPI@@@std@@@std@@U_Iterator_base0@2@@std@@@std@@@std@@QAEXIV?$_List_unchecked_const_iterator@V?$_List_val@U?$_List_simple_types@VWeaponType@BWAPI@@@std@@@std@@U_Iterator_base0@2@@2@@Z 100d3390 f i BWAPILIB:WeaponType.obj
 0001:000d2460       ?_Check_max_size@?$_Hash@V?$_Uset_traits@VBulletType@BWAPI@@V?$_Uhash_compare@VBulletType@BWAPI@@U?$hash@H@std@@U?$equal_to@VBulletType@BWAPI@@@4@@std@@V?$allocator@VBulletType@BWAPI@@@4@$0A@@std@@@std@@IBEXXZ 100d3460 f i BWAPILIB:BulletType.obj
